

Microchip MPLAB XC8 Assembler V2.41 build 20230208172133 
                                                                                               Sun Jun 11 19:14:44 2023

Microchip MPLAB XC8 C Compiler v2.41 (Free license) build 20230208172133 Og1 
     1                           	processor	18F4620
     2                           	fnconf	rparam,??,?,0
     3                           	pagewidth 120
     4                           	opt	flic
     5                           	psect	idataCOMRAM,global,class=CODE,delta=1,noexec
     6                           	psect	idataBANK0,global,class=CODE,delta=1,noexec
     7                           	psect	smallconst,global,reloc=2,class=SMALLCONST,delta=1,noexec
     8                           	psect	cinit,global,reloc=2,class=CODE,delta=1
     9                           	psect	bssCOMRAM,global,class=COMRAM,space=1,delta=1,lowdata,noexec
    10                           	psect	dataCOMRAM,global,class=COMRAM,space=1,delta=1,lowdata,noexec
    11                           	psect	bssBANK0,global,class=BANK0,space=1,delta=1,lowdata,noexec
    12                           	psect	dataBANK0,global,class=BANK0,space=1,delta=1,lowdata,noexec
    13                           	psect	cstackCOMRAM,global,class=COMRAM,space=1,delta=1,lowdata,noexec
    14                           	psect	text0,global,reloc=2,class=CODE,delta=1
    15                           	psect	text1,global,reloc=2,class=CODE,delta=1
    16                           	psect	text2,global,reloc=2,class=CODE,delta=1
    17                           	psect	text3,global,reloc=2,class=CODE,delta=1
    18                           	psect	text4,global,reloc=2,class=CODE,delta=1
    19                           	psect	text5,global,reloc=2,class=CODE,delta=1
    20                           	psect	text6,global,reloc=2,class=CODE,delta=1
    21                           	psect	text7,global,reloc=2,class=CODE,delta=1
    22                           	psect	text8,global,reloc=2,class=CODE,delta=1
    23                           	psect	text9,global,reloc=2,class=CODE,delta=1
    24                           	psect	text10,global,reloc=2,class=CODE,delta=1
    25                           	psect	text11,global,reloc=2,class=CODE,delta=1
    26                           	psect	intcode,global,reloc=2,class=CODE,delta=1
    27                           	psect	intcode_body,global,reloc=2,class=CODE,delta=1
    28                           	psect	text13,global,reloc=2,class=CODE,delta=1
    29                           	psect	text14,global,reloc=2,class=CODE,delta=1
    30                           	psect	text15,global,reloc=2,class=CODE,delta=1
    31                           	psect	text16,global,reloc=2,class=CODE,delta=1
    32                           	psect	text17,global,reloc=2,class=CODE,delta=1
    33                           	psect	text18,global,reloc=2,class=CODE,delta=1
    34                           	psect	text19,global,reloc=2,class=CODE,delta=1
    35                           	psect	text20,global,reloc=2,class=CODE,delta=1
    36                           	psect	text21,global,reloc=2,class=CODE,delta=1
    37                           	psect	text22,global,reloc=2,class=CODE,delta=1
    38                           	psect	text23,global,reloc=2,class=CODE,delta=1
    39                           	psect	text24,global,reloc=2,class=CODE,delta=1
    40                           	psect	text25,global,reloc=2,class=CODE,delta=1
    41                           	psect	text26,global,reloc=2,class=CODE,delta=1
    42                           	psect	text27,global,reloc=2,class=CODE,delta=1
    43                           	psect	text28,global,reloc=2,class=CODE,delta=1
    44                           	psect	text29,global,reloc=2,class=CODE,delta=1
    45                           	psect	text30,global,reloc=2,class=CODE,delta=1
    46                           	psect	text31,global,reloc=2,class=CODE,delta=1
    47                           	psect	intsave_regs,global,class=BIGRAM,space=1,delta=1,noexec
    48                           	psect	rparam,global,class=COMRAM,space=1,delta=1,noexec
    49                           	psect	temp,global,ovrld,common,class=COMRAM,space=1,delta=1
    50                           	psect	idloc,global,abs,ovrld,class=IDLOC,space=5,delta=1,noexec
    51                           	psect	config,global,abs,ovrld,class=CONFIG,space=4,delta=1,noexec
    52   000000                     
    53                           ; Version 2.20
    54                           ; Generated 12/02/2020 GMT
    55                           ; 
    56                           ; Copyright © 2020, Microchip Technology Inc. and its subsidiaries ("Microchip")
    57                           ; All rights reserved.
    58                           ; 
    59                           ; This software is developed by Microchip Technology Inc. and its subsidiaries ("Microch
      +                          ip").
    60                           ; 
    61                           ; Redistribution and use in source and binary forms, with or without modification, are
    62                           ; permitted provided that the following conditions are met:
    63                           ; 
    64                           ;     1. Redistributions of source code must retain the above copyright notice, this lis
      +                          t of
    65                           ;        conditions and the following disclaimer.
    66                           ; 
    67                           ;     2. Redistributions in binary form must reproduce the above copyright notice, this 
      +                          list
    68                           ;        of conditions and the following disclaimer in the documentation and/or other
    69                           ;        materials provided with the distribution.
    70                           ; 
    71                           ;     3. Microchip's name may not be used to endorse or promote products derived from th
      +                          is
    72                           ;        software without specific prior written permission.
    73                           ; 
    74                           ; THIS SOFTWARE IS PROVIDED BY MICROCHIP "AS IS" AND ANY EXPRESS OR IMPLIED WARRANTIES,
    75                           ; INCLUDING, BUT NOT LIMITED TO, THE IMPLIED WARRANTIES OF MERCHANTABILITY AND FITNESS F
      +                          OR
    76                           ; PURPOSE ARE DISCLAIMED.  IN NO EVENT SHALL MICROCHIP BE LIABLE FOR ANY DIRECT, INDIREC
      +                          T,
    77                           ; INCIDENTAL, SPECIAL, EXEMPLARY, OR CONSEQUENTIAL DAMAGES (INCLUDING BUT NOT LIMITED TO
    78                           ; PROCUREMENT OF SUBSTITUTE GOODS OR SERVICES; LOSS OF USE, DATA OR PROFITS; OR BUSINESS
    79                           ; INTERRUPTION) HOWSOEVER CAUSED AND ON ANY THEORY OF LIABILITY, WHETHER IN CONTRACT, ST
      +                          RICT
    80                           ; LIABILITY, OR TORT (INCLUDING NEGLIGENCE OR OTHERWISE) ARISING IN ANY WAY OUT OF THE U
      +                          SE OF
    81                           ; THIS SOFTWARE, EVEN IF ADVISED OF THE POSSIBILITY OF SUCH DAMAGE.
    82                           ; 
    83                           ; 
    84                           ; Code-generator required, PIC18F4620 Definitions
    85                           ; 
    86                           ; SFR Addresses
    87   000000                     
    88                           	psect	idataCOMRAM
    89   001A8C                     __pidataCOMRAM:
    90                           	callstack 0
    91                           
    92                           ;initializer for _lat_registers
    93   001A8C  89                 	db	137
    94   001A8D  0F                 	db	15
    95   001A8E  8A                 	db	138
    96   001A8F  0F                 	db	15
    97   001A90  8B                 	db	139
    98   001A91  0F                 	db	15
    99   001A92  8C                 	db	140
   100   001A93  0F                 	db	15
   101   001A94  8D                 	db	141
   102   001A95  0F                 	db	15
   103                           
   104                           ;initializer for _tris_registers
   105   001A96  92                 	db	146
   106   001A97  0F                 	db	15
   107   001A98  93                 	db	147
   108   001A99  0F                 	db	15
   109   001A9A  94                 	db	148
   110   001A9B  0F                 	db	15
   111   001A9C  95                 	db	149
   112   001A9D  0F                 	db	15
   113   001A9E  96                 	db	150
   114   001A9F  0F                 	db	15
   115                           
   116                           ;initializer for MSSP_SPI_Slave_Mode_GPIO_PIN_Configurations@F3073
   117   001AA0  68                 	db	104
   118                           
   119                           ;initializer for MSSP_SPI_Slave_Mode_GPIO_PIN_Configurations@F3071
   120   001AA1  5A                 	db	90
   121                           
   122                           ;initializer for MSSP_SPI_Slave_Mode_GPIO_PIN_Configurations@F3069
   123   001AA2  62                 	db	98
   124                           
   125                           ;initializer for MSSP_SPI_Slave_Mode_GPIO_PIN_Configurations@F3067
   126   001AA3  2A                 	db	42
   127                           
   128                           ;initializer for MSSP_SPI_Msster_Mode_GPIO_PIN_Configurations@F3062
   129   001AA4  1A                 	db	26
   130                           
   131                           ;initializer for MSSP_SPI_Msster_Mode_GPIO_PIN_Configurations@F3060
   132   001AA5  62                 	db	98
   133                           
   134                           ;initializer for MSSP_SPI_Msster_Mode_GPIO_PIN_Configurations@F3058
   135   001AA6  2A                 	db	42
   136                           
   137                           ;initializer for _RB7_Flag
   138   001AA7  01                 	db	1
   139                           
   140                           ;initializer for _RB6_Flag
   141   001AA8  01                 	db	1
   142                           
   143                           ;initializer for _RB5_Flag
   144   001AA9  01                 	db	1
   145                           
   146                           ;initializer for _RB4_Flag
   147   001AAA  01                 	db	1
   148                           
   149                           	psect	idataBANK0
   150   001B38                     __pidataBANK0:
   151                           	callstack 0
   152                           
   153                           ;initializer for _port_registers
   154   001B38  80                 	db	128
   155   001B39  0F                 	db	15
   156   001B3A  81                 	db	129
   157   001B3B  0F                 	db	15
   158   001B3C  82                 	db	130
   159   001B3D  0F                 	db	15
   160   001B3E  83                 	db	131
   161   001B3F  0F                 	db	15
   162   001B40  84                 	db	132
   163   001B41  0F                 	db	15
   164                           
   165                           	psect	smallconst
   166   001000                     __psmallconst:
   167                           	callstack 0
   168   001000  00                 	db	0
   169   001001                     _btn_values:
   170                           	callstack 0
   171   001001  37                 	db	55
   172   001002  38                 	db	56
   173   001003  39                 	db	57
   174   001004  2F                 	db	47
   175   001005  34                 	db	52
   176   001006  35                 	db	53
   177   001007  36                 	db	54
   178   001008  2A                 	db	42
   179   001009  31                 	db	49
   180   00100A  32                 	db	50
   181   00100B  33                 	db	51
   182   00100C  2D                 	db	45
   183   00100D  23                 	db	35
   184   00100E  30                 	db	48
   185   00100F  3D                 	db	61
   186   001010  2B                 	db	43
   187   001011                     __end_of_btn_values:
   188                           	callstack 0
   189   000000                     _SPBRGH	set	4016
   190   000000                     _SPBRG	set	4015
   191   000000                     _TXREG	set	4013
   192   000000                     _TXSTAbits	set	4012
   193   000000                     _RCREG	set	4014
   194   000000                     _RCSTAbits	set	4011
   195   000000                     _TMR3L	set	4018
   196   000000                     _TMR3H	set	4019
   197   000000                     _TMR2	set	4044
   198   000000                     _T2CONbits	set	4042
   199   000000                     _TMR1L	set	4046
   200   000000                     _TMR1H	set	4047
   201   000000                     _T1CONbits	set	4045
   202   000000                     _TMR0L	set	4054
   203   000000                     _TMR0H	set	4055
   204   000000                     _T0CONbits	set	4053
   205   000000                     _INTCON2bits	set	4081
   206   000000                     _INTCON3bits	set	4080
   207   000000                     _SSPBUF	set	4041
   208   000000                     _SSPSTATbits	set	4039
   209   000000                     _SSPADD	set	4040
   210   000000                     _SSPCON2bits	set	4037
   211   000000                     _SSPCON1bits	set	4038
   212   000000                     _EECON2	set	4007
   213   000000                     _ADCON1bits	set	4033
   214   000000                     _ADRESL	set	4035
   215   000000                     _ADRESH	set	4036
   216   000000                     _INTCONbits	set	4082
   217   000000                     _TRISD	set	3989
   218   000000                     _TRISC	set	3988
   219   000000                     _PR2	set	4043
   220   000000                     _TRISB	set	3987
   221   000000                     _TRISE	set	3990
   222   000000                     _PORTBbits	set	3969
   223   000000                     _TRISCbits	set	3988
   224   000000                     _PIE1bits	set	3997
   225   000000                     _ADCON2bits	set	4032
   226   000000                     _ADCON0bits	set	4034
   227   000000                     _PORTE	set	3972
   228   000000                     _PORTD	set	3971
   229   000000                     _PORTC	set	3970
   230   000000                     _PORTB	set	3969
   231   000000                     _PORTA	set	3968
   232   000000                     _LATA	set	3977
   233   000000                     _TRISA	set	3986
   234   000000                     _PIE2bits	set	4000
   235   000000                     _CCP2CONbits	set	4026
   236   000000                     _CCP1CONbits	set	4029
   237   000000                     _PIR1bits	set	3998
   238   000000                     _CCPR1L	set	4030
   239   000000                     _CCPR2L	set	4027
   240   000000                     _EECON1bits	set	4006
   241   000000                     _EEDATA	set	4008
   242   000000                     _EEADR	set	4009
   243   000000                     _EEADRH	set	4010
   244   000000                     _T3CONbits	set	4017
   245   000000                     _PIR2bits	set	4001
   246   000000                     _LATE	set	3981
   247   000000                     _LATD	set	3980
   248   000000                     _LATC	set	3979
   249   000000                     _LATB	set	3978
   250   000000                     _BAUDCONbits	set	4024
   251   001011                     STR_1:
   252   001011  25                 	db	37
   253   001012  69                 	db	105	;'i'
   254   001013  00                 	db	0
   255   001014  00                 	db	0	; dummy byte at the end
   256   000000                     
   257                           ; #config settings
   258                           
   259                           	psect	cinit
   260   001926                     __pcinit:
   261                           	callstack 0
   262   001926                     start_initialization:
   263                           	callstack 0
   264   001926                     __initialization:
   265                           	callstack 0
   266                           
   267                           ; Initialize objects allocated to BANK0 (10 bytes)
   268                           ; load TBLPTR registers with __pidataBANK0
   269   001926  0E38               	movlw	low __pidataBANK0
   270   001928  6EF6               	movwf	tblptrl,c
   271   00192A  0E1B               	movlw	high __pidataBANK0
   272   00192C  6EF7               	movwf	tblptrh,c
   273   00192E  0E00               	movlw	low (__pidataBANK0 shr (0+16))
   274   001930  6EF8               	movwf	tblptru,c
   275   001932  EE00  F080         	lfsr	0,__pdataBANK0
   276   001936  EE10 F00A          	lfsr	1,10
   277   00193A                     copy_data0:
   278   00193A  0009               	tblrd		*+
   279   00193C  CFF5 FFEE          	movff	tablat,postinc0
   280   001940  50E5               	movf	postdec1,w,c
   281   001942  50E1               	movf	fsr1l,w,c
   282   001944  E1FA               	bnz	copy_data0
   283                           
   284                           ; Initialize objects allocated to COMRAM (31 bytes)
   285                           ; load TBLPTR registers with __pidataCOMRAM
   286   001946  0E8C               	movlw	low __pidataCOMRAM
   287   001948  6EF6               	movwf	tblptrl,c
   288   00194A  0E1A               	movlw	high __pidataCOMRAM
   289   00194C  6EF7               	movwf	tblptrh,c
   290   00194E  0E00               	movlw	low (__pidataCOMRAM shr (0+16))
   291   001950  6EF8               	movwf	tblptru,c
   292   001952  EE00  F045         	lfsr	0,__pdataCOMRAM
   293   001956  EE10 F01F          	lfsr	1,31
   294   00195A                     copy_data1:
   295   00195A  0009               	tblrd		*+
   296   00195C  CFF5 FFEE          	movff	tablat,postinc0
   297   001960  50E5               	movf	postdec1,w,c
   298   001962  50E1               	movf	fsr1l,w,c
   299   001964  E1FA               	bnz	copy_data1
   300                           
   301                           ; Clear objects allocated to BANK0 (6 bytes)
   302   001966  0100               	movlb	0
   303   001968  6B8F               	clrf	(__pbssBANK0+5)& (0+255),b
   304   00196A  6B8E               	clrf	(__pbssBANK0+4)& (0+255),b
   305   00196C  6B8D               	clrf	(__pbssBANK0+3)& (0+255),b
   306   00196E  6B8C               	clrf	(__pbssBANK0+2)& (0+255),b
   307   001970  6B8B               	clrf	(__pbssBANK0+1)& (0+255),b
   308   001972  6B8A               	clrf	__pbssBANK0& (0+255),b
   309                           
   310                           ; Clear objects allocated to COMRAM (68 bytes)
   311   001974  EE00  F001         	lfsr	0,__pbssCOMRAM
   312   001978  0E44               	movlw	68
   313   00197A                     clear_0:
   314   00197A  6AEE               	clrf	postinc0,c
   315   00197C  06E8               	decf	wreg,f,c
   316   00197E  E1FD               	bnz	clear_0
   317   001980                     end_of_initialization:
   318                           	callstack 0
   319   001980                     __end_of__initialization:
   320                           	callstack 0
   321   001980  907A               	bcf	int$flags,0,c	;clear compiler interrupt flag (level 1)
   322   001982  927A               	bcf	int$flags,1,c	;clear compiler interrupt flag (level 2)
   323   001984  0100               	movlb	0
   324   001986  EFF1  F00B         	goto	_main	;jump to C main() function
   325                           
   326                           	psect	bssCOMRAM
   327   000001                     __pbssCOMRAM:
   328                           	callstack 0
   329   000001                     _EUSART_OverrunErrorHandler:
   330                           	callstack 0
   331   000001                     	ds	2
   332   000003                     _EUSART_FramingErrorHandler:
   333                           	callstack 0
   334   000003                     	ds	2
   335   000005                     _EUSART_RxInterruptHandler:
   336                           	callstack 0
   337   000005                     	ds	2
   338   000007                     _EUSART_TxInterruptHandler:
   339                           	callstack 0
   340   000007                     	ds	2
   341   000009                     _timer3_preload:
   342                           	callstack 0
   343   000009                     	ds	2
   344   00000B                     _TMR3_InterruptHandler:
   345                           	callstack 0
   346   00000B                     	ds	2
   347   00000D                     _TMR2_InterruptHandler:
   348                           	callstack 0
   349   00000D                     	ds	2
   350   00000F                     _timer1_preload:
   351                           	callstack 0
   352   00000F                     	ds	2
   353   000011                     _TMR1_InterruptHandler:
   354                           	callstack 0
   355   000011                     	ds	2
   356   000013                     _timer0_preload:
   357                           	callstack 0
   358   000013                     	ds	2
   359   000015                     _TMR0_InterruptHandler:
   360                           	callstack 0
   361   000015                     	ds	2
   362   000017                     _RB7_InterruptHandler_LOW:
   363                           	callstack 0
   364   000017                     	ds	2
   365   000019                     _RB7_InterruptHandler_HIGH:
   366                           	callstack 0
   367   000019                     	ds	2
   368   00001B                     _RB6_InterruptHandler_LOW:
   369                           	callstack 0
   370   00001B                     	ds	2
   371   00001D                     _RB6_InterruptHandler_HIGH:
   372                           	callstack 0
   373   00001D                     	ds	2
   374   00001F                     _RB5_InterruptHandler_LOW:
   375                           	callstack 0
   376   00001F                     	ds	2
   377   000021                     _RB5_InterruptHandler_HIGH:
   378                           	callstack 0
   379   000021                     	ds	2
   380   000023                     _RB4_InterruptHandler_LOW:
   381                           	callstack 0
   382   000023                     	ds	2
   383   000025                     _RB4_InterruptHandler_HIGH:
   384                           	callstack 0
   385   000025                     	ds	2
   386   000027                     _INT2_InterruptHandler:
   387                           	callstack 0
   388   000027                     	ds	2
   389   000029                     _INT1_InterruptHandler:
   390                           	callstack 0
   391   000029                     	ds	2
   392   00002B                     _INT0_InterruptHandler:
   393                           	callstack 0
   394   00002B                     	ds	2
   395   00002D                     _I2C_Report_Receive_Overflow_InterruptHandle:
   396                           	callstack 0
   397   00002D                     	ds	2
   398   00002F                     _I2C_DefaultInterruptHandle:
   399                           	callstack 0
   400   00002F                     	ds	2
   401   000031                     _I2C_Report_Write_Collision_InterruptHandler:
   402                           	callstack 0
   403   000031                     	ds	2
   404   000033                     _CCP2_InterruptHandler:
   405                           	callstack 0
   406   000033                     	ds	2
   407   000035                     _CCP1_InterruptHandler:
   408                           	callstack 0
   409   000035                     	ds	2
   410   000037                     _ADC_InterruptHandler:
   411                           	callstack 0
   412   000037                     	ds	2
   413   000039                     _timer2_preload:
   414                           	callstack 0
   415   000039                     	ds	1
   416   00003A                     relay_turn_off@F3020:
   417                           	callstack 0
   418   00003A                     	ds	1
   419   00003B                     relay_turn_on@F3015:
   420                           	callstack 0
   421   00003B                     	ds	1
   422   00003C                     relay_initialize@F3010:
   423                           	callstack 0
   424   00003C                     	ds	1
   425   00003D                     led_turn_toggle@F3031:
   426                           	callstack 0
   427   00003D                     	ds	1
   428   00003E                     led_turn_off@F3026:
   429                           	callstack 0
   430   00003E                     	ds	1
   431   00003F                     led_turn_on@F3021:
   432                           	callstack 0
   433   00003F                     	ds	1
   434   000040                     led_initialize@F3016:
   435                           	callstack 0
   436   000040                     	ds	1
   437   000041                     _SPI_Obj:
   438                           	callstack 0
   439   000041                     	ds	2
   440   000043                     _SPI_Msater_Side_Slave1_RetVal:
   441                           	callstack 0
   442   000043                     	ds	1
   443   000044                     _SPI_SS1:
   444                           	callstack 0
   445   000044                     	ds	1
   446                           
   447                           	psect	dataCOMRAM
   448   000045                     __pdataCOMRAM:
   449                           	callstack 0
   450   000045                     _lat_registers:
   451                           	callstack 0
   452   000045                     	ds	10
   453   00004F                     _tris_registers:
   454                           	callstack 0
   455   00004F                     	ds	10
   456   000059                     MSSP_SPI_Slave_Mode_GPIO_PIN_Configurations@F3073:
   457                           	callstack 0
   458   000059                     	ds	1
   459   00005A                     MSSP_SPI_Slave_Mode_GPIO_PIN_Configurations@F3071:
   460                           	callstack 0
   461   00005A                     	ds	1
   462   00005B                     MSSP_SPI_Slave_Mode_GPIO_PIN_Configurations@F3069:
   463                           	callstack 0
   464   00005B                     	ds	1
   465   00005C                     MSSP_SPI_Slave_Mode_GPIO_PIN_Configurations@F3067:
   466                           	callstack 0
   467   00005C                     	ds	1
   468   00005D                     MSSP_SPI_Msster_Mode_GPIO_PIN_Configurations@F3062:
   469                           	callstack 0
   470   00005D                     	ds	1
   471   00005E                     MSSP_SPI_Msster_Mode_GPIO_PIN_Configurations@F3060:
   472                           	callstack 0
   473   00005E                     	ds	1
   474   00005F                     MSSP_SPI_Msster_Mode_GPIO_PIN_Configurations@F3058:
   475                           	callstack 0
   476   00005F                     	ds	1
   477   000060                     _RB7_Flag:
   478                           	callstack 0
   479   000060                     	ds	1
   480   000061                     _RB6_Flag:
   481                           	callstack 0
   482   000061                     	ds	1
   483   000062                     _RB5_Flag:
   484                           	callstack 0
   485   000062                     	ds	1
   486   000063                     _RB4_Flag:
   487                           	callstack 0
   488   000063                     	ds	1
   489                           
   490                           	psect	bssBANK0
   491   00008A                     __pbssBANK0:
   492                           	callstack 0
   493   00008A                     	ds	6
   494                           
   495                           	psect	dataBANK0
   496   000080                     __pdataBANK0:
   497                           	callstack 0
   498   000080                     _port_registers:
   499                           	callstack 0
   500   000080                     	ds	10
   501                           
   502                           	psect	cstackCOMRAM
   503   000064                     __pcstackCOMRAM:
   504                           	callstack 0
   505   000064                     RB4_ISR@RB4_Source:
   506                           	callstack 0
   507   000064                     RB5_ISR@RB5_Source:
   508                           	callstack 0
   509   000064                     RB6_ISR@RB6_Source:
   510                           	callstack 0
   511   000064                     RB7_ISR@RB7_Source:
   512                           	callstack 0
   513                           
   514                           ; 1 bytes @ 0x0
   515   000064                     	ds	1
   516   000065                     gpio_pin_direction_intialize@_pin_config:
   517                           	callstack 0
   518   000065                     gpio_pin_write_logic@_pin_config:
   519                           	callstack 0
   520   000065                     SPI_Send_Byte@Config:
   521                           	callstack 0
   522   000065                     SPI_Read_Byte@Config:
   523                           	callstack 0
   524   000065                     MSSP_SPI_Interrupt_Init@Config:
   525                           	callstack 0
   526                           
   527                           ; 2 bytes @ 0x1
   528   000065                     	ds	2
   529   000067                     ??_gpio_pin_direction_intialize:
   530   000067                     gpio_pin_write_logic@logic:
   531                           	callstack 0
   532   000067                     SPI_Send_Byte@_data:
   533                           	callstack 0
   534   000067                     SPI_Read_Byte@_data:
   535                           	callstack 0
   536                           
   537                           ; 2 bytes @ 0x3
   538   000067                     	ds	1
   539   000068                     ??_gpio_pin_write_logic:
   540   000068                     
   541                           ; 1 bytes @ 0x4
   542   000068                     	ds	1
   543   000069                     
   544                           ; 1 bytes @ 0x5
   545   000069                     	ds	4
   546   00006D                     gpio_pin_direction_intialize@ret:
   547                           	callstack 0
   548                           
   549                           ; 1 bytes @ 0x9
   550   00006D                     	ds	1
   551   00006E                     gpio_pin_write_logic@ret:
   552                           	callstack 0
   553   00006E                     MSSP_SPI_Msster_Mode_GPIO_PIN_Configurations@Config:
   554                           	callstack 0
   555   00006E                     MSSP_SPI_Slave_Mode_GPIO_PIN_Configurations@Config:
   556                           	callstack 0
   557                           
   558                           ; 2 bytes @ 0xA
   559   00006E                     	ds	1
   560   00006F                     gpio_pin_intialize@_pin_config:
   561                           	callstack 0
   562                           
   563                           ; 2 bytes @ 0xB
   564   00006F                     	ds	1
   565   000070                     MSSP_SPI_Msster_Mode_GPIO_PIN_Configurations@SPI_SDO:
   566                           	callstack 0
   567                           
   568                           ; 1 bytes @ 0xC
   569   000070                     	ds	1
   570   000071                     ??_gpio_pin_intialize:
   571   000071                     MSSP_SPI_Msster_Mode_GPIO_PIN_Configurations@SPI_SDI:
   572                           	callstack 0
   573   000071                     MSSP_SPI_Slave_Mode_GPIO_PIN_Configurations@SPI_SDO:
   574                           	callstack 0
   575                           
   576                           ; 1 bytes @ 0xD
   577   000071                     	ds	1
   578   000072                     gpio_pin_intialize@ret:
   579                           	callstack 0
   580   000072                     MSSP_SPI_Msster_Mode_GPIO_PIN_Configurations@SPI_CLK:
   581                           	callstack 0
   582   000072                     MSSP_SPI_Slave_Mode_GPIO_PIN_Configurations@SPI_SDI:
   583                           	callstack 0
   584                           
   585                           ; 1 bytes @ 0xE
   586   000072                     	ds	1
   587   000073                     MSSP_SPI_Slave_Mode_GPIO_PIN_Configurations@SPI_CLK:
   588                           	callstack 0
   589                           
   590                           ; 1 bytes @ 0xF
   591   000073                     	ds	1
   592   000074                     MSSP_SPI_Slave_Mode_GPIO_PIN_Configurations@SPI_SS:
   593                           	callstack 0
   594                           
   595                           ; 1 bytes @ 0x10
   596   000074                     	ds	1
   597   000075                     SPI_Init@Config:
   598                           	callstack 0
   599                           
   600                           ; 2 bytes @ 0x11
   601   000075                     	ds	2
   602   000077                     ??_SPI_Init:
   603                           
   604                           ; 1 bytes @ 0x13
   605   000077                     	ds	1
   606   000078                     ??_main:
   607                           
   608                           ; 1 bytes @ 0x14
   609   000078                     	ds	2
   610                           
   611 ;;
   612 ;;Main: autosize = 0, tempsize = 2, incstack = 0, save=0
   613 ;;
   614 ;; *************** function _main *****************
   615 ;; Defined at:
   616 ;;		line 15 in file "application.c"
   617 ;; Parameters:    Size  Location     Type
   618 ;;		None
   619 ;; Auto vars:     Size  Location     Type
   620 ;;  ret             1    0        unsigned char 
   621 ;; Return value:  Size  Location     Type
   622 ;;                  2  1718[None  ] int 
   623 ;; Registers used:
   624 ;;		wreg, fsr2l, fsr2h, status,2, status,0, prodl, prodh, cstack
   625 ;; Tracked objects:
   626 ;;		On entry : 0/0
   627 ;;		On exit  : 0/0
   628 ;;		Unchanged: 0/0
   629 ;; Data sizes:     COMRAM   BANK0   BANK1   BANK2   BANK3   BANK4   BANK5   BANK6   BANK7   BANK8   BANK9  BANK10  BANK1
      +1  BANK12  BANK13  BANK14  BANK15
   630 ;;      Params:         0       0       0       0       0       0       0       0       0       0       0       0       
      +0       0       0       0       0
   631 ;;      Locals:         0       0       0       0       0       0       0       0       0       0       0       0       
      +0       0       0       0       0
   632 ;;      Temps:          2       0       0       0       0       0       0       0       0       0       0       0       
      +0       0       0       0       0
   633 ;;      Totals:         2       0       0       0       0       0       0       0       0       0       0       0       
      +0       0       0       0       0
   634 ;;Total ram usage:        2 bytes
   635 ;; Hardware stack levels required when called: 5
   636 ;; This function calls:
   637 ;;		_SPI_Init
   638 ;;		_SPI_Read_Byte
   639 ;;		_SPI_Send_Byte
   640 ;;		_application_intialize
   641 ;;		_gpio_pin_intialize
   642 ;;		_gpio_pin_write_logic
   643 ;; This function is called by:
   644 ;;		Startup code after reset
   645 ;; This function uses a non-reentrant model
   646 ;;
   647                           
   648                           	psect	text0
   649   0017E2                     __ptext0:
   650                           	callstack 0
   651   0017E2                     _main:
   652                           	callstack 26
   653   0017E2                     
   654                           ;application.c: 18:     application_intialize();
   655   0017E2  ECA5  F00D         	call	_application_intialize	;wreg free
   656   0017E6                     
   657                           ;application.c: 20:     SPI_Obj.spi_mode = 0;
   658   0017E6  0E00               	movlw	0
   659   0017E8  6E41               	movwf	_SPI_Obj^0,c
   660   0017EA                     
   661                           ;application.c: 21:     SPI_Obj.spi_config.SampleSelect = 0;
   662   0017EA  0EF3               	movlw	-13
   663   0017EC  1642               	andwf	(_SPI_Obj+1)^0,f,c
   664   0017EE                     
   665                           ;application.c: 22:     SPI_Obj.spi_config.ClockPolarity = 0;
   666   0017EE  0EFC               	movlw	-4
   667   0017F0  1642               	andwf	(_SPI_Obj+1)^0,f,c
   668   0017F2                     
   669                           ;application.c: 23:     SPI_Obj.spi_config.ClockSelect = 0;
   670   0017F2  0ECF               	movlw	-49
   671   0017F4  1642               	andwf	(_SPI_Obj+1)^0,f,c
   672   0017F6  0E41               	movlw	low _SPI_Obj
   673   0017F8  6E75               	movwf	SPI_Init@Config^0,c
   674   0017FA  0E00               	movlw	high _SPI_Obj
   675   0017FC  6E76               	movwf	(SPI_Init@Config+1)^0,c
   676   0017FE  EC0E  F00A         	call	_SPI_Init	;wreg free
   677   001802                     
   678                           ;application.c: 26:     SPI_SS1.port = PORTD_INDEX;
   679   001802  5044               	movf	_SPI_SS1^0,w,c
   680   001804  0BF8               	andlw	-8
   681   001806  0903               	iorlw	3
   682   001808  6E44               	movwf	_SPI_SS1^0,c
   683   00180A                     
   684                           ;application.c: 27:     SPI_SS1.pin = GPIO_PIN0;
   685   00180A  0EC7               	movlw	-57
   686   00180C  1644               	andwf	_SPI_SS1^0,f,c
   687   00180E                     
   688                           ;application.c: 28:     SPI_SS1.direction = GPIO_DIRECTION_OUTPUT;
   689   00180E  9C44               	bcf	_SPI_SS1^0,6,c
   690   001810                     
   691                           ;application.c: 29:     SPI_SS1.logic = GPIO_HIGH;
   692   001810  8E44               	bsf	_SPI_SS1^0,7,c
   693   001812  0E44               	movlw	low _SPI_SS1
   694   001814  6E6F               	movwf	gpio_pin_intialize@_pin_config^0,c
   695   001816  0E00               	movlw	high _SPI_SS1
   696   001818  6E70               	movwf	(gpio_pin_intialize@_pin_config+1)^0,c
   697   00181A  EC5D  F00C         	call	_gpio_pin_intialize	;wreg free
   698   00181E                     l6192:
   699   00181E  0E44               	movlw	low _SPI_SS1
   700   001820  6E65               	movwf	gpio_pin_write_logic@_pin_config^0,c
   701   001822  0E00               	movlw	high _SPI_SS1
   702   001824  6E66               	movwf	(gpio_pin_write_logic@_pin_config+1)^0,c
   703   001826  0E00               	movlw	0
   704   001828  6E67               	movwf	gpio_pin_write_logic@logic^0,c
   705   00182A  EC5B  F00B         	call	_gpio_pin_write_logic	;wreg free
   706   00182E  0E41               	movlw	low _SPI_Obj
   707   001830  6E65               	movwf	SPI_Send_Byte@Config^0,c
   708   001832  0E00               	movlw	high _SPI_Obj
   709   001834  6E66               	movwf	(SPI_Send_Byte@Config+1)^0,c
   710   001836  0E61               	movlw	97
   711   001838  6E67               	movwf	SPI_Send_Byte@_data^0,c
   712   00183A  EC2F  F00D         	call	_SPI_Send_Byte	;wreg free
   713   00183E  0E41               	movlw	low _SPI_Obj
   714   001840  6E65               	movwf	SPI_Read_Byte@Config^0,c
   715   001842  0E00               	movlw	high _SPI_Obj
   716   001844  6E66               	movwf	(SPI_Read_Byte@Config+1)^0,c
   717   001846  0E43               	movlw	low _SPI_Msater_Side_Slave1_RetVal
   718   001848  6E67               	movwf	SPI_Read_Byte@_data^0,c
   719   00184A  0E00               	movlw	high _SPI_Msater_Side_Slave1_RetVal
   720   00184C  6E68               	movwf	(SPI_Read_Byte@_data+1)^0,c
   721   00184E  ECF3  F00C         	call	_SPI_Read_Byte	;wreg free
   722   001852                     
   723                           ;application.c: 36:         _delay((unsigned long)((250)*(4000000UL/4000.0)));
   724   001852  0E02               	movlw	2
   725   001854  6E79               	movwf	(??_main+1)^0,c
   726   001856  0E45               	movlw	69
   727   001858  6E78               	movwf	??_main^0,c
   728   00185A  0EAA               	movlw	170
   729   00185C                     u4547:
   730   00185C  2EE8               	decfsz	wreg,f,c
   731   00185E  D7FE               	bra	u4547
   732   001860  2E78               	decfsz	??_main^0,f,c
   733   001862  D7FC               	bra	u4547
   734   001864  2E79               	decfsz	(??_main+1)^0,f,c
   735   001866  D7FA               	bra	u4547
   736   001868  0E41               	movlw	low _SPI_Obj
   737   00186A  6E65               	movwf	SPI_Send_Byte@Config^0,c
   738   00186C  0E00               	movlw	high _SPI_Obj
   739   00186E  6E66               	movwf	(SPI_Send_Byte@Config+1)^0,c
   740   001870  0E62               	movlw	98
   741   001872  6E67               	movwf	SPI_Send_Byte@_data^0,c
   742   001874  EC2F  F00D         	call	_SPI_Send_Byte	;wreg free
   743   001878  0E41               	movlw	low _SPI_Obj
   744   00187A  6E65               	movwf	SPI_Read_Byte@Config^0,c
   745   00187C  0E00               	movlw	high _SPI_Obj
   746   00187E  6E66               	movwf	(SPI_Read_Byte@Config+1)^0,c
   747   001880  0E43               	movlw	low _SPI_Msater_Side_Slave1_RetVal
   748   001882  6E67               	movwf	SPI_Read_Byte@_data^0,c
   749   001884  0E00               	movlw	high _SPI_Msater_Side_Slave1_RetVal
   750   001886  6E68               	movwf	(SPI_Read_Byte@_data+1)^0,c
   751   001888  ECF3  F00C         	call	_SPI_Read_Byte	;wreg free
   752   00188C                     
   753                           ;application.c: 39:         _delay((unsigned long)((250)*(4000000UL/4000.0)));
   754   00188C  0E02               	movlw	2
   755   00188E  6E79               	movwf	(??_main+1)^0,c
   756   001890  0E45               	movlw	69
   757   001892  6E78               	movwf	??_main^0,c
   758   001894  0EAA               	movlw	170
   759   001896                     u4557:
   760   001896  2EE8               	decfsz	wreg,f,c
   761   001898  D7FE               	bra	u4557
   762   00189A  2E78               	decfsz	??_main^0,f,c
   763   00189C  D7FC               	bra	u4557
   764   00189E  2E79               	decfsz	(??_main+1)^0,f,c
   765   0018A0  D7FA               	bra	u4557
   766   0018A2  0E44               	movlw	low _SPI_SS1
   767   0018A4  6E65               	movwf	gpio_pin_write_logic@_pin_config^0,c
   768   0018A6  0E00               	movlw	high _SPI_SS1
   769   0018A8  6E66               	movwf	(gpio_pin_write_logic@_pin_config+1)^0,c
   770   0018AA  0E01               	movlw	1
   771   0018AC  6E67               	movwf	gpio_pin_write_logic@logic^0,c
   772   0018AE  EC5B  F00B         	call	_gpio_pin_write_logic	;wreg free
   773   0018B2  EF0F  F00C         	goto	l6192
   774   0018B6  EF07  F000         	goto	start
   775   0018BA                     __end_of_main:
   776                           	callstack 0
   777                           
   778 ;; *************** function _gpio_pin_intialize *****************
   779 ;; Defined at:
   780 ;;		line 144 in file "MCAL_Layer/GPIO/hal_gpio.c"
   781 ;; Parameters:    Size  Location     Type
   782 ;;  _pin_config     2   11[COMRAM] PTR const struct .
   783 ;;		 -> SPI_SS1(1), relay_initialize@pin_obj(1), led_initialize@pin_obj(1), 
   784 ;; Auto vars:     Size  Location     Type
   785 ;;  ret             1   14[COMRAM] unsigned char 
   786 ;; Return value:  Size  Location     Type
   787 ;;                  1    wreg      unsigned char 
   788 ;; Registers used:
   789 ;;		wreg, fsr2l, fsr2h, status,2, status,0, prodl, prodh, cstack
   790 ;; Tracked objects:
   791 ;;		On entry : 0/0
   792 ;;		On exit  : 0/0
   793 ;;		Unchanged: 0/0
   794 ;; Data sizes:     COMRAM   BANK0   BANK1   BANK2   BANK3   BANK4   BANK5   BANK6   BANK7   BANK8   BANK9  BANK10  BANK1
      +1  BANK12  BANK13  BANK14  BANK15
   795 ;;      Params:         2       0       0       0       0       0       0       0       0       0       0       0       
      +0       0       0       0       0
   796 ;;      Locals:         1       0       0       0       0       0       0       0       0       0       0       0       
      +0       0       0       0       0
   797 ;;      Temps:          1       0       0       0       0       0       0       0       0       0       0       0       
      +0       0       0       0       0
   798 ;;      Totals:         4       0       0       0       0       0       0       0       0       0       0       0       
      +0       0       0       0       0
   799 ;;Total ram usage:        4 bytes
   800 ;; Hardware stack levels used: 1
   801 ;; Hardware stack levels required when called: 3
   802 ;; This function calls:
   803 ;;		_gpio_pin_direction_intialize
   804 ;;		_gpio_pin_write_logic
   805 ;; This function is called by:
   806 ;;		_main
   807 ;;		_seven_segement_intialize
   808 ;;		_lcd_4bit_intialize
   809 ;;		_lcd_8bit_intialize
   810 ;;		_dc_motor_initialize
   811 ;;		_keypad_initialize
   812 ;;		_led_initialize
   813 ;;		_relay_initialize
   814 ;;		_Ultrasonic_Init
   815 ;;		_CCP_Init
   816 ;; This function uses a non-reentrant model
   817 ;;
   818                           
   819                           	psect	text1
   820   0018BA                     __ptext1:
   821                           	callstack 0
   822   0018BA                     _gpio_pin_intialize:
   823                           	callstack 27
   824   0018BA                     
   825                           ;MCAL_Layer/GPIO/hal_gpio.c: 146:     if(((void*)0) == _pin_config || _pin_config->pin >
      +                           8 -1){
   826   0018BA  506F               	movf	gpio_pin_intialize@_pin_config^0,w,c
   827   0018BC  1070               	iorwf	(gpio_pin_intialize@_pin_config+1)^0,w,c
   828   0018BE  B4D8               	btfsc	status,2,c
   829   0018C0  EF64  F00C         	goto	u3551
   830   0018C4  EF66  F00C         	goto	u3550
   831   0018C8                     u3551:
   832   0018C8  EF77  F00C         	goto	l5282
   833   0018CC                     u3550:
   834   0018CC  C06F  FFD9         	movff	gpio_pin_intialize@_pin_config,fsr2l
   835   0018D0  C070  FFDA         	movff	gpio_pin_intialize@_pin_config+1,fsr2h
   836   0018D4  30DF               	rrcf	223,w,c
   837   0018D6  32E8               	rrcf	wreg,f,c
   838   0018D8  32E8               	rrcf	wreg,f,c
   839   0018DA  0B07               	andlw	7
   840   0018DC  6E71               	movwf	??_gpio_pin_intialize^0,c
   841   0018DE  0E07               	movlw	7
   842   0018E0  6471               	cpfsgt	??_gpio_pin_intialize^0,c
   843   0018E2  EF75  F00C         	goto	u3561
   844   0018E6  EF77  F00C         	goto	u3560
   845   0018EA                     u3561:
   846   0018EA  EF7B  F00C         	goto	l5284
   847   0018EE                     u3560:
   848   0018EE                     l5282:
   849                           
   850                           ;MCAL_Layer/GPIO/hal_gpio.c: 147:         ret = (Std_ReturnType)0x00;
   851   0018EE  0E00               	movlw	0
   852   0018F0  6E72               	movwf	gpio_pin_intialize@ret^0,c
   853                           
   854                           ;MCAL_Layer/GPIO/hal_gpio.c: 148:     }
   855   0018F2  EF91  F00C         	goto	l5286
   856   0018F6                     l5284:
   857                           
   858                           ;MCAL_Layer/GPIO/hal_gpio.c: 150:         ret = gpio_pin_direction_intialize(_pin_config
      +                          );
   859   0018F6  C06F  F065         	movff	gpio_pin_intialize@_pin_config,gpio_pin_direction_intialize@_pin_config
   860   0018FA  C070  F066         	movff	gpio_pin_intialize@_pin_config+1,gpio_pin_direction_intialize@_pin_config+1
   861   0018FE  ECB9  F00A         	call	_gpio_pin_direction_intialize	;wreg free
   862   001902  6E72               	movwf	gpio_pin_intialize@ret^0,c
   863                           
   864                           ;MCAL_Layer/GPIO/hal_gpio.c: 151:         ret = gpio_pin_write_logic(_pin_config, _pin_c
      +                          onfig->logic);
   865   001904  C06F  F065         	movff	gpio_pin_intialize@_pin_config,gpio_pin_write_logic@_pin_config
   866   001908  C070  F066         	movff	gpio_pin_intialize@_pin_config+1,gpio_pin_write_logic@_pin_config+1
   867   00190C  C06F  FFD9         	movff	gpio_pin_intialize@_pin_config,fsr2l
   868   001910  C070  FFDA         	movff	gpio_pin_intialize@_pin_config+1,fsr2h
   869   001914  0E00               	movlw	0
   870   001916  BEDF               	btfsc	indf2,7,c
   871   001918  0E01               	movlw	1
   872   00191A  6E67               	movwf	gpio_pin_write_logic@logic^0,c
   873   00191C  EC5B  F00B         	call	_gpio_pin_write_logic	;wreg free
   874   001920  6E72               	movwf	gpio_pin_intialize@ret^0,c
   875   001922                     l5286:
   876                           
   877                           ;MCAL_Layer/GPIO/hal_gpio.c: 153:     return ret;
   878   001922  5072               	movf	gpio_pin_intialize@ret^0,w,c
   879   001924  0012               	return		;funcret
   880   001926                     __end_of_gpio_pin_intialize:
   881                           	callstack 0
   882                           
   883 ;; *************** function _gpio_pin_write_logic *****************
   884 ;; Defined at:
   885 ;;		line 75 in file "MCAL_Layer/GPIO/hal_gpio.c"
   886 ;; Parameters:    Size  Location     Type
   887 ;;  _pin_config     2    1[COMRAM] PTR const struct .
   888 ;;		 -> SPI_SS1(1), relay_turn_off@pin_obj(1), relay_turn_on@pin_obj(1), relay_initialize@pin_obj(1), 
   889 ;;		 -> led_turn_off@pin_obj(1), led_turn_on@pin_obj(1), led_initialize@pin_obj(1), 
   890 ;;  logic           1    3[COMRAM] enum E2936
   891 ;; Auto vars:     Size  Location     Type
   892 ;;  ret             1   10[COMRAM] unsigned char 
   893 ;; Return value:  Size  Location     Type
   894 ;;                  1    wreg      unsigned char 
   895 ;; Registers used:
   896 ;;		wreg, fsr2l, fsr2h, status,2, status,0, prodl, prodh
   897 ;; Tracked objects:
   898 ;;		On entry : 0/0
   899 ;;		On exit  : 0/0
   900 ;;		Unchanged: 0/0
   901 ;; Data sizes:     COMRAM   BANK0   BANK1   BANK2   BANK3   BANK4   BANK5   BANK6   BANK7   BANK8   BANK9  BANK10  BANK1
      +1  BANK12  BANK13  BANK14  BANK15
   902 ;;      Params:         3       0       0       0       0       0       0       0       0       0       0       0       
      +0       0       0       0       0
   903 ;;      Locals:         1       0       0       0       0       0       0       0       0       0       0       0       
      +0       0       0       0       0
   904 ;;      Temps:          6       0       0       0       0       0       0       0       0       0       0       0       
      +0       0       0       0       0
   905 ;;      Totals:        10       0       0       0       0       0       0       0       0       0       0       0       
      +0       0       0       0       0
   906 ;;Total ram usage:       10 bytes
   907 ;; Hardware stack levels used: 1
   908 ;; Hardware stack levels required when called: 2
   909 ;; This function calls:
   910 ;;		Nothing
   911 ;; This function is called by:
   912 ;;		_gpio_pin_intialize
   913 ;;		_main
   914 ;;		_seven_segement_write_number
   915 ;;		_lcd_4bit_send_command
   916 ;;		_lcd_4bit_send_char_data
   917 ;;		_lcd_8bit_send_command
   918 ;;		_lcd_8bit_send_char_data
   919 ;;		_lcd_send_4bits
   920 ;;		_lcd_4bit_send_enable_signal
   921 ;;		_lcd_8bit_send_enable_signal
   922 ;;		_dc_motor_move_right
   923 ;;		_dc_motor_move_left
   924 ;;		_dc_motor_stop
   925 ;;		_keypad_get_value
   926 ;;		_led_turn_on
   927 ;;		_led_turn_off
   928 ;;		_relay_turn_on
   929 ;;		_relay_turn_off
   930 ;;		_Ultrasonic_Calculate_Distance
   931 ;; This function uses a non-reentrant model
   932 ;;
   933                           
   934                           	psect	text2
   935   0016B6                     __ptext2:
   936                           	callstack 0
   937   0016B6                     _gpio_pin_write_logic:
   938                           	callstack 28
   939   0016B6                     
   940                           ;MCAL_Layer/GPIO/hal_gpio.c: 76:     Std_ReturnType ret = (Std_ReturnType)0x01;
   941   0016B6  0E01               	movlw	1
   942   0016B8  6E6E               	movwf	gpio_pin_write_logic@ret^0,c
   943   0016BA                     
   944                           ;MCAL_Layer/GPIO/hal_gpio.c: 77:     if(((void*)0) == _pin_config || _pin_config->pin > 
      +                          8 -1){
   945   0016BA  5065               	movf	gpio_pin_write_logic@_pin_config^0,w,c
   946   0016BC  1066               	iorwf	(gpio_pin_write_logic@_pin_config+1)^0,w,c
   947   0016BE  B4D8               	btfsc	status,2,c
   948   0016C0  EF64  F00B         	goto	u3461
   949   0016C4  EF66  F00B         	goto	u3460
   950   0016C8                     u3461:
   951   0016C8  EF77  F00B         	goto	l5154
   952   0016CC                     u3460:
   953   0016CC  C065  FFD9         	movff	gpio_pin_write_logic@_pin_config,fsr2l
   954   0016D0  C066  FFDA         	movff	gpio_pin_write_logic@_pin_config+1,fsr2h
   955   0016D4  30DF               	rrcf	223,w,c
   956   0016D6  32E8               	rrcf	wreg,f,c
   957   0016D8  32E8               	rrcf	wreg,f,c
   958   0016DA  0B07               	andlw	7
   959   0016DC  6E68               	movwf	??_gpio_pin_write_logic^0,c
   960   0016DE  0E07               	movlw	7
   961   0016E0  6468               	cpfsgt	??_gpio_pin_write_logic^0,c
   962   0016E2  EF75  F00B         	goto	u3471
   963   0016E6  EF77  F00B         	goto	u3470
   964   0016EA                     u3471:
   965   0016EA  EFDA  F00B         	goto	l5162
   966   0016EE                     u3470:
   967   0016EE                     l5154:
   968                           
   969                           ;MCAL_Layer/GPIO/hal_gpio.c: 78:         ret = (Std_ReturnType)0x00;
   970   0016EE  0E00               	movlw	0
   971   0016F0  6E6E               	movwf	gpio_pin_write_logic@ret^0,c
   972                           
   973                           ;MCAL_Layer/GPIO/hal_gpio.c: 79:     }
   974   0016F2  EFEF  F00B         	goto	l5164
   975   0016F6                     l5156:
   976                           
   977                           ;MCAL_Layer/GPIO/hal_gpio.c: 83:                 (*lat_registers[_pin_config->port] &= ~
      +                          ((uint8)1 << _pin_config->pin));
   978   0016F6  C065  FFD9         	movff	gpio_pin_write_logic@_pin_config,fsr2l
   979   0016FA  C066  FFDA         	movff	gpio_pin_write_logic@_pin_config+1,fsr2h
   980   0016FE  30DF               	rrcf	223,w,c
   981   001700  32E8               	rrcf	wreg,f,c
   982   001702  32E8               	rrcf	wreg,f,c
   983   001704  0B07               	andlw	7
   984   001706  6E68               	movwf	??_gpio_pin_write_logic^0,c
   985   001708  0E01               	movlw	1
   986   00170A  6E69               	movwf	(??_gpio_pin_write_logic+1)^0,c
   987   00170C  2A68               	incf	??_gpio_pin_write_logic^0,f,c
   988   00170E  EF8B  F00B         	goto	u3484
   989   001712                     u3485:
   990   001712  90D8               	bcf	status,0,c
   991   001714  3669               	rlcf	(??_gpio_pin_write_logic+1)^0,f,c
   992   001716                     u3484:
   993   001716  2E68               	decfsz	??_gpio_pin_write_logic^0,f,c
   994   001718  EF89  F00B         	goto	u3485
   995   00171C  5069               	movf	(??_gpio_pin_write_logic+1)^0,w,c
   996   00171E  0AFF               	xorlw	255
   997   001720  6E6A               	movwf	(??_gpio_pin_write_logic+2)^0,c
   998   001722  C065  FFD9         	movff	gpio_pin_write_logic@_pin_config,fsr2l
   999   001726  C066  FFDA         	movff	gpio_pin_write_logic@_pin_config+1,fsr2h
  1000   00172A  50DF               	movf	223,w,c
  1001   00172C  0B07               	andlw	7
  1002   00172E  6E6B               	movwf	(??_gpio_pin_write_logic+3)^0,c
  1003   001730  506B               	movf	(??_gpio_pin_write_logic+3)^0,w,c
  1004   001732  0D02               	mullw	2
  1005   001734  0E45               	movlw	low _lat_registers
  1006   001736  24F3               	addwf	243,w,c
  1007   001738  6ED9               	movwf	fsr2l,c
  1008   00173A  0E00               	movlw	high _lat_registers
  1009   00173C  20F4               	addwfc	prodh,w,c
  1010   00173E  6EDA               	movwf	fsr2h,c
  1011   001740  CFDE F06C          	movff	postinc2,??_gpio_pin_write_logic+4
  1012   001744  CFDD F06D          	movff	postdec2,??_gpio_pin_write_logic+5
  1013   001748  C06C  FFD9         	movff	??_gpio_pin_write_logic+4,fsr2l
  1014   00174C  C06D  FFDA         	movff	??_gpio_pin_write_logic+5,fsr2h
  1015   001750  506A               	movf	(??_gpio_pin_write_logic+2)^0,w,c
  1016   001752  16DF               	andwf	indf2,f,c
  1017                           
  1018                           ;MCAL_Layer/GPIO/hal_gpio.c: 84:                 break;
  1019   001754  EFEF  F00B         	goto	l5164
  1020   001758                     l5158:
  1021                           
  1022                           ;MCAL_Layer/GPIO/hal_gpio.c: 86:                 (*lat_registers[_pin_config->port] |= (
      +                          (uint8)1 << _pin_config->pin));
  1023   001758  C065  FFD9         	movff	gpio_pin_write_logic@_pin_config,fsr2l
  1024   00175C  C066  FFDA         	movff	gpio_pin_write_logic@_pin_config+1,fsr2h
  1025   001760  30DF               	rrcf	223,w,c
  1026   001762  32E8               	rrcf	wreg,f,c
  1027   001764  32E8               	rrcf	wreg,f,c
  1028   001766  0B07               	andlw	7
  1029   001768  6E68               	movwf	??_gpio_pin_write_logic^0,c
  1030   00176A  0E01               	movlw	1
  1031   00176C  6E69               	movwf	(??_gpio_pin_write_logic+1)^0,c
  1032   00176E  2A68               	incf	??_gpio_pin_write_logic^0,f,c
  1033   001770  EFBC  F00B         	goto	u3494
  1034   001774                     u3495:
  1035   001774  90D8               	bcf	status,0,c
  1036   001776  3669               	rlcf	(??_gpio_pin_write_logic+1)^0,f,c
  1037   001778                     u3494:
  1038   001778  2E68               	decfsz	??_gpio_pin_write_logic^0,f,c
  1039   00177A  EFBA  F00B         	goto	u3495
  1040   00177E  C065  FFD9         	movff	gpio_pin_write_logic@_pin_config,fsr2l
  1041   001782  C066  FFDA         	movff	gpio_pin_write_logic@_pin_config+1,fsr2h
  1042   001786  50DF               	movf	223,w,c
  1043   001788  0B07               	andlw	7
  1044   00178A  6E6A               	movwf	(??_gpio_pin_write_logic+2)^0,c
  1045   00178C  506A               	movf	(??_gpio_pin_write_logic+2)^0,w,c
  1046   00178E  0D02               	mullw	2
  1047   001790  0E45               	movlw	low _lat_registers
  1048   001792  24F3               	addwf	243,w,c
  1049   001794  6ED9               	movwf	fsr2l,c
  1050   001796  0E00               	movlw	high _lat_registers
  1051   001798  20F4               	addwfc	prodh,w,c
  1052   00179A  6EDA               	movwf	fsr2h,c
  1053   00179C  CFDE F06B          	movff	postinc2,??_gpio_pin_write_logic+3
  1054   0017A0  CFDD F06C          	movff	postdec2,??_gpio_pin_write_logic+4
  1055   0017A4  C06B  FFD9         	movff	??_gpio_pin_write_logic+3,fsr2l
  1056   0017A8  C06C  FFDA         	movff	??_gpio_pin_write_logic+4,fsr2h
  1057   0017AC  5069               	movf	(??_gpio_pin_write_logic+1)^0,w,c
  1058   0017AE  12DF               	iorwf	indf2,f,c
  1059                           
  1060                           ;MCAL_Layer/GPIO/hal_gpio.c: 87:                 break;
  1061   0017B0  EFEF  F00B         	goto	l5164
  1062   0017B4                     l5162:
  1063   0017B4  5067               	movf	gpio_pin_write_logic@logic^0,w,c
  1064   0017B6  6E68               	movwf	??_gpio_pin_write_logic^0,c
  1065   0017B8  6A69               	clrf	(??_gpio_pin_write_logic+1)^0,c
  1066                           
  1067                           ; Switch on 2 bytes has been partitioned into a top level switch of size 1, and 1 sub-sw
      +                          itches
  1068                           ; Switch size 1, requested type "simple"
  1069                           ; Number of cases is 1, Range of values is 0 to 0
  1070                           ; switch strategies available:
  1071                           ; Name         Instructions Cycles
  1072                           ; simple_byte            4     3 (average)
  1073                           ;	Chosen strategy is simple_byte
  1074   0017BA  5069               	movf	(??_gpio_pin_write_logic+1)^0,w,c
  1075   0017BC  0A00               	xorlw	0	; case 0
  1076   0017BE  B4D8               	btfsc	status,2,c
  1077   0017C0  EFE4  F00B         	goto	l6216
  1078   0017C4  EF77  F00B         	goto	l5154
  1079   0017C8                     l6216:
  1080                           
  1081                           ; Switch size 1, requested type "simple"
  1082                           ; Number of cases is 2, Range of values is 0 to 1
  1083                           ; switch strategies available:
  1084                           ; Name         Instructions Cycles
  1085                           ; simple_byte            7     4 (average)
  1086                           ;	Chosen strategy is simple_byte
  1087   0017C8  5068               	movf	??_gpio_pin_write_logic^0,w,c
  1088   0017CA  0A00               	xorlw	0	; case 0
  1089   0017CC  B4D8               	btfsc	status,2,c
  1090   0017CE  EF7B  F00B         	goto	l5156
  1091   0017D2  0A01               	xorlw	1	; case 1
  1092   0017D4  B4D8               	btfsc	status,2,c
  1093   0017D6  EFAC  F00B         	goto	l5158
  1094   0017DA  EF77  F00B         	goto	l5154
  1095   0017DE                     l5164:
  1096                           
  1097                           ;MCAL_Layer/GPIO/hal_gpio.c: 91:     return ret;
  1098   0017DE  506E               	movf	gpio_pin_write_logic@ret^0,w,c
  1099   0017E0  0012               	return		;funcret
  1100   0017E2                     __end_of_gpio_pin_write_logic:
  1101                           	callstack 0
  1102                           
  1103 ;; *************** function _application_intialize *****************
  1104 ;; Defined at:
  1105 ;;		line 45 in file "application.c"
  1106 ;; Parameters:    Size  Location     Type
  1107 ;;		None
  1108 ;; Auto vars:     Size  Location     Type
  1109 ;;  ret             1    0        unsigned char 
  1110 ;; Return value:  Size  Location     Type
  1111 ;;                  1    wreg      void 
  1112 ;; Registers used:
  1113 ;;		wreg, status,2, cstack
  1114 ;; Tracked objects:
  1115 ;;		On entry : 0/0
  1116 ;;		On exit  : 0/0
  1117 ;;		Unchanged: 0/0
  1118 ;; Data sizes:     COMRAM   BANK0   BANK1   BANK2   BANK3   BANK4   BANK5   BANK6   BANK7   BANK8   BANK9  BANK10  BANK1
      +1  BANK12  BANK13  BANK14  BANK15
  1119 ;;      Params:         0       0       0       0       0       0       0       0       0       0       0       0       
      +0       0       0       0       0
  1120 ;;      Locals:         0       0       0       0       0       0       0       0       0       0       0       0       
      +0       0       0       0       0
  1121 ;;      Temps:          0       0       0       0       0       0       0       0       0       0       0       0       
      +0       0       0       0       0
  1122 ;;      Totals:         0       0       0       0       0       0       0       0       0       0       0       0       
      +0       0       0       0       0
  1123 ;;Total ram usage:        0 bytes
  1124 ;; Hardware stack levels used: 1
  1125 ;; Hardware stack levels required when called: 3
  1126 ;; This function calls:
  1127 ;;		_ecu_layer_intialize
  1128 ;; This function is called by:
  1129 ;;		_main
  1130 ;; This function uses a non-reentrant model
  1131 ;;
  1132                           
  1133                           	psect	text3
  1134   001B4A                     __ptext3:
  1135                           	callstack 0
  1136   001B4A                     _application_intialize:
  1137                           	callstack 27
  1138   001B4A                     
  1139                           ;application.c: 47:     ecu_layer_intialize();
  1140   001B4A  ECBA  F00D         	call	_ecu_layer_intialize	;wreg free
  1141   001B4E  0012               	return		;funcret
  1142   001B50                     __end_of_application_intialize:
  1143                           	callstack 0
  1144                           
  1145 ;; *************** function _ecu_layer_intialize *****************
  1146 ;; Defined at:
  1147 ;;		line 10 in file "ECU_Layer/ecu_layer_init.c"
  1148 ;; Parameters:    Size  Location     Type
  1149 ;;		None
  1150 ;; Auto vars:     Size  Location     Type
  1151 ;;  ret             1    0        unsigned char 
  1152 ;; Return value:  Size  Location     Type
  1153 ;;                  1    wreg      void 
  1154 ;; Registers used:
  1155 ;;		wreg, status,2
  1156 ;; Tracked objects:
  1157 ;;		On entry : 0/0
  1158 ;;		On exit  : 0/0
  1159 ;;		Unchanged: 0/0
  1160 ;; Data sizes:     COMRAM   BANK0   BANK1   BANK2   BANK3   BANK4   BANK5   BANK6   BANK7   BANK8   BANK9  BANK10  BANK1
      +1  BANK12  BANK13  BANK14  BANK15
  1161 ;;      Params:         0       0       0       0       0       0       0       0       0       0       0       0       
      +0       0       0       0       0
  1162 ;;      Locals:         0       0       0       0       0       0       0       0       0       0       0       0       
      +0       0       0       0       0
  1163 ;;      Temps:          0       0       0       0       0       0       0       0       0       0       0       0       
      +0       0       0       0       0
  1164 ;;      Totals:         0       0       0       0       0       0       0       0       0       0       0       0       
      +0       0       0       0       0
  1165 ;;Total ram usage:        0 bytes
  1166 ;; Hardware stack levels used: 1
  1167 ;; Hardware stack levels required when called: 2
  1168 ;; This function calls:
  1169 ;;		Nothing
  1170 ;; This function is called by:
  1171 ;;		_application_intialize
  1172 ;; This function uses a non-reentrant model
  1173 ;;
  1174                           
  1175                           	psect	text4
  1176   001B74                     __ptext4:
  1177                           	callstack 0
  1178   001B74                     _ecu_layer_intialize:
  1179                           	callstack 27
  1180   001B74  0012               	return		;funcret
  1181   001B76                     __end_of_ecu_layer_intialize:
  1182                           	callstack 0
  1183                           
  1184 ;; *************** function _SPI_Send_Byte *****************
  1185 ;; Defined at:
  1186 ;;		line 68 in file "MCAL_Layer/SPI/hal_spi.c"
  1187 ;; Parameters:    Size  Location     Type
  1188 ;;  Config          2    1[COMRAM] PTR const struct .
  1189 ;;		 -> SPI_Obj(2), 
  1190 ;;  _data           1    3[COMRAM] const unsigned char 
  1191 ;; Auto vars:     Size  Location     Type
  1192 ;;  ret             1    0        unsigned char 
  1193 ;; Return value:  Size  Location     Type
  1194 ;;                  1    wreg      unsigned char 
  1195 ;; Registers used:
  1196 ;;		wreg, status,2, status,0
  1197 ;; Tracked objects:
  1198 ;;		On entry : 0/0
  1199 ;;		On exit  : 0/0
  1200 ;;		Unchanged: 0/0
  1201 ;; Data sizes:     COMRAM   BANK0   BANK1   BANK2   BANK3   BANK4   BANK5   BANK6   BANK7   BANK8   BANK9  BANK10  BANK1
      +1  BANK12  BANK13  BANK14  BANK15
  1202 ;;      Params:         3       0       0       0       0       0       0       0       0       0       0       0       
      +0       0       0       0       0
  1203 ;;      Locals:         0       0       0       0       0       0       0       0       0       0       0       0       
      +0       0       0       0       0
  1204 ;;      Temps:          0       0       0       0       0       0       0       0       0       0       0       0       
      +0       0       0       0       0
  1205 ;;      Totals:         3       0       0       0       0       0       0       0       0       0       0       0       
      +0       0       0       0       0
  1206 ;;Total ram usage:        3 bytes
  1207 ;; Hardware stack levels used: 1
  1208 ;; Hardware stack levels required when called: 2
  1209 ;; This function calls:
  1210 ;;		Nothing
  1211 ;; This function is called by:
  1212 ;;		_main
  1213 ;; This function uses a non-reentrant model
  1214 ;;
  1215                           
  1216                           	psect	text5
  1217   001A5E                     __ptext5:
  1218                           	callstack 0
  1219   001A5E                     _SPI_Send_Byte:
  1220                           	callstack 28
  1221   001A5E                     
  1222                           ;MCAL_Layer/SPI/hal_spi.c: 71:     if(((void*)0) == Config){
  1223   001A5E  5065               	movf	SPI_Send_Byte@Config^0,w,c
  1224   001A60  1066               	iorwf	(SPI_Send_Byte@Config+1)^0,w,c
  1225   001A62  A4D8               	btfss	status,2,c
  1226   001A64  EF36  F00D         	goto	u3721
  1227   001A68  EF38  F00D         	goto	u3720
  1228   001A6C                     u3721:
  1229   001A6C  EF3A  F00D         	goto	l1297
  1230   001A70                     u3720:
  1231   001A70                     
  1232                           ;MCAL_Layer/SPI/hal_spi.c: 73:     }
  1233   001A70  EF44  F00D         	goto	l5412
  1234   001A74                     l1297:
  1235                           
  1236                           ;MCAL_Layer/SPI/hal_spi.c: 75:         SSPBUF = _data;
  1237   001A74  C067  FFC9         	movff	SPI_Send_Byte@_data,4041	;volatile
  1238   001A78                     l1299:
  1239   001A78  A69E               	btfss	158,3,c	;volatile
  1240   001A7A  EF41  F00D         	goto	u3731
  1241   001A7E  EF43  F00D         	goto	u3730
  1242   001A82                     u3731:
  1243   001A82  EF3C  F00D         	goto	l1299
  1244   001A86                     u3730:
  1245   001A86                     
  1246                           ;MCAL_Layer/SPI/hal_spi.c: 77:         PIR1bits.SSPIF = 0;
  1247   001A86  969E               	bcf	158,3,c	;volatile
  1248   001A88                     l5412:
  1249                           
  1250                           ;MCAL_Layer/SPI/hal_spi.c: 80:     return ret;
  1251   001A88  0E00               	movlw	0
  1252   001A8A  0012               	return		;funcret
  1253   001A8C                     __end_of_SPI_Send_Byte:
  1254                           	callstack 0
  1255                           
  1256 ;; *************** function _SPI_Read_Byte *****************
  1257 ;; Defined at:
  1258 ;;		line 83 in file "MCAL_Layer/SPI/hal_spi.c"
  1259 ;; Parameters:    Size  Location     Type
  1260 ;;  Config          2    1[COMRAM] PTR const struct .
  1261 ;;		 -> SPI_Obj(2), 
  1262 ;;  _data           2    3[COMRAM] PTR unsigned char 
  1263 ;;		 -> SPI_Msater_Side_Slave1_RetVal(1), 
  1264 ;; Auto vars:     Size  Location     Type
  1265 ;;  ret             1    0        unsigned char 
  1266 ;; Return value:  Size  Location     Type
  1267 ;;                  1    wreg      unsigned char 
  1268 ;; Registers used:
  1269 ;;		wreg, fsr2l, fsr2h, status,2, status,0
  1270 ;; Tracked objects:
  1271 ;;		On entry : 0/0
  1272 ;;		On exit  : 0/0
  1273 ;;		Unchanged: 0/0
  1274 ;; Data sizes:     COMRAM   BANK0   BANK1   BANK2   BANK3   BANK4   BANK5   BANK6   BANK7   BANK8   BANK9  BANK10  BANK1
      +1  BANK12  BANK13  BANK14  BANK15
  1275 ;;      Params:         4       0       0       0       0       0       0       0       0       0       0       0       
      +0       0       0       0       0
  1276 ;;      Locals:         0       0       0       0       0       0       0       0       0       0       0       0       
      +0       0       0       0       0
  1277 ;;      Temps:          0       0       0       0       0       0       0       0       0       0       0       0       
      +0       0       0       0       0
  1278 ;;      Totals:         4       0       0       0       0       0       0       0       0       0       0       0       
      +0       0       0       0       0
  1279 ;;Total ram usage:        4 bytes
  1280 ;; Hardware stack levels used: 1
  1281 ;; Hardware stack levels required when called: 2
  1282 ;; This function calls:
  1283 ;;		Nothing
  1284 ;; This function is called by:
  1285 ;;		_main
  1286 ;; This function uses a non-reentrant model
  1287 ;;
  1288                           
  1289                           	psect	text6
  1290   0019E6                     __ptext6:
  1291                           	callstack 0
  1292   0019E6                     _SPI_Read_Byte:
  1293                           	callstack 28
  1294   0019E6                     
  1295                           ;MCAL_Layer/SPI/hal_spi.c: 86:     if((((void*)0) == Config) || (((void*)0) == _data)){
  1296   0019E6  5065               	movf	SPI_Read_Byte@Config^0,w,c
  1297   0019E8  1066               	iorwf	(SPI_Read_Byte@Config+1)^0,w,c
  1298   0019EA  B4D8               	btfsc	status,2,c
  1299   0019EC  EFFA  F00C         	goto	u3741
  1300   0019F0  EFFC  F00C         	goto	u3740
  1301   0019F4                     u3741:
  1302   0019F4  EF05  F00D         	goto	l5422
  1303   0019F8                     u3740:
  1304   0019F8  5067               	movf	SPI_Read_Byte@_data^0,w,c
  1305   0019FA  1068               	iorwf	(SPI_Read_Byte@_data+1)^0,w,c
  1306   0019FC  A4D8               	btfss	status,2,c
  1307   0019FE  EF03  F00D         	goto	u3751
  1308   001A02  EF05  F00D         	goto	u3750
  1309   001A06                     u3751:
  1310   001A06  EF07  F00D         	goto	l1309
  1311   001A0A                     u3750:
  1312   001A0A                     l5422:
  1313                           
  1314                           ;MCAL_Layer/SPI/hal_spi.c: 88:     }
  1315   001A0A  EF14  F00D         	goto	l5426
  1316   001A0E                     l1309:
  1317   001A0E  A0C7               	btfss	199,0,c	;volatile
  1318   001A10  EF0C  F00D         	goto	u3761
  1319   001A14  EF0E  F00D         	goto	u3760
  1320   001A18                     u3761:
  1321   001A18  EF07  F00D         	goto	l1309
  1322   001A1C                     u3760:
  1323   001A1C                     
  1324                           ;MCAL_Layer/SPI/hal_spi.c: 91:         *_data = SSPBUF;
  1325   001A1C  C067  FFD9         	movff	SPI_Read_Byte@_data,fsr2l
  1326   001A20  C068  FFDA         	movff	SPI_Read_Byte@_data+1,fsr2h
  1327   001A24  CFC9 FFDF          	movff	4041,indf2	;volatile
  1328   001A28                     l5426:
  1329                           
  1330                           ;MCAL_Layer/SPI/hal_spi.c: 94:     return ret;
  1331   001A28  0E00               	movlw	0
  1332   001A2A  0012               	return		;funcret
  1333   001A2C                     __end_of_SPI_Read_Byte:
  1334                           	callstack 0
  1335                           
  1336 ;; *************** function _SPI_Init *****************
  1337 ;; Defined at:
  1338 ;;		line 16 in file "MCAL_Layer/SPI/hal_spi.c"
  1339 ;; Parameters:    Size  Location     Type
  1340 ;;  Config          2   17[COMRAM] PTR const struct .
  1341 ;;		 -> SPI_Obj(2), 
  1342 ;; Auto vars:     Size  Location     Type
  1343 ;;  ret             1    0        unsigned char 
  1344 ;; Return value:  Size  Location     Type
  1345 ;;                  1    wreg      unsigned char 
  1346 ;; Registers used:
  1347 ;;		wreg, fsr2l, fsr2h, status,2, status,0, prodl, prodh, cstack
  1348 ;; Tracked objects:
  1349 ;;		On entry : 0/0
  1350 ;;		On exit  : 0/0
  1351 ;;		Unchanged: 0/0
  1352 ;; Data sizes:     COMRAM   BANK0   BANK1   BANK2   BANK3   BANK4   BANK5   BANK6   BANK7   BANK8   BANK9  BANK10  BANK1
      +1  BANK12  BANK13  BANK14  BANK15
  1353 ;;      Params:         2       0       0       0       0       0       0       0       0       0       0       0       
      +0       0       0       0       0
  1354 ;;      Locals:         0       0       0       0       0       0       0       0       0       0       0       0       
      +0       0       0       0       0
  1355 ;;      Temps:          1       0       0       0       0       0       0       0       0       0       0       0       
      +0       0       0       0       0
  1356 ;;      Totals:         3       0       0       0       0       0       0       0       0       0       0       0       
      +0       0       0       0       0
  1357 ;;Total ram usage:        3 bytes
  1358 ;; Hardware stack levels used: 1
  1359 ;; Hardware stack levels required when called: 4
  1360 ;; This function calls:
  1361 ;;		_MSSP_SPI_Interrupt_Init
  1362 ;;		_MSSP_SPI_Msster_Mode_GPIO_PIN_Configurations
  1363 ;;		_MSSP_SPI_Slave_Mode_GPIO_PIN_Configurations
  1364 ;; This function is called by:
  1365 ;;		_main
  1366 ;; This function uses a non-reentrant model
  1367 ;;
  1368                           
  1369                           	psect	text7
  1370   00141C                     __ptext7:
  1371                           	callstack 0
  1372   00141C                     _SPI_Init:
  1373                           	callstack 26
  1374   00141C                     
  1375                           ;MCAL_Layer/SPI/hal_spi.c: 19:     if(((void*)0) == Config){
  1376   00141C  5075               	movf	SPI_Init@Config^0,w,c
  1377   00141E  1076               	iorwf	(SPI_Init@Config+1)^0,w,c
  1378   001420  A4D8               	btfss	status,2,c
  1379   001422  EF15  F00A         	goto	u3651
  1380   001426  EF17  F00A         	goto	u3650
  1381   00142A                     u3651:
  1382   00142A  EF19  F00A         	goto	l1280
  1383   00142E                     u3650:
  1384   00142E                     
  1385                           ;MCAL_Layer/SPI/hal_spi.c: 21:     }
  1386   00142E  EFB7  F00A         	goto	l5402
  1387   001432                     l1280:
  1388                           
  1389                           ;MCAL_Layer/SPI/hal_spi.c: 24:         (SSPCON1bits.SSPEN = 0);
  1390   001432  9AC6               	bcf	198,5,c	;volatile
  1391   001434                     
  1392                           ;MCAL_Layer/SPI/hal_spi.c: 26:         SSPCON1bits.SSPM = Config->spi_mode;
  1393   001434  C075  FFD9         	movff	SPI_Init@Config,fsr2l
  1394   001438  C076  FFDA         	movff	SPI_Init@Config+1,fsr2h
  1395   00143C  50DF               	movf	indf2,w,c
  1396   00143E  6E77               	movwf	??_SPI_Init^0,c
  1397   001440  50C6               	movf	198,w,c	;volatile
  1398   001442  1877               	xorwf	??_SPI_Init^0,w,c
  1399   001444  0BF0               	andlw	-16
  1400   001446  1877               	xorwf	??_SPI_Init^0,w,c
  1401   001448  6EC6               	movwf	198,c	;volatile
  1402   00144A                     
  1403                           ;MCAL_Layer/SPI/hal_spi.c: 28:         if((Config->spi_mode == 0) || (Config->spi_mode =
      +                          = 1) ||
  1404   00144A  C075  FFD9         	movff	SPI_Init@Config,fsr2l
  1405   00144E  C076  FFDA         	movff	SPI_Init@Config+1,fsr2h
  1406   001452  50DF               	movf	indf2,w,c
  1407   001454  B4D8               	btfsc	status,2,c
  1408   001456  EF2F  F00A         	goto	u3661
  1409   00145A  EF31  F00A         	goto	u3660
  1410   00145E                     u3661:
  1411   00145E  EF57  F00A         	goto	l5384
  1412   001462                     u3660:
  1413   001462  C075  FFD9         	movff	SPI_Init@Config,fsr2l
  1414   001466  C076  FFDA         	movff	SPI_Init@Config+1,fsr2h
  1415   00146A  04DE               	decf	postinc2,w,c
  1416   00146C  B4D8               	btfsc	status,2,c
  1417   00146E  EF3B  F00A         	goto	u3671
  1418   001472  EF3D  F00A         	goto	u3670
  1419   001476                     u3671:
  1420   001476  EF57  F00A         	goto	l5384
  1421   00147A                     u3670:
  1422   00147A  C075  FFD9         	movff	SPI_Init@Config,fsr2l
  1423   00147E  C076  FFDA         	movff	SPI_Init@Config+1,fsr2h
  1424   001482  0E02               	movlw	2
  1425   001484  18DE               	xorwf	postinc2,w,c
  1426   001486  B4D8               	btfsc	status,2,c
  1427   001488  EF48  F00A         	goto	u3681
  1428   00148C  EF4A  F00A         	goto	u3680
  1429   001490                     u3681:
  1430   001490  EF57  F00A         	goto	l5384
  1431   001494                     u3680:
  1432   001494  C075  FFD9         	movff	SPI_Init@Config,fsr2l
  1433   001498  C076  FFDA         	movff	SPI_Init@Config+1,fsr2h
  1434   00149C  0E03               	movlw	3
  1435   00149E  18DE               	xorwf	postinc2,w,c
  1436   0014A0  A4D8               	btfss	status,2,c
  1437   0014A2  EF55  F00A         	goto	u3691
  1438   0014A6  EF57  F00A         	goto	u3690
  1439   0014AA                     u3691:
  1440   0014AA  EF5F  F00A         	goto	l5386
  1441   0014AE                     u3690:
  1442   0014AE                     l5384:
  1443                           
  1444                           ;MCAL_Layer/SPI/hal_spi.c: 29:             (Config->spi_mode == 2) || (Config->spi_mode 
      +                          == 3)){;MCAL_Layer/SPI/hal_spi.c: 30:             MSSP_SPI_Msster_Mode_GPIO_PIN_Configur
      +                          ations(Config);
  1445   0014AE  C075  F06E         	movff	SPI_Init@Config,MSSP_SPI_Msster_Mode_GPIO_PIN_Configurations@Config
  1446   0014B2  C076  F06F         	movff	SPI_Init@Config+1,MSSP_SPI_Msster_Mode_GPIO_PIN_Configurations@Config+1
  1447   0014B6  EC16  F00D         	call	_MSSP_SPI_Msster_Mode_GPIO_PIN_Configurations	;wreg free
  1448                           
  1449                           ;MCAL_Layer/SPI/hal_spi.c: 31:         }
  1450   0014BA  EF7F  F00A         	goto	l5392
  1451   0014BE                     l5386:
  1452   0014BE  C075  FFD9         	movff	SPI_Init@Config,fsr2l
  1453   0014C2  C076  FFDA         	movff	SPI_Init@Config+1,fsr2h
  1454   0014C6  0E04               	movlw	4
  1455   0014C8  18DE               	xorwf	postinc2,w,c
  1456   0014CA  B4D8               	btfsc	status,2,c
  1457   0014CC  EF6A  F00A         	goto	u3701
  1458   0014D0  EF6C  F00A         	goto	u3700
  1459   0014D4                     u3701:
  1460   0014D4  EF79  F00A         	goto	l5390
  1461   0014D8                     u3700:
  1462   0014D8  C075  FFD9         	movff	SPI_Init@Config,fsr2l
  1463   0014DC  C076  FFDA         	movff	SPI_Init@Config+1,fsr2h
  1464   0014E0  0E05               	movlw	5
  1465   0014E2  18DE               	xorwf	postinc2,w,c
  1466   0014E4  A4D8               	btfss	status,2,c
  1467   0014E6  EF77  F00A         	goto	u3711
  1468   0014EA  EF79  F00A         	goto	u3710
  1469   0014EE                     u3711:
  1470   0014EE  EF7F  F00A         	goto	l5392
  1471   0014F2                     u3710:
  1472   0014F2                     l5390:
  1473                           
  1474                           ;MCAL_Layer/SPI/hal_spi.c: 33:             MSSP_SPI_Slave_Mode_GPIO_PIN_Configurations(C
      +                          onfig);
  1475   0014F2  C075  F06E         	movff	SPI_Init@Config,MSSP_SPI_Slave_Mode_GPIO_PIN_Configurations@Config
  1476   0014F6  C076  F06F         	movff	SPI_Init@Config+1,MSSP_SPI_Slave_Mode_GPIO_PIN_Configurations@Config+1
  1477   0014FA  ECC5  F00C         	call	_MSSP_SPI_Slave_Mode_GPIO_PIN_Configurations	;wreg free
  1478   0014FE                     l5392:
  1479                           
  1480                           ;MCAL_Layer/SPI/hal_spi.c: 36:         SSPCON1bits.CKP = Config->spi_config.ClockPolarit
      +                          y;
  1481   0014FE  EE20 F001          	lfsr	2,1
  1482   001502  5075               	movf	SPI_Init@Config^0,w,c
  1483   001504  26D9               	addwf	fsr2l,f,c
  1484   001506  5076               	movf	(SPI_Init@Config+1)^0,w,c
  1485   001508  22DA               	addwfc	fsr2h,f,c
  1486   00150A  50DF               	movf	223,w,c
  1487   00150C  0B03               	andlw	3
  1488   00150E  6E77               	movwf	??_SPI_Init^0,c
  1489   001510  3A77               	swapf	??_SPI_Init^0,f,c
  1490   001512  50C6               	movf	198,w,c	;volatile
  1491   001514  1877               	xorwf	??_SPI_Init^0,w,c
  1492   001516  0BEF               	andlw	-17
  1493   001518  1877               	xorwf	??_SPI_Init^0,w,c
  1494   00151A  6EC6               	movwf	198,c	;volatile
  1495   00151C                     
  1496                           ;MCAL_Layer/SPI/hal_spi.c: 38:         SSPSTATbits.SMP = Config->spi_config.SampleSelect
      +                          ;
  1497   00151C  EE20 F001          	lfsr	2,1
  1498   001520  5075               	movf	SPI_Init@Config^0,w,c
  1499   001522  26D9               	addwf	fsr2l,f,c
  1500   001524  5076               	movf	(SPI_Init@Config+1)^0,w,c
  1501   001526  22DA               	addwfc	fsr2h,f,c
  1502   001528  30DF               	rrcf	223,w,c
  1503   00152A  32E8               	rrcf	wreg,f,c
  1504   00152C  0B03               	andlw	3
  1505   00152E  6E77               	movwf	??_SPI_Init^0,c
  1506   001530  3277               	rrcf	??_SPI_Init^0,f,c
  1507   001532  3277               	rrcf	??_SPI_Init^0,f,c
  1508   001534  50C7               	movf	199,w,c	;volatile
  1509   001536  1877               	xorwf	??_SPI_Init^0,w,c
  1510   001538  0B7F               	andlw	-129
  1511   00153A  1877               	xorwf	??_SPI_Init^0,w,c
  1512   00153C  6EC7               	movwf	199,c	;volatile
  1513   00153E                     
  1514                           ;MCAL_Layer/SPI/hal_spi.c: 40:          SSPSTATbits.CKE = Config->spi_config.ClockSelect
      +                          ;
  1515   00153E  EE20 F001          	lfsr	2,1
  1516   001542  5075               	movf	SPI_Init@Config^0,w,c
  1517   001544  26D9               	addwf	fsr2l,f,c
  1518   001546  5076               	movf	(SPI_Init@Config+1)^0,w,c
  1519   001548  22DA               	addwfc	fsr2h,f,c
  1520   00154A  38DF               	swapf	223,w,c
  1521   00154C  0B03               	andlw	3
  1522   00154E  6E77               	movwf	??_SPI_Init^0,c
  1523   001550  3A77               	swapf	??_SPI_Init^0,f,c
  1524   001552  4677               	rlncf	??_SPI_Init^0,f,c
  1525   001554  4677               	rlncf	??_SPI_Init^0,f,c
  1526   001556  50C7               	movf	199,w,c	;volatile
  1527   001558  1877               	xorwf	??_SPI_Init^0,w,c
  1528   00155A  0BBF               	andlw	-65
  1529   00155C  1877               	xorwf	??_SPI_Init^0,w,c
  1530   00155E  6EC7               	movwf	199,c	;volatile
  1531   001560                     
  1532                           ;MCAL_Layer/SPI/hal_spi.c: 42:         MSSP_SPI_Interrupt_Init(Config);
  1533   001560  C075  F065         	movff	SPI_Init@Config,MSSP_SPI_Interrupt_Init@Config
  1534   001564  C076  F066         	movff	SPI_Init@Config+1,MSSP_SPI_Interrupt_Init@Config+1
  1535   001568  ECBB  F00D         	call	_MSSP_SPI_Interrupt_Init	;wreg free
  1536   00156C                     
  1537                           ;MCAL_Layer/SPI/hal_spi.c: 44:         (SSPCON1bits.SSPEN = 1);
  1538   00156C  8AC6               	bsf	198,5,c	;volatile
  1539   00156E                     l5402:
  1540                           
  1541                           ;MCAL_Layer/SPI/hal_spi.c: 47:     return ret;
  1542   00156E  0E00               	movlw	0
  1543   001570  0012               	return		;funcret
  1544   001572                     __end_of_SPI_Init:
  1545                           	callstack 0
  1546                           
  1547 ;; *************** function _MSSP_SPI_Slave_Mode_GPIO_PIN_Configurations *****************
  1548 ;; Defined at:
  1549 ;;		line 152 in file "MCAL_Layer/SPI/hal_spi.c"
  1550 ;; Parameters:    Size  Location     Type
  1551 ;;  Config          2   10[COMRAM] PTR const struct .
  1552 ;;		 -> SPI_Obj(2), 
  1553 ;; Auto vars:     Size  Location     Type
  1554 ;;  SPI_SS          1   16[COMRAM] struct .
  1555 ;;  SPI_CLK         1   15[COMRAM] struct .
  1556 ;;  SPI_SDI         1   14[COMRAM] struct .
  1557 ;;  SPI_SDO         1   13[COMRAM] struct .
  1558 ;;  ret             1    0        unsigned char 
  1559 ;; Return value:  Size  Location     Type
  1560 ;;                  1    wreg      void 
  1561 ;; Registers used:
  1562 ;;		wreg, fsr2l, fsr2h, status,2, status,0, prodl, prodh, cstack
  1563 ;; Tracked objects:
  1564 ;;		On entry : 0/0
  1565 ;;		On exit  : 0/0
  1566 ;;		Unchanged: 0/0
  1567 ;; Data sizes:     COMRAM   BANK0   BANK1   BANK2   BANK3   BANK4   BANK5   BANK6   BANK7   BANK8   BANK9  BANK10  BANK1
      +1  BANK12  BANK13  BANK14  BANK15
  1568 ;;      Params:         2       0       0       0       0       0       0       0       0       0       0       0       
      +0       0       0       0       0
  1569 ;;      Locals:         4       0       0       0       0       0       0       0       0       0       0       0       
      +0       0       0       0       0
  1570 ;;      Temps:          1       0       0       0       0       0       0       0       0       0       0       0       
      +0       0       0       0       0
  1571 ;;      Totals:         7       0       0       0       0       0       0       0       0       0       0       0       
      +0       0       0       0       0
  1572 ;;Total ram usage:        7 bytes
  1573 ;; Hardware stack levels used: 1
  1574 ;; Hardware stack levels required when called: 3
  1575 ;; This function calls:
  1576 ;;		_gpio_pin_direction_intialize
  1577 ;; This function is called by:
  1578 ;;		_SPI_Init
  1579 ;; This function uses a non-reentrant model
  1580 ;;
  1581                           
  1582                           	psect	text8
  1583   00198A                     __ptext8:
  1584                           	callstack 0
  1585   00198A                     _MSSP_SPI_Slave_Mode_GPIO_PIN_Configurations:
  1586                           	callstack 26
  1587   00198A                     
  1588                           ;MCAL_Layer/SPI/hal_spi.c: 154:     pin_config_t SPI_SDO = {.port = PORTC_INDEX, .pin = 
      +                          GPIO_PIN5, .direction = GPIO_DIRECTION_OUTPUT};
  1589   00198A  C05C  F071         	movff	MSSP_SPI_Slave_Mode_GPIO_PIN_Configurations@F3067,MSSP_SPI_Slave_Mode_GPIO_PIN_Co
      +                          nfigurations@SPI_SDO
  1590   00198E                     
  1591                           ;MCAL_Layer/SPI/hal_spi.c: 155:     pin_config_t SPI_SDI = {.port = PORTC_INDEX, .pin = 
      +                          GPIO_PIN4, .direction = GPIO_DIRECTION_INPUT};
  1592   00198E  C05B  F072         	movff	MSSP_SPI_Slave_Mode_GPIO_PIN_Configurations@F3069,MSSP_SPI_Slave_Mode_GPIO_PIN_Co
      +                          nfigurations@SPI_SDI
  1593   001992                     
  1594                           ;MCAL_Layer/SPI/hal_spi.c: 156:     pin_config_t SPI_CLK = {.port = PORTC_INDEX, .pin = 
      +                          GPIO_PIN3, .direction = GPIO_DIRECTION_INPUT};
  1595   001992  C05A  F073         	movff	MSSP_SPI_Slave_Mode_GPIO_PIN_Configurations@F3071,MSSP_SPI_Slave_Mode_GPIO_PIN_Co
      +                          nfigurations@SPI_CLK
  1596   001996                     
  1597                           ;MCAL_Layer/SPI/hal_spi.c: 157:     pin_config_t SPI_SS = {.port = PORTA_INDEX, .pin = G
      +                          PIO_PIN5, .direction = GPIO_DIRECTION_INPUT};
  1598   001996  C059  F074         	movff	MSSP_SPI_Slave_Mode_GPIO_PIN_Configurations@F3073,MSSP_SPI_Slave_Mode_GPIO_PIN_Co
      +                          nfigurations@SPI_SS
  1599   00199A  0E71               	movlw	low MSSP_SPI_Slave_Mode_GPIO_PIN_Configurations@SPI_SDO
  1600   00199C  6E65               	movwf	gpio_pin_direction_intialize@_pin_config^0,c
  1601   00199E  0E00               	movlw	high MSSP_SPI_Slave_Mode_GPIO_PIN_Configurations@SPI_SDO
  1602   0019A0  6E66               	movwf	(gpio_pin_direction_intialize@_pin_config+1)^0,c
  1603   0019A2  ECB9  F00A         	call	_gpio_pin_direction_intialize	;wreg free
  1604   0019A6  0E72               	movlw	low MSSP_SPI_Slave_Mode_GPIO_PIN_Configurations@SPI_SDI
  1605   0019A8  6E65               	movwf	gpio_pin_direction_intialize@_pin_config^0,c
  1606   0019AA  0E00               	movlw	high MSSP_SPI_Slave_Mode_GPIO_PIN_Configurations@SPI_SDI
  1607   0019AC  6E66               	movwf	(gpio_pin_direction_intialize@_pin_config+1)^0,c
  1608   0019AE  ECB9  F00A         	call	_gpio_pin_direction_intialize	;wreg free
  1609   0019B2  0E73               	movlw	low MSSP_SPI_Slave_Mode_GPIO_PIN_Configurations@SPI_CLK
  1610   0019B4  6E65               	movwf	gpio_pin_direction_intialize@_pin_config^0,c
  1611   0019B6  0E00               	movlw	high MSSP_SPI_Slave_Mode_GPIO_PIN_Configurations@SPI_CLK
  1612   0019B8  6E66               	movwf	(gpio_pin_direction_intialize@_pin_config+1)^0,c
  1613   0019BA  ECB9  F00A         	call	_gpio_pin_direction_intialize	;wreg free
  1614   0019BE                     
  1615                           ;MCAL_Layer/SPI/hal_spi.c: 163:     if(4 == Config->spi_mode){
  1616   0019BE  C06E  FFD9         	movff	MSSP_SPI_Slave_Mode_GPIO_PIN_Configurations@Config,fsr2l
  1617   0019C2  C06F  FFDA         	movff	MSSP_SPI_Slave_Mode_GPIO_PIN_Configurations@Config+1,fsr2h
  1618   0019C6  0E04               	movlw	4
  1619   0019C8  18DE               	xorwf	postinc2,w,c
  1620   0019CA  A4D8               	btfss	status,2,c
  1621   0019CC  EFEA  F00C         	goto	u3541
  1622   0019D0  EFEC  F00C         	goto	u3540
  1623   0019D4                     u3541:
  1624   0019D4  EFF2  F00C         	goto	l1345
  1625   0019D8                     u3540:
  1626   0019D8  0E74               	movlw	low MSSP_SPI_Slave_Mode_GPIO_PIN_Configurations@SPI_SS
  1627   0019DA  6E65               	movwf	gpio_pin_direction_intialize@_pin_config^0,c
  1628   0019DC  0E00               	movlw	high MSSP_SPI_Slave_Mode_GPIO_PIN_Configurations@SPI_SS
  1629   0019DE  6E66               	movwf	(gpio_pin_direction_intialize@_pin_config+1)^0,c
  1630   0019E0  ECB9  F00A         	call	_gpio_pin_direction_intialize	;wreg free
  1631   0019E4                     l1345:
  1632   0019E4  0012               	return		;funcret
  1633   0019E6                     __end_of_MSSP_SPI_Slave_Mode_GPIO_PIN_Configurations:
  1634                           	callstack 0
  1635                           
  1636 ;; *************** function _MSSP_SPI_Msster_Mode_GPIO_PIN_Configurations *****************
  1637 ;; Defined at:
  1638 ;;		line 141 in file "MCAL_Layer/SPI/hal_spi.c"
  1639 ;; Parameters:    Size  Location     Type
  1640 ;;  Config          2   10[COMRAM] PTR const struct .
  1641 ;;		 -> SPI_Obj(2), 
  1642 ;; Auto vars:     Size  Location     Type
  1643 ;;  SPI_CLK         1   14[COMRAM] struct .
  1644 ;;  SPI_SDI         1   13[COMRAM] struct .
  1645 ;;  SPI_SDO         1   12[COMRAM] struct .
  1646 ;;  ret             1    0        unsigned char 
  1647 ;; Return value:  Size  Location     Type
  1648 ;;                  1    wreg      void 
  1649 ;; Registers used:
  1650 ;;		wreg, fsr2l, fsr2h, status,2, status,0, prodl, prodh, cstack
  1651 ;; Tracked objects:
  1652 ;;		On entry : 0/0
  1653 ;;		On exit  : 0/0
  1654 ;;		Unchanged: 0/0
  1655 ;; Data sizes:     COMRAM   BANK0   BANK1   BANK2   BANK3   BANK4   BANK5   BANK6   BANK7   BANK8   BANK9  BANK10  BANK1
      +1  BANK12  BANK13  BANK14  BANK15
  1656 ;;      Params:         2       0       0       0       0       0       0       0       0       0       0       0       
      +0       0       0       0       0
  1657 ;;      Locals:         3       0       0       0       0       0       0       0       0       0       0       0       
      +0       0       0       0       0
  1658 ;;      Temps:          0       0       0       0       0       0       0       0       0       0       0       0       
      +0       0       0       0       0
  1659 ;;      Totals:         5       0       0       0       0       0       0       0       0       0       0       0       
      +0       0       0       0       0
  1660 ;;Total ram usage:        5 bytes
  1661 ;; Hardware stack levels used: 1
  1662 ;; Hardware stack levels required when called: 3
  1663 ;; This function calls:
  1664 ;;		_gpio_pin_direction_intialize
  1665 ;; This function is called by:
  1666 ;;		_SPI_Init
  1667 ;; This function uses a non-reentrant model
  1668 ;;
  1669                           
  1670                           	psect	text9
  1671   001A2C                     __ptext9:
  1672                           	callstack 0
  1673   001A2C                     _MSSP_SPI_Msster_Mode_GPIO_PIN_Configurations:
  1674                           	callstack 26
  1675   001A2C                     
  1676                           ;MCAL_Layer/SPI/hal_spi.c: 143:     pin_config_t SPI_SDO = {.port = PORTC_INDEX, .pin = 
      +                          GPIO_PIN5, .direction = GPIO_DIRECTION_OUTPUT};
  1677   001A2C  C05F  F070         	movff	MSSP_SPI_Msster_Mode_GPIO_PIN_Configurations@F3058,MSSP_SPI_Msster_Mode_GPIO_PIN_
      +                          Configurations@SPI_SDO
  1678   001A30                     
  1679                           ;MCAL_Layer/SPI/hal_spi.c: 144:     pin_config_t SPI_SDI = {.port = PORTC_INDEX, .pin = 
      +                          GPIO_PIN4, .direction = GPIO_DIRECTION_INPUT};
  1680   001A30  C05E  F071         	movff	MSSP_SPI_Msster_Mode_GPIO_PIN_Configurations@F3060,MSSP_SPI_Msster_Mode_GPIO_PIN_
      +                          Configurations@SPI_SDI
  1681   001A34                     
  1682                           ;MCAL_Layer/SPI/hal_spi.c: 145:     pin_config_t SPI_CLK = {.port = PORTC_INDEX, .pin = 
      +                          GPIO_PIN3, .direction = GPIO_DIRECTION_OUTPUT};
  1683   001A34  C05D  F072         	movff	MSSP_SPI_Msster_Mode_GPIO_PIN_Configurations@F3062,MSSP_SPI_Msster_Mode_GPIO_PIN_
      +                          Configurations@SPI_CLK
  1684   001A38  0E70               	movlw	low MSSP_SPI_Msster_Mode_GPIO_PIN_Configurations@SPI_SDO
  1685   001A3A  6E65               	movwf	gpio_pin_direction_intialize@_pin_config^0,c
  1686   001A3C  0E00               	movlw	high MSSP_SPI_Msster_Mode_GPIO_PIN_Configurations@SPI_SDO
  1687   001A3E  6E66               	movwf	(gpio_pin_direction_intialize@_pin_config+1)^0,c
  1688   001A40  ECB9  F00A         	call	_gpio_pin_direction_intialize	;wreg free
  1689   001A44  0E71               	movlw	low MSSP_SPI_Msster_Mode_GPIO_PIN_Configurations@SPI_SDI
  1690   001A46  6E65               	movwf	gpio_pin_direction_intialize@_pin_config^0,c
  1691   001A48  0E00               	movlw	high MSSP_SPI_Msster_Mode_GPIO_PIN_Configurations@SPI_SDI
  1692   001A4A  6E66               	movwf	(gpio_pin_direction_intialize@_pin_config+1)^0,c
  1693   001A4C  ECB9  F00A         	call	_gpio_pin_direction_intialize	;wreg free
  1694   001A50  0E72               	movlw	low MSSP_SPI_Msster_Mode_GPIO_PIN_Configurations@SPI_CLK
  1695   001A52  6E65               	movwf	gpio_pin_direction_intialize@_pin_config^0,c
  1696   001A54  0E00               	movlw	high MSSP_SPI_Msster_Mode_GPIO_PIN_Configurations@SPI_CLK
  1697   001A56  6E66               	movwf	(gpio_pin_direction_intialize@_pin_config+1)^0,c
  1698   001A58  ECB9  F00A         	call	_gpio_pin_direction_intialize	;wreg free
  1699   001A5C  0012               	return		;funcret
  1700   001A5E                     __end_of_MSSP_SPI_Msster_Mode_GPIO_PIN_Configurations:
  1701                           	callstack 0
  1702                           
  1703 ;; *************** function _gpio_pin_direction_intialize *****************
  1704 ;; Defined at:
  1705 ;;		line 25 in file "MCAL_Layer/GPIO/hal_gpio.c"
  1706 ;; Parameters:    Size  Location     Type
  1707 ;;  _pin_config     2    1[COMRAM] PTR const struct .
  1708 ;;		 -> SPI_SS1(1), MSSP_SPI_Slave_Mode_GPIO_PIN_Configurations@SPI_SS(1), MSSP_SPI_Slave_Mode_GPIO_PIN_Configurations@S
      +PI_CLK(1), MSSP_SPI_Slave_Mode_GPIO_PIN_Configurations@SPI_SDI(1), 
  1709 ;;		 -> MSSP_SPI_Slave_Mode_GPIO_PIN_Configurations@SPI_SDO(1), MSSP_SPI_Msster_Mode_GPIO_PIN_Configurations@SPI_CLK(1),
      + MSSP_SPI_Msster_Mode_GPIO_PIN_Configurations@SPI_SDI(1), MSSP_SPI_Msster_Mode_GPIO_PIN_Configurations@SPI_SDO(1), 
  1710 ;;		 -> relay_initialize@pin_obj(1), led_initialize@pin_obj(1), 
  1711 ;; Auto vars:     Size  Location     Type
  1712 ;;  ret             1    9[COMRAM] unsigned char 
  1713 ;; Return value:  Size  Location     Type
  1714 ;;                  1    wreg      unsigned char 
  1715 ;; Registers used:
  1716 ;;		wreg, fsr2l, fsr2h, status,2, status,0, prodl, prodh
  1717 ;; Tracked objects:
  1718 ;;		On entry : 0/0
  1719 ;;		On exit  : 0/0
  1720 ;;		Unchanged: 0/0
  1721 ;; Data sizes:     COMRAM   BANK0   BANK1   BANK2   BANK3   BANK4   BANK5   BANK6   BANK7   BANK8   BANK9  BANK10  BANK1
      +1  BANK12  BANK13  BANK14  BANK15
  1722 ;;      Params:         2       0       0       0       0       0       0       0       0       0       0       0       
      +0       0       0       0       0
  1723 ;;      Locals:         1       0       0       0       0       0       0       0       0       0       0       0       
      +0       0       0       0       0
  1724 ;;      Temps:          6       0       0       0       0       0       0       0       0       0       0       0       
      +0       0       0       0       0
  1725 ;;      Totals:         9       0       0       0       0       0       0       0       0       0       0       0       
      +0       0       0       0       0
  1726 ;;Total ram usage:        9 bytes
  1727 ;; Hardware stack levels used: 1
  1728 ;; Hardware stack levels required when called: 2
  1729 ;; This function calls:
  1730 ;;		Nothing
  1731 ;; This function is called by:
  1732 ;;		_gpio_pin_intialize
  1733 ;;		_MSSP_SPI_Msster_Mode_GPIO_PIN_Configurations
  1734 ;;		_MSSP_SPI_Slave_Mode_GPIO_PIN_Configurations
  1735 ;;		_button_initialize
  1736 ;;		_keypad_initialize
  1737 ;;		_Interrupt_RBx_Init
  1738 ;;		_Interrupt_INTx_Pin_Init
  1739 ;; This function uses a non-reentrant model
  1740 ;;
  1741                           
  1742                           	psect	text10
  1743   001572                     __ptext10:
  1744                           	callstack 0
  1745   001572                     _gpio_pin_direction_intialize:
  1746                           	callstack 27
  1747   001572                     
  1748                           ;MCAL_Layer/GPIO/hal_gpio.c: 26:     Std_ReturnType ret = (Std_ReturnType)0x01;
  1749   001572  0E01               	movlw	1
  1750   001574  6E6D               	movwf	gpio_pin_direction_intialize@ret^0,c
  1751   001576                     
  1752                           ;MCAL_Layer/GPIO/hal_gpio.c: 27:     if(((void*)0) == _pin_config || _pin_config->pin > 
      +                          8 -1){
  1753   001576  5065               	movf	gpio_pin_direction_intialize@_pin_config^0,w,c
  1754   001578  1066               	iorwf	(gpio_pin_direction_intialize@_pin_config+1)^0,w,c
  1755   00157A  B4D8               	btfsc	status,2,c
  1756   00157C  EFC2  F00A         	goto	u3401
  1757   001580  EFC4  F00A         	goto	u3400
  1758   001584                     u3401:
  1759   001584  EFD5  F00A         	goto	l5130
  1760   001588                     u3400:
  1761   001588  C065  FFD9         	movff	gpio_pin_direction_intialize@_pin_config,fsr2l
  1762   00158C  C066  FFDA         	movff	gpio_pin_direction_intialize@_pin_config+1,fsr2h
  1763   001590  30DF               	rrcf	223,w,c
  1764   001592  32E8               	rrcf	wreg,f,c
  1765   001594  32E8               	rrcf	wreg,f,c
  1766   001596  0B07               	andlw	7
  1767   001598  6E67               	movwf	??_gpio_pin_direction_intialize^0,c
  1768   00159A  0E07               	movlw	7
  1769   00159C  6467               	cpfsgt	??_gpio_pin_direction_intialize^0,c
  1770   00159E  EFD3  F00A         	goto	u3411
  1771   0015A2  EFD5  F00A         	goto	u3410
  1772   0015A6                     u3411:
  1773   0015A6  EF38  F00B         	goto	l5138
  1774   0015AA                     u3410:
  1775   0015AA                     l5130:
  1776                           
  1777                           ;MCAL_Layer/GPIO/hal_gpio.c: 28:         ret = (Std_ReturnType)0x00;
  1778   0015AA  0E00               	movlw	0
  1779   0015AC  6E6D               	movwf	gpio_pin_direction_intialize@ret^0,c
  1780                           
  1781                           ;MCAL_Layer/GPIO/hal_gpio.c: 29:     }
  1782   0015AE  EF59  F00B         	goto	l5140
  1783   0015B2                     l5132:
  1784                           
  1785                           ;MCAL_Layer/GPIO/hal_gpio.c: 33:                 (*tris_registers[_pin_config->port] &= 
      +                          ~((uint8)1 << _pin_config->pin));
  1786   0015B2  C065  FFD9         	movff	gpio_pin_direction_intialize@_pin_config,fsr2l
  1787   0015B6  C066  FFDA         	movff	gpio_pin_direction_intialize@_pin_config+1,fsr2h
  1788   0015BA  30DF               	rrcf	223,w,c
  1789   0015BC  32E8               	rrcf	wreg,f,c
  1790   0015BE  32E8               	rrcf	wreg,f,c
  1791   0015C0  0B07               	andlw	7
  1792   0015C2  6E67               	movwf	??_gpio_pin_direction_intialize^0,c
  1793   0015C4  0E01               	movlw	1
  1794   0015C6  6E68               	movwf	(??_gpio_pin_direction_intialize+1)^0,c
  1795   0015C8  2A67               	incf	??_gpio_pin_direction_intialize^0,f,c
  1796   0015CA  EFE9  F00A         	goto	u3424
  1797   0015CE                     u3425:
  1798   0015CE  90D8               	bcf	status,0,c
  1799   0015D0  3668               	rlcf	(??_gpio_pin_direction_intialize+1)^0,f,c
  1800   0015D2                     u3424:
  1801   0015D2  2E67               	decfsz	??_gpio_pin_direction_intialize^0,f,c
  1802   0015D4  EFE7  F00A         	goto	u3425
  1803   0015D8  5068               	movf	(??_gpio_pin_direction_intialize+1)^0,w,c
  1804   0015DA  0AFF               	xorlw	255
  1805   0015DC  6E69               	movwf	(??_gpio_pin_direction_intialize+2)^0,c
  1806   0015DE  C065  FFD9         	movff	gpio_pin_direction_intialize@_pin_config,fsr2l
  1807   0015E2  C066  FFDA         	movff	gpio_pin_direction_intialize@_pin_config+1,fsr2h
  1808   0015E6  50DF               	movf	223,w,c
  1809   0015E8  0B07               	andlw	7
  1810   0015EA  6E6A               	movwf	(??_gpio_pin_direction_intialize+3)^0,c
  1811   0015EC  506A               	movf	(??_gpio_pin_direction_intialize+3)^0,w,c
  1812   0015EE  0D02               	mullw	2
  1813   0015F0  0E4F               	movlw	low _tris_registers
  1814   0015F2  24F3               	addwf	243,w,c
  1815   0015F4  6ED9               	movwf	fsr2l,c
  1816   0015F6  0E00               	movlw	high _tris_registers
  1817   0015F8  20F4               	addwfc	prodh,w,c
  1818   0015FA  6EDA               	movwf	fsr2h,c
  1819   0015FC  CFDE F06B          	movff	postinc2,??_gpio_pin_direction_intialize+4
  1820   001600  CFDD F06C          	movff	postdec2,??_gpio_pin_direction_intialize+5
  1821   001604  C06B  FFD9         	movff	??_gpio_pin_direction_intialize+4,fsr2l
  1822   001608  C06C  FFDA         	movff	??_gpio_pin_direction_intialize+5,fsr2h
  1823   00160C  5069               	movf	(??_gpio_pin_direction_intialize+2)^0,w,c
  1824   00160E  16DF               	andwf	indf2,f,c
  1825                           
  1826                           ;MCAL_Layer/GPIO/hal_gpio.c: 34:                 break;
  1827   001610  EF59  F00B         	goto	l5140
  1828   001614                     l5134:
  1829                           
  1830                           ;MCAL_Layer/GPIO/hal_gpio.c: 36:                 (*tris_registers[_pin_config->port] |= 
      +                          ((uint8)1 << _pin_config->pin));
  1831   001614  C065  FFD9         	movff	gpio_pin_direction_intialize@_pin_config,fsr2l
  1832   001618  C066  FFDA         	movff	gpio_pin_direction_intialize@_pin_config+1,fsr2h
  1833   00161C  30DF               	rrcf	223,w,c
  1834   00161E  32E8               	rrcf	wreg,f,c
  1835   001620  32E8               	rrcf	wreg,f,c
  1836   001622  0B07               	andlw	7
  1837   001624  6E67               	movwf	??_gpio_pin_direction_intialize^0,c
  1838   001626  0E01               	movlw	1
  1839   001628  6E68               	movwf	(??_gpio_pin_direction_intialize+1)^0,c
  1840   00162A  2A67               	incf	??_gpio_pin_direction_intialize^0,f,c
  1841   00162C  EF1A  F00B         	goto	u3434
  1842   001630                     u3435:
  1843   001630  90D8               	bcf	status,0,c
  1844   001632  3668               	rlcf	(??_gpio_pin_direction_intialize+1)^0,f,c
  1845   001634                     u3434:
  1846   001634  2E67               	decfsz	??_gpio_pin_direction_intialize^0,f,c
  1847   001636  EF18  F00B         	goto	u3435
  1848   00163A  C065  FFD9         	movff	gpio_pin_direction_intialize@_pin_config,fsr2l
  1849   00163E  C066  FFDA         	movff	gpio_pin_direction_intialize@_pin_config+1,fsr2h
  1850   001642  50DF               	movf	223,w,c
  1851   001644  0B07               	andlw	7
  1852   001646  6E69               	movwf	(??_gpio_pin_direction_intialize+2)^0,c
  1853   001648  5069               	movf	(??_gpio_pin_direction_intialize+2)^0,w,c
  1854   00164A  0D02               	mullw	2
  1855   00164C  0E4F               	movlw	low _tris_registers
  1856   00164E  24F3               	addwf	243,w,c
  1857   001650  6ED9               	movwf	fsr2l,c
  1858   001652  0E00               	movlw	high _tris_registers
  1859   001654  20F4               	addwfc	prodh,w,c
  1860   001656  6EDA               	movwf	fsr2h,c
  1861   001658  CFDE F06A          	movff	postinc2,??_gpio_pin_direction_intialize+3
  1862   00165C  CFDD F06B          	movff	postdec2,??_gpio_pin_direction_intialize+4
  1863   001660  C06A  FFD9         	movff	??_gpio_pin_direction_intialize+3,fsr2l
  1864   001664  C06B  FFDA         	movff	??_gpio_pin_direction_intialize+4,fsr2h
  1865   001668  5068               	movf	(??_gpio_pin_direction_intialize+1)^0,w,c
  1866   00166A  12DF               	iorwf	indf2,f,c
  1867                           
  1868                           ;MCAL_Layer/GPIO/hal_gpio.c: 37:                 break;
  1869   00166C  EF59  F00B         	goto	l5140
  1870   001670                     l5138:
  1871   001670  C065  FFD9         	movff	gpio_pin_direction_intialize@_pin_config,fsr2l
  1872   001674  C066  FFDA         	movff	gpio_pin_direction_intialize@_pin_config+1,fsr2h
  1873   001678  BCDF               	btfsc	indf2,6,c
  1874   00167A  EF41  F00B         	goto	u3441
  1875   00167E  EF44  F00B         	goto	u3440
  1876   001682                     u3441:
  1877   001682  0E01               	movlw	1
  1878   001684  EF45  F00B         	goto	u3450
  1879   001688                     u3440:
  1880   001688  0E00               	movlw	0
  1881   00168A                     u3450:
  1882   00168A  6E67               	movwf	??_gpio_pin_direction_intialize^0,c
  1883   00168C  6A68               	clrf	(??_gpio_pin_direction_intialize+1)^0,c
  1884                           
  1885                           ; Switch on 2 bytes has been partitioned into a top level switch of size 1, and 1 sub-sw
      +                          itches
  1886                           ; Switch size 1, requested type "simple"
  1887                           ; Number of cases is 1, Range of values is 0 to 0
  1888                           ; switch strategies available:
  1889                           ; Name         Instructions Cycles
  1890                           ; simple_byte            4     3 (average)
  1891                           ;	Chosen strategy is simple_byte
  1892   00168E  5068               	movf	(??_gpio_pin_direction_intialize+1)^0,w,c
  1893   001690  0A00               	xorlw	0	; case 0
  1894   001692  B4D8               	btfsc	status,2,c
  1895   001694  EF4E  F00B         	goto	l6218
  1896   001698  EFD5  F00A         	goto	l5130
  1897   00169C                     l6218:
  1898                           
  1899                           ; Switch size 1, requested type "simple"
  1900                           ; Number of cases is 2, Range of values is 0 to 1
  1901                           ; switch strategies available:
  1902                           ; Name         Instructions Cycles
  1903                           ; simple_byte            7     4 (average)
  1904                           ;	Chosen strategy is simple_byte
  1905   00169C  5067               	movf	??_gpio_pin_direction_intialize^0,w,c
  1906   00169E  0A00               	xorlw	0	; case 0
  1907   0016A0  B4D8               	btfsc	status,2,c
  1908   0016A2  EFD9  F00A         	goto	l5132
  1909   0016A6  0A01               	xorlw	1	; case 1
  1910   0016A8  B4D8               	btfsc	status,2,c
  1911   0016AA  EF0A  F00B         	goto	l5134
  1912   0016AE  EFD5  F00A         	goto	l5130
  1913   0016B2                     l5140:
  1914                           
  1915                           ;MCAL_Layer/GPIO/hal_gpio.c: 41:     return ret;
  1916   0016B2  506D               	movf	gpio_pin_direction_intialize@ret^0,w,c
  1917   0016B4  0012               	return		;funcret
  1918   0016B6                     __end_of_gpio_pin_direction_intialize:
  1919                           	callstack 0
  1920                           
  1921 ;; *************** function _MSSP_SPI_Interrupt_Init *****************
  1922 ;; Defined at:
  1923 ;;		line 114 in file "MCAL_Layer/SPI/hal_spi.c"
  1924 ;; Parameters:    Size  Location     Type
  1925 ;;  Config          2    1[COMRAM] PTR const struct .
  1926 ;;		 -> SPI_Obj(2), 
  1927 ;; Auto vars:     Size  Location     Type
  1928 ;;		None
  1929 ;; Return value:  Size  Location     Type
  1930 ;;                  1    wreg      void 
  1931 ;; Registers used:
  1932 ;;		None
  1933 ;; Tracked objects:
  1934 ;;		On entry : 0/0
  1935 ;;		On exit  : 0/0
  1936 ;;		Unchanged: 0/0
  1937 ;; Data sizes:     COMRAM   BANK0   BANK1   BANK2   BANK3   BANK4   BANK5   BANK6   BANK7   BANK8   BANK9  BANK10  BANK1
      +1  BANK12  BANK13  BANK14  BANK15
  1938 ;;      Params:         2       0       0       0       0       0       0       0       0       0       0       0       
      +0       0       0       0       0
  1939 ;;      Locals:         0       0       0       0       0       0       0       0       0       0       0       0       
      +0       0       0       0       0
  1940 ;;      Temps:          0       0       0       0       0       0       0       0       0       0       0       0       
      +0       0       0       0       0
  1941 ;;      Totals:         2       0       0       0       0       0       0       0       0       0       0       0       
      +0       0       0       0       0
  1942 ;;Total ram usage:        2 bytes
  1943 ;; Hardware stack levels used: 1
  1944 ;; Hardware stack levels required when called: 2
  1945 ;; This function calls:
  1946 ;;		Nothing
  1947 ;; This function is called by:
  1948 ;;		_SPI_Init
  1949 ;; This function uses a non-reentrant model
  1950 ;;
  1951                           
  1952                           	psect	text11
  1953   001B76                     __ptext11:
  1954                           	callstack 0
  1955   001B76                     _MSSP_SPI_Interrupt_Init:
  1956                           	callstack 27
  1957   001B76  0012               	return		;funcret
  1958   001B78                     __end_of_MSSP_SPI_Interrupt_Init:
  1959                           	callstack 0
  1960                           
  1961 ;; *************** function _InterruptManager *****************
  1962 ;; Defined at:
  1963 ;;		line 32 in file "MCAL_Layer/Interrupt/mcal_interrupt_manager.c"
  1964 ;; Parameters:    Size  Location     Type
  1965 ;;		None
  1966 ;; Auto vars:     Size  Location     Type
  1967 ;;		None
  1968 ;; Return value:  Size  Location     Type
  1969 ;;                  1    wreg      void 
  1970 ;; Registers used:
  1971 ;;		wreg, status,2, status,0, cstack
  1972 ;; Tracked objects:
  1973 ;;		On entry : 0/0
  1974 ;;		On exit  : 0/0
  1975 ;;		Unchanged: 0/0
  1976 ;; Data sizes:     COMRAM   BANK0   BANK1   BANK2   BANK3   BANK4   BANK5   BANK6   BANK7   BANK8   BANK9  BANK10  BANK1
      +1  BANK12  BANK13  BANK14  BANK15
  1977 ;;      Params:         0       0       0       0       0       0       0       0       0       0       0       0       
      +0       0       0       0       0
  1978 ;;      Locals:         0       0       0       0       0       0       0       0       0       0       0       0       
      +0       0       0       0       0
  1979 ;;      Temps:          0       0       0       0       0       0       0       0       0       0       0       0       
      +0       0       0       0       0
  1980 ;;      Totals:         0       0       0       0       0       0       0       0       0       0       0       0       
      +0       0       0       0       0
  1981 ;;Total ram usage:        0 bytes
  1982 ;; Hardware stack levels used: 1
  1983 ;; Hardware stack levels required when called: 1
  1984 ;; This function calls:
  1985 ;;		_ADC_ISR
  1986 ;;		_CCP1_ISR
  1987 ;;		_CCP2_ISR
  1988 ;;		_EUSART_RX_ISR
  1989 ;;		_EUSART_TX_ISR
  1990 ;;		_INT0_ISR
  1991 ;;		_INT1_ISR
  1992 ;;		_INT2_ISR
  1993 ;;		_MSSP_I2C_BC_ISR
  1994 ;;		_MSSP_I2C_ISR
  1995 ;;		_MSSP_SPI_ISR
  1996 ;;		_RB4_ISR
  1997 ;;		_RB5_ISR
  1998 ;;		_RB6_ISR
  1999 ;;		_RB7_ISR
  2000 ;;		_TMR0_ISR
  2001 ;;		_TMR1_ISR
  2002 ;;		_TMR2_ISR
  2003 ;;		_TMR3_ISR
  2004 ;; This function is called by:
  2005 ;;		Interrupt level 2
  2006 ;; This function uses a non-reentrant model
  2007 ;;
  2008                           
  2009                           	psect	intcode
  2010   000008                     __pintcode:
  2011                           	callstack 0
  2012   000008                     _InterruptManager:
  2013                           	callstack 26
  2014                           
  2015                           ;incstack = 0
  2016   000008  827A               	bsf	int$flags,1,c	;set compiler interrupt flag (level 2)
  2017   00000A  ED0B  F008         	call	int_func,f	;refresh shadow registers
  2018                           
  2019                           	psect	intcode_body
  2020   001016                     __pintcode_body:
  2021                           	callstack 26
  2022   001016                     int_func:
  2023                           	callstack 26
  2024   001016  0006               	pop		; remove dummy address from shadow register refresh
  2025   001018                     
  2026                           ;MCAL_Layer/Interrupt/mcal_interrupt_manager.c: 34:     if((1 == INTCONbits.INT0IE) && (
      +                          1 == INTCONbits.INT0IF)){
  2027   001018  A8F2               	btfss	242,4,c	;volatile
  2028   00101A  EF11  F008         	goto	i2u227_41
  2029   00101E  EF13  F008         	goto	i2u227_40
  2030   001022                     i2u227_41:
  2031   001022  EF1C  F008         	goto	i2l1216
  2032   001026                     i2u227_40:
  2033   001026  A2F2               	btfss	242,1,c	;volatile
  2034   001028  EF18  F008         	goto	i2u228_41
  2035   00102C  EF1A  F008         	goto	i2u228_40
  2036   001030                     i2u228_41:
  2037   001030  EF1C  F008         	goto	i2l1216
  2038   001034                     i2u228_40:
  2039   001034                     
  2040                           ;MCAL_Layer/Interrupt/mcal_interrupt_manager.c: 35:         INT0_ISR();
  2041   001034  ECB0  F00D         	call	_INT0_ISR	;wreg free
  2042   001038                     i2l1216:
  2043                           
  2044                           ;MCAL_Layer/Interrupt/mcal_interrupt_manager.c: 38:     if((1 == INTCON3bits.INT1E) && (
      +                          1 == INTCON3bits.INT1F)){
  2045   001038  A6F0               	btfss	240,3,c	;volatile
  2046   00103A  EF21  F008         	goto	i2u229_41
  2047   00103E  EF23  F008         	goto	i2u229_40
  2048   001042                     i2u229_41:
  2049   001042  EF2C  F008         	goto	i2l1218
  2050   001046                     i2u229_40:
  2051   001046  A0F0               	btfss	240,0,c	;volatile
  2052   001048  EF28  F008         	goto	i2u230_41
  2053   00104C  EF2A  F008         	goto	i2u230_40
  2054   001050                     i2u230_41:
  2055   001050  EF2C  F008         	goto	i2l1218
  2056   001054                     i2u230_40:
  2057   001054                     
  2058                           ;MCAL_Layer/Interrupt/mcal_interrupt_manager.c: 39:         INT1_ISR();
  2059   001054  ECAE  F00D         	call	_INT1_ISR	;wreg free
  2060   001058                     i2l1218:
  2061                           
  2062                           ;MCAL_Layer/Interrupt/mcal_interrupt_manager.c: 42:     if((1 == INTCON3bits.INT2IE) && 
      +                          (1 == INTCON3bits.INT2IF)){
  2063   001058  A8F0               	btfss	240,4,c	;volatile
  2064   00105A  EF31  F008         	goto	i2u231_41
  2065   00105E  EF33  F008         	goto	i2u231_40
  2066   001062                     i2u231_41:
  2067   001062  EF3C  F008         	goto	i2l1220
  2068   001066                     i2u231_40:
  2069   001066  A2F0               	btfss	240,1,c	;volatile
  2070   001068  EF38  F008         	goto	i2u232_41
  2071   00106C  EF3A  F008         	goto	i2u232_40
  2072   001070                     i2u232_41:
  2073   001070  EF3C  F008         	goto	i2l1220
  2074   001074                     i2u232_40:
  2075   001074                     
  2076                           ;MCAL_Layer/Interrupt/mcal_interrupt_manager.c: 43:         INT2_ISR();
  2077   001074  ECAC  F00D         	call	_INT2_ISR	;wreg free
  2078   001078                     i2l1220:
  2079                           
  2080                           ;MCAL_Layer/Interrupt/mcal_interrupt_manager.c: 49:     if((1 == INTCONbits.RBIE) && (1 
      +                          == INTCONbits.RBIF) &&
  2081   001078  A6F2               	btfss	242,3,c	;volatile
  2082   00107A  EF41  F008         	goto	i2u233_41
  2083   00107E  EF43  F008         	goto	i2u233_40
  2084   001082                     i2u233_41:
  2085   001082  EF5E  F008         	goto	i2l1222
  2086   001086                     i2u233_40:
  2087   001086  A0F2               	btfss	242,0,c	;volatile
  2088   001088  EF48  F008         	goto	i2u234_41
  2089   00108C  EF4A  F008         	goto	i2u234_40
  2090   001090                     i2u234_41:
  2091   001090  EF5E  F008         	goto	i2l1222
  2092   001094                     i2u234_40:
  2093   001094  A881               	btfss	129,4,c	;volatile
  2094   001096  EF4F  F008         	goto	i2u235_41
  2095   00109A  EF51  F008         	goto	i2u235_40
  2096   00109E                     i2u235_41:
  2097   00109E  EF5E  F008         	goto	i2l1222
  2098   0010A2                     i2u235_40:
  2099   0010A2  0463               	decf	_RB4_Flag^0,w,c	;volatile
  2100   0010A4  A4D8               	btfss	status,2,c
  2101   0010A6  EF57  F008         	goto	i2u236_41
  2102   0010AA  EF59  F008         	goto	i2u236_40
  2103   0010AE                     i2u236_41:
  2104   0010AE  EF5E  F008         	goto	i2l1222
  2105   0010B2                     i2u236_40:
  2106   0010B2                     
  2107                           ;MCAL_Layer/Interrupt/mcal_interrupt_manager.c: 50:        (PORTBbits.RB4 == GPIO_HIGH) 
      +                          && (RB4_Flag == 1)){;MCAL_Layer/Interrupt/mcal_interrupt_manager.c: 51:         RB4_Flag
      +                           = 0;
  2108   0010B2  0E00               	movlw	0
  2109   0010B4  6E63               	movwf	_RB4_Flag^0,c	;volatile
  2110   0010B6                     
  2111                           ;MCAL_Layer/Interrupt/mcal_interrupt_manager.c: 52:         RB4_ISR(0);
  2112   0010B6  0E00               	movlw	0
  2113   0010B8  EC7D  F00D         	call	_RB4_ISR
  2114   0010BC                     i2l1222:
  2115                           
  2116                           ;MCAL_Layer/Interrupt/mcal_interrupt_manager.c: 55:     if((1 == INTCONbits.RBIE) && (1 
      +                          == INTCONbits.RBIF) &&
  2117   0010BC  A6F2               	btfss	242,3,c	;volatile
  2118   0010BE  EF63  F008         	goto	i2u237_41
  2119   0010C2  EF65  F008         	goto	i2u237_40
  2120   0010C6                     i2u237_41:
  2121   0010C6  EF80  F008         	goto	i2l1224
  2122   0010CA                     i2u237_40:
  2123   0010CA  A0F2               	btfss	242,0,c	;volatile
  2124   0010CC  EF6A  F008         	goto	i2u238_41
  2125   0010D0  EF6C  F008         	goto	i2u238_40
  2126   0010D4                     i2u238_41:
  2127   0010D4  EF80  F008         	goto	i2l1224
  2128   0010D8                     i2u238_40:
  2129   0010D8  B881               	btfsc	129,4,c	;volatile
  2130   0010DA  EF71  F008         	goto	i2u239_41
  2131   0010DE  EF73  F008         	goto	i2u239_40
  2132   0010E2                     i2u239_41:
  2133   0010E2  EF80  F008         	goto	i2l1224
  2134   0010E6                     i2u239_40:
  2135   0010E6  5063               	movf	_RB4_Flag^0,w,c	;volatile
  2136   0010E8  A4D8               	btfss	status,2,c
  2137   0010EA  EF79  F008         	goto	i2u240_41
  2138   0010EE  EF7B  F008         	goto	i2u240_40
  2139   0010F2                     i2u240_41:
  2140   0010F2  EF80  F008         	goto	i2l1224
  2141   0010F6                     i2u240_40:
  2142   0010F6                     
  2143                           ;MCAL_Layer/Interrupt/mcal_interrupt_manager.c: 56:        (PORTBbits.RB4 == GPIO_LOW) &
      +                          & (RB4_Flag == 0)){;MCAL_Layer/Interrupt/mcal_interrupt_manager.c: 57:         RB4_Flag 
      +                          = 1;
  2144   0010F6  0E01               	movlw	1
  2145   0010F8  6E63               	movwf	_RB4_Flag^0,c	;volatile
  2146   0010FA                     
  2147                           ;MCAL_Layer/Interrupt/mcal_interrupt_manager.c: 58:         RB4_ISR(1);
  2148   0010FA  0E01               	movlw	1
  2149   0010FC  EC7D  F00D         	call	_RB4_ISR
  2150   001100                     i2l1224:
  2151                           
  2152                           ;MCAL_Layer/Interrupt/mcal_interrupt_manager.c: 61:     if((1 == INTCONbits.RBIE) && (1 
      +                          == INTCONbits.RBIF) &&
  2153   001100  A6F2               	btfss	242,3,c	;volatile
  2154   001102  EF85  F008         	goto	i2u241_41
  2155   001106  EF87  F008         	goto	i2u241_40
  2156   00110A                     i2u241_41:
  2157   00110A  EFA2  F008         	goto	i2l1226
  2158   00110E                     i2u241_40:
  2159   00110E  A0F2               	btfss	242,0,c	;volatile
  2160   001110  EF8C  F008         	goto	i2u242_41
  2161   001114  EF8E  F008         	goto	i2u242_40
  2162   001118                     i2u242_41:
  2163   001118  EFA2  F008         	goto	i2l1226
  2164   00111C                     i2u242_40:
  2165   00111C  AA81               	btfss	129,5,c	;volatile
  2166   00111E  EF93  F008         	goto	i2u243_41
  2167   001122  EF95  F008         	goto	i2u243_40
  2168   001126                     i2u243_41:
  2169   001126  EFA2  F008         	goto	i2l1226
  2170   00112A                     i2u243_40:
  2171   00112A  0462               	decf	_RB5_Flag^0,w,c	;volatile
  2172   00112C  A4D8               	btfss	status,2,c
  2173   00112E  EF9B  F008         	goto	i2u244_41
  2174   001132  EF9D  F008         	goto	i2u244_40
  2175   001136                     i2u244_41:
  2176   001136  EFA2  F008         	goto	i2l1226
  2177   00113A                     i2u244_40:
  2178   00113A                     
  2179                           ;MCAL_Layer/Interrupt/mcal_interrupt_manager.c: 62:        (PORTBbits.RB5 == GPIO_HIGH) 
      +                          && (RB5_Flag == 1)){;MCAL_Layer/Interrupt/mcal_interrupt_manager.c: 63:         RB5_Flag
      +                           = 0;
  2180   00113A  0E00               	movlw	0
  2181   00113C  6E62               	movwf	_RB5_Flag^0,c	;volatile
  2182   00113E                     
  2183                           ;MCAL_Layer/Interrupt/mcal_interrupt_manager.c: 64:         RB5_ISR(0);
  2184   00113E  0E00               	movlw	0
  2185   001140  EC70  F00D         	call	_RB5_ISR
  2186   001144                     i2l1226:
  2187                           
  2188                           ;MCAL_Layer/Interrupt/mcal_interrupt_manager.c: 67:     if((1 == INTCONbits.RBIE) && (1 
      +                          == INTCONbits.RBIF) &&
  2189   001144  A6F2               	btfss	242,3,c	;volatile
  2190   001146  EFA7  F008         	goto	i2u245_41
  2191   00114A  EFA9  F008         	goto	i2u245_40
  2192   00114E                     i2u245_41:
  2193   00114E  EFC4  F008         	goto	i2l1228
  2194   001152                     i2u245_40:
  2195   001152  A0F2               	btfss	242,0,c	;volatile
  2196   001154  EFAE  F008         	goto	i2u246_41
  2197   001158  EFB0  F008         	goto	i2u246_40
  2198   00115C                     i2u246_41:
  2199   00115C  EFC4  F008         	goto	i2l1228
  2200   001160                     i2u246_40:
  2201   001160  BA81               	btfsc	129,5,c	;volatile
  2202   001162  EFB5  F008         	goto	i2u247_41
  2203   001166  EFB7  F008         	goto	i2u247_40
  2204   00116A                     i2u247_41:
  2205   00116A  EFC4  F008         	goto	i2l1228
  2206   00116E                     i2u247_40:
  2207   00116E  5062               	movf	_RB5_Flag^0,w,c	;volatile
  2208   001170  A4D8               	btfss	status,2,c
  2209   001172  EFBD  F008         	goto	i2u248_41
  2210   001176  EFBF  F008         	goto	i2u248_40
  2211   00117A                     i2u248_41:
  2212   00117A  EFC4  F008         	goto	i2l1228
  2213   00117E                     i2u248_40:
  2214   00117E                     
  2215                           ;MCAL_Layer/Interrupt/mcal_interrupt_manager.c: 68:        (PORTBbits.RB5 == GPIO_LOW) &
      +                          & (RB5_Flag == 0)){;MCAL_Layer/Interrupt/mcal_interrupt_manager.c: 69:         RB5_Flag 
      +                          = 1;
  2216   00117E  0E01               	movlw	1
  2217   001180  6E62               	movwf	_RB5_Flag^0,c	;volatile
  2218   001182                     
  2219                           ;MCAL_Layer/Interrupt/mcal_interrupt_manager.c: 70:         RB5_ISR(1);
  2220   001182  0E01               	movlw	1
  2221   001184  EC70  F00D         	call	_RB5_ISR
  2222   001188                     i2l1228:
  2223                           
  2224                           ;MCAL_Layer/Interrupt/mcal_interrupt_manager.c: 73:     if((1 == INTCONbits.RBIE) && (1 
      +                          == INTCONbits.RBIF) &&
  2225   001188  A6F2               	btfss	242,3,c	;volatile
  2226   00118A  EFC9  F008         	goto	i2u249_41
  2227   00118E  EFCB  F008         	goto	i2u249_40
  2228   001192                     i2u249_41:
  2229   001192  EFE6  F008         	goto	i2l1230
  2230   001196                     i2u249_40:
  2231   001196  A0F2               	btfss	242,0,c	;volatile
  2232   001198  EFD0  F008         	goto	i2u250_41
  2233   00119C  EFD2  F008         	goto	i2u250_40
  2234   0011A0                     i2u250_41:
  2235   0011A0  EFE6  F008         	goto	i2l1230
  2236   0011A4                     i2u250_40:
  2237   0011A4  AC81               	btfss	129,6,c	;volatile
  2238   0011A6  EFD7  F008         	goto	i2u251_41
  2239   0011AA  EFD9  F008         	goto	i2u251_40
  2240   0011AE                     i2u251_41:
  2241   0011AE  EFE6  F008         	goto	i2l1230
  2242   0011B2                     i2u251_40:
  2243   0011B2  0461               	decf	_RB6_Flag^0,w,c	;volatile
  2244   0011B4  A4D8               	btfss	status,2,c
  2245   0011B6  EFDF  F008         	goto	i2u252_41
  2246   0011BA  EFE1  F008         	goto	i2u252_40
  2247   0011BE                     i2u252_41:
  2248   0011BE  EFE6  F008         	goto	i2l1230
  2249   0011C2                     i2u252_40:
  2250   0011C2                     
  2251                           ;MCAL_Layer/Interrupt/mcal_interrupt_manager.c: 74:        (PORTBbits.RB6 == GPIO_HIGH) 
      +                          && (RB6_Flag == 1)){;MCAL_Layer/Interrupt/mcal_interrupt_manager.c: 75:         RB6_Flag
      +                           = 0;
  2252   0011C2  0E00               	movlw	0
  2253   0011C4  6E61               	movwf	_RB6_Flag^0,c	;volatile
  2254   0011C6                     
  2255                           ;MCAL_Layer/Interrupt/mcal_interrupt_manager.c: 76:         RB6_ISR(0);
  2256   0011C6  0E00               	movlw	0
  2257   0011C8  EC63  F00D         	call	_RB6_ISR
  2258   0011CC                     i2l1230:
  2259                           
  2260                           ;MCAL_Layer/Interrupt/mcal_interrupt_manager.c: 79:     if((1 == INTCONbits.RBIE) && (1 
      +                          == INTCONbits.RBIF) &&
  2261   0011CC  A6F2               	btfss	242,3,c	;volatile
  2262   0011CE  EFEB  F008         	goto	i2u253_41
  2263   0011D2  EFED  F008         	goto	i2u253_40
  2264   0011D6                     i2u253_41:
  2265   0011D6  EF08  F009         	goto	i2l1232
  2266   0011DA                     i2u253_40:
  2267   0011DA  A0F2               	btfss	242,0,c	;volatile
  2268   0011DC  EFF2  F008         	goto	i2u254_41
  2269   0011E0  EFF4  F008         	goto	i2u254_40
  2270   0011E4                     i2u254_41:
  2271   0011E4  EF08  F009         	goto	i2l1232
  2272   0011E8                     i2u254_40:
  2273   0011E8  BC81               	btfsc	129,6,c	;volatile
  2274   0011EA  EFF9  F008         	goto	i2u255_41
  2275   0011EE  EFFB  F008         	goto	i2u255_40
  2276   0011F2                     i2u255_41:
  2277   0011F2  EF08  F009         	goto	i2l1232
  2278   0011F6                     i2u255_40:
  2279   0011F6  5061               	movf	_RB6_Flag^0,w,c	;volatile
  2280   0011F8  A4D8               	btfss	status,2,c
  2281   0011FA  EF01  F009         	goto	i2u256_41
  2282   0011FE  EF03  F009         	goto	i2u256_40
  2283   001202                     i2u256_41:
  2284   001202  EF08  F009         	goto	i2l1232
  2285   001206                     i2u256_40:
  2286   001206                     
  2287                           ;MCAL_Layer/Interrupt/mcal_interrupt_manager.c: 80:        (PORTBbits.RB6 == GPIO_LOW) &
      +                          & (RB6_Flag == 0)){;MCAL_Layer/Interrupt/mcal_interrupt_manager.c: 81:         RB6_Flag 
      +                          = 1;
  2288   001206  0E01               	movlw	1
  2289   001208  6E61               	movwf	_RB6_Flag^0,c	;volatile
  2290   00120A                     
  2291                           ;MCAL_Layer/Interrupt/mcal_interrupt_manager.c: 82:         RB6_ISR(1);
  2292   00120A  0E01               	movlw	1
  2293   00120C  EC63  F00D         	call	_RB6_ISR
  2294   001210                     i2l1232:
  2295                           
  2296                           ;MCAL_Layer/Interrupt/mcal_interrupt_manager.c: 85:     if((1 == INTCONbits.RBIE) && (1 
      +                          == INTCONbits.RBIF) &&
  2297   001210  A6F2               	btfss	242,3,c	;volatile
  2298   001212  EF0D  F009         	goto	i2u257_41
  2299   001216  EF0F  F009         	goto	i2u257_40
  2300   00121A                     i2u257_41:
  2301   00121A  EF2A  F009         	goto	i2l1234
  2302   00121E                     i2u257_40:
  2303   00121E  A0F2               	btfss	242,0,c	;volatile
  2304   001220  EF14  F009         	goto	i2u258_41
  2305   001224  EF16  F009         	goto	i2u258_40
  2306   001228                     i2u258_41:
  2307   001228  EF2A  F009         	goto	i2l1234
  2308   00122C                     i2u258_40:
  2309   00122C  AE81               	btfss	129,7,c	;volatile
  2310   00122E  EF1B  F009         	goto	i2u259_41
  2311   001232  EF1D  F009         	goto	i2u259_40
  2312   001236                     i2u259_41:
  2313   001236  EF2A  F009         	goto	i2l1234
  2314   00123A                     i2u259_40:
  2315   00123A  0460               	decf	_RB7_Flag^0,w,c	;volatile
  2316   00123C  A4D8               	btfss	status,2,c
  2317   00123E  EF23  F009         	goto	i2u260_41
  2318   001242  EF25  F009         	goto	i2u260_40
  2319   001246                     i2u260_41:
  2320   001246  EF2A  F009         	goto	i2l1234
  2321   00124A                     i2u260_40:
  2322   00124A                     
  2323                           ;MCAL_Layer/Interrupt/mcal_interrupt_manager.c: 86:        (PORTBbits.RB7 == GPIO_HIGH) 
      +                          && (RB7_Flag == 1)){;MCAL_Layer/Interrupt/mcal_interrupt_manager.c: 87:         RB7_Flag
      +                           = 0;
  2324   00124A  0E00               	movlw	0
  2325   00124C  6E60               	movwf	_RB7_Flag^0,c	;volatile
  2326   00124E                     
  2327                           ;MCAL_Layer/Interrupt/mcal_interrupt_manager.c: 88:         RB7_ISR(0);
  2328   00124E  0E00               	movlw	0
  2329   001250  EC56  F00D         	call	_RB7_ISR
  2330   001254                     i2l1234:
  2331                           
  2332                           ;MCAL_Layer/Interrupt/mcal_interrupt_manager.c: 91:     if((1 == INTCONbits.RBIE) && (1 
      +                          == INTCONbits.RBIF) &&
  2333   001254  A6F2               	btfss	242,3,c	;volatile
  2334   001256  EF2F  F009         	goto	i2u261_41
  2335   00125A  EF31  F009         	goto	i2u261_40
  2336   00125E                     i2u261_41:
  2337   00125E  EF4C  F009         	goto	i2l1236
  2338   001262                     i2u261_40:
  2339   001262  A0F2               	btfss	242,0,c	;volatile
  2340   001264  EF36  F009         	goto	i2u262_41
  2341   001268  EF38  F009         	goto	i2u262_40
  2342   00126C                     i2u262_41:
  2343   00126C  EF4C  F009         	goto	i2l1236
  2344   001270                     i2u262_40:
  2345   001270  BE81               	btfsc	129,7,c	;volatile
  2346   001272  EF3D  F009         	goto	i2u263_41
  2347   001276  EF3F  F009         	goto	i2u263_40
  2348   00127A                     i2u263_41:
  2349   00127A  EF4C  F009         	goto	i2l1236
  2350   00127E                     i2u263_40:
  2351   00127E  5060               	movf	_RB7_Flag^0,w,c	;volatile
  2352   001280  A4D8               	btfss	status,2,c
  2353   001282  EF45  F009         	goto	i2u264_41
  2354   001286  EF47  F009         	goto	i2u264_40
  2355   00128A                     i2u264_41:
  2356   00128A  EF4C  F009         	goto	i2l1236
  2357   00128E                     i2u264_40:
  2358   00128E                     
  2359                           ;MCAL_Layer/Interrupt/mcal_interrupt_manager.c: 92:        (PORTBbits.RB7 == GPIO_LOW) &
      +                          & (RB7_Flag == 0)){;MCAL_Layer/Interrupt/mcal_interrupt_manager.c: 93:         RB7_Flag 
      +                          = 1;
  2360   00128E  0E01               	movlw	1
  2361   001290  6E60               	movwf	_RB7_Flag^0,c	;volatile
  2362   001292                     
  2363                           ;MCAL_Layer/Interrupt/mcal_interrupt_manager.c: 94:         RB7_ISR(1);
  2364   001292  0E01               	movlw	1
  2365   001294  EC56  F00D         	call	_RB7_ISR
  2366   001298                     i2l1236:
  2367                           
  2368                           ;MCAL_Layer/Interrupt/mcal_interrupt_manager.c: 99:     if((1 == PIE1bits.ADIE) && (1 ==
      +                           PIR1bits.ADIF)){
  2369   001298  AC9D               	btfss	157,6,c	;volatile
  2370   00129A  EF51  F009         	goto	i2u265_41
  2371   00129E  EF53  F009         	goto	i2u265_40
  2372   0012A2                     i2u265_41:
  2373   0012A2  EF5C  F009         	goto	i2l1238
  2374   0012A6                     i2u265_40:
  2375   0012A6  AC9E               	btfss	158,6,c	;volatile
  2376   0012A8  EF58  F009         	goto	i2u266_41
  2377   0012AC  EF5A  F009         	goto	i2u266_40
  2378   0012B0                     i2u266_41:
  2379   0012B0  EF5C  F009         	goto	i2l1238
  2380   0012B4                     i2u266_40:
  2381   0012B4                     
  2382                           ;MCAL_Layer/Interrupt/mcal_interrupt_manager.c: 100:         ADC_ISR();
  2383   0012B4  ECB8  F00D         	call	_ADC_ISR	;wreg free
  2384   0012B8                     i2l1238:
  2385                           
  2386                           ;MCAL_Layer/Interrupt/mcal_interrupt_manager.c: 104:     if((1 == INTCONbits.TMR0IE) && 
      +                          (1 == INTCONbits.TMR0IF)){
  2387   0012B8  AAF2               	btfss	242,5,c	;volatile
  2388   0012BA  EF61  F009         	goto	i2u267_41
  2389   0012BE  EF63  F009         	goto	i2u267_40
  2390   0012C2                     i2u267_41:
  2391   0012C2  EF6C  F009         	goto	i2l1240
  2392   0012C6                     i2u267_40:
  2393   0012C6  A4F2               	btfss	242,2,c	;volatile
  2394   0012C8  EF68  F009         	goto	i2u268_41
  2395   0012CC  EF6A  F009         	goto	i2u268_40
  2396   0012D0                     i2u268_41:
  2397   0012D0  EF6C  F009         	goto	i2l1240
  2398   0012D4                     i2u268_40:
  2399   0012D4                     
  2400                           ;MCAL_Layer/Interrupt/mcal_interrupt_manager.c: 105:         TMR0_ISR();
  2401   0012D4  EC96  F00D         	call	_TMR0_ISR	;wreg free
  2402   0012D8                     i2l1240:
  2403                           
  2404                           ;MCAL_Layer/Interrupt/mcal_interrupt_manager.c: 108:     if((1 == PIE1bits.TMR1IE) && (1
      +                           == PIR1bits.TMR1IF)){
  2405   0012D8  A09D               	btfss	157,0,c	;volatile
  2406   0012DA  EF71  F009         	goto	i2u269_41
  2407   0012DE  EF73  F009         	goto	i2u269_40
  2408   0012E2                     i2u269_41:
  2409   0012E2  EF7C  F009         	goto	i2l1242
  2410   0012E6                     i2u269_40:
  2411   0012E6  A09E               	btfss	158,0,c	;volatile
  2412   0012E8  EF78  F009         	goto	i2u270_41
  2413   0012EC  EF7A  F009         	goto	i2u270_40
  2414   0012F0                     i2u270_41:
  2415   0012F0  EF7C  F009         	goto	i2l1242
  2416   0012F4                     i2u270_40:
  2417   0012F4                     
  2418                           ;MCAL_Layer/Interrupt/mcal_interrupt_manager.c: 109:         TMR1_ISR();
  2419   0012F4  EC90  F00D         	call	_TMR1_ISR	;wreg free
  2420   0012F8                     i2l1242:
  2421                           
  2422                           ;MCAL_Layer/Interrupt/mcal_interrupt_manager.c: 112:     if((1 == PIE1bits.TMR2IE) && (1
      +                           == PIR1bits.TMR2IF)){
  2423   0012F8  A29D               	btfss	157,1,c	;volatile
  2424   0012FA  EF81  F009         	goto	i2u271_41
  2425   0012FE  EF83  F009         	goto	i2u271_40
  2426   001302                     i2u271_41:
  2427   001302  EF8C  F009         	goto	i2l1244
  2428   001306                     i2u271_40:
  2429   001306  A29E               	btfss	158,1,c	;volatile
  2430   001308  EF88  F009         	goto	i2u272_41
  2431   00130C  EF8A  F009         	goto	i2u272_40
  2432   001310                     i2u272_41:
  2433   001310  EF8C  F009         	goto	i2l1244
  2434   001314                     i2u272_40:
  2435   001314                     
  2436                           ;MCAL_Layer/Interrupt/mcal_interrupt_manager.c: 113:         TMR2_ISR();
  2437   001314  ECA1  F00D         	call	_TMR2_ISR	;wreg free
  2438   001318                     i2l1244:
  2439                           
  2440                           ;MCAL_Layer/Interrupt/mcal_interrupt_manager.c: 116:     if((1 == PIE2bits.TMR3IE) && (1
      +                           == PIR2bits.TMR3IF)){
  2441   001318  A2A0               	btfss	160,1,c	;volatile
  2442   00131A  EF91  F009         	goto	i2u273_41
  2443   00131E  EF93  F009         	goto	i2u273_40
  2444   001322                     i2u273_41:
  2445   001322  EF9C  F009         	goto	i2l1246
  2446   001326                     i2u273_40:
  2447   001326  A2A1               	btfss	161,1,c	;volatile
  2448   001328  EF98  F009         	goto	i2u274_41
  2449   00132C  EF9A  F009         	goto	i2u274_40
  2450   001330                     i2u274_41:
  2451   001330  EF9C  F009         	goto	i2l1246
  2452   001334                     i2u274_40:
  2453   001334                     
  2454                           ;MCAL_Layer/Interrupt/mcal_interrupt_manager.c: 117:         TMR3_ISR();
  2455   001334  EC8A  F00D         	call	_TMR3_ISR	;wreg free
  2456   001338                     i2l1246:
  2457                           
  2458                           ;MCAL_Layer/Interrupt/mcal_interrupt_manager.c: 121:     if((1 == PIE1bits.TXIE) && (1 =
      +                          = PIR1bits.TXIF)){
  2459   001338  A89D               	btfss	157,4,c	;volatile
  2460   00133A  EFA1  F009         	goto	i2u275_41
  2461   00133E  EFA3  F009         	goto	i2u275_40
  2462   001342                     i2u275_41:
  2463   001342  EFAC  F009         	goto	i2l1248
  2464   001346                     i2u275_40:
  2465   001346  A89E               	btfss	158,4,c	;volatile
  2466   001348  EFA8  F009         	goto	i2u276_41
  2467   00134C  EFAA  F009         	goto	i2u276_40
  2468   001350                     i2u276_41:
  2469   001350  EFAC  F009         	goto	i2l1248
  2470   001354                     i2u276_40:
  2471   001354                     
  2472                           ;MCAL_Layer/Interrupt/mcal_interrupt_manager.c: 122:         EUSART_TX_ISR();
  2473   001354  ECB2  F00D         	call	_EUSART_TX_ISR	;wreg free
  2474   001358                     i2l1248:
  2475                           
  2476                           ;MCAL_Layer/Interrupt/mcal_interrupt_manager.c: 125:     if((1 == PIE1bits.RCIE) && (1 =
      +                          = PIR1bits.RCIF)){
  2477   001358  AA9D               	btfss	157,5,c	;volatile
  2478   00135A  EFB1  F009         	goto	i2u277_41
  2479   00135E  EFB3  F009         	goto	i2u277_40
  2480   001362                     i2u277_41:
  2481   001362  EFBC  F009         	goto	i2l1250
  2482   001366                     i2u277_40:
  2483   001366  AA9E               	btfss	158,5,c	;volatile
  2484   001368  EFB8  F009         	goto	i2u278_41
  2485   00136C  EFBA  F009         	goto	i2u278_40
  2486   001370                     i2u278_41:
  2487   001370  EFBC  F009         	goto	i2l1250
  2488   001374                     i2u278_40:
  2489   001374                     
  2490                           ;MCAL_Layer/Interrupt/mcal_interrupt_manager.c: 126:         EUSART_RX_ISR();
  2491   001374  ECBD  F00D         	call	_EUSART_RX_ISR	;wreg free
  2492   001378                     i2l1250:
  2493                           
  2494                           ;MCAL_Layer/Interrupt/mcal_interrupt_manager.c: 131:     if((1 == PIE1bits.SSPIE) && (1 
      +                          == PIR1bits.SSPIF)){
  2495   001378  A69D               	btfss	157,3,c	;volatile
  2496   00137A  EFC1  F009         	goto	i2u279_41
  2497   00137E  EFC3  F009         	goto	i2u279_40
  2498   001382                     i2u279_41:
  2499   001382  EFCC  F009         	goto	i2l1252
  2500   001386                     i2u279_40:
  2501   001386  A69E               	btfss	158,3,c	;volatile
  2502   001388  EFC8  F009         	goto	i2u280_41
  2503   00138C  EFCA  F009         	goto	i2u280_40
  2504   001390                     i2u280_41:
  2505   001390  EFCC  F009         	goto	i2l1252
  2506   001394                     i2u280_40:
  2507   001394                     
  2508                           ;MCAL_Layer/Interrupt/mcal_interrupt_manager.c: 132:         MSSP_I2C_ISR();
  2509   001394  ECA8  F00D         	call	_MSSP_I2C_ISR	;wreg free
  2510   001398                     i2l1252:
  2511                           
  2512                           ;MCAL_Layer/Interrupt/mcal_interrupt_manager.c: 135:     if((1 == PIE2bits.BCLIE) && (1 
      +                          == PIR2bits.BCLIF)){
  2513   001398  A6A0               	btfss	160,3,c	;volatile
  2514   00139A  EFD1  F009         	goto	i2u281_41
  2515   00139E  EFD3  F009         	goto	i2u281_40
  2516   0013A2                     i2u281_41:
  2517   0013A2  EFDC  F009         	goto	i2l1254
  2518   0013A6                     i2u281_40:
  2519   0013A6  A6A1               	btfss	161,3,c	;volatile
  2520   0013A8  EFD8  F009         	goto	i2u282_41
  2521   0013AC  EFDA  F009         	goto	i2u282_40
  2522   0013B0                     i2u282_41:
  2523   0013B0  EFDC  F009         	goto	i2l1254
  2524   0013B4                     i2u282_40:
  2525   0013B4                     
  2526                           ;MCAL_Layer/Interrupt/mcal_interrupt_manager.c: 136:         MSSP_I2C_BC_ISR();
  2527   0013B4  ECAA  F00D         	call	_MSSP_I2C_BC_ISR	;wreg free
  2528   0013B8                     i2l1254:
  2529                           
  2530                           ;MCAL_Layer/Interrupt/mcal_interrupt_manager.c: 139:     if((1 == PIE1bits.SSPIE) && (1 
      +                          == PIR1bits.SSPIF)){
  2531   0013B8  A69D               	btfss	157,3,c	;volatile
  2532   0013BA  EFE1  F009         	goto	i2u283_41
  2533   0013BE  EFE3  F009         	goto	i2u283_40
  2534   0013C2                     i2u283_41:
  2535   0013C2  EFEC  F009         	goto	i2l1256
  2536   0013C6                     i2u283_40:
  2537   0013C6  A69E               	btfss	158,3,c	;volatile
  2538   0013C8  EFE8  F009         	goto	i2u284_41
  2539   0013CC  EFEA  F009         	goto	i2u284_40
  2540   0013D0                     i2u284_41:
  2541   0013D0  EFEC  F009         	goto	i2l1256
  2542   0013D4                     i2u284_40:
  2543   0013D4                     
  2544                           ;MCAL_Layer/Interrupt/mcal_interrupt_manager.c: 140:         MSSP_SPI_ISR();
  2545   0013D4  ECBC  F00D         	call	_MSSP_SPI_ISR	;wreg free
  2546   0013D8                     i2l1256:
  2547                           
  2548                           ;MCAL_Layer/Interrupt/mcal_interrupt_manager.c: 145:     if((1 == PIE1bits.CCP1IE) && (1
      +                           == PIR1bits.CCP1IF)){
  2549   0013D8  A49D               	btfss	157,2,c	;volatile
  2550   0013DA  EFF1  F009         	goto	i2u285_41
  2551   0013DE  EFF3  F009         	goto	i2u285_40
  2552   0013E2                     i2u285_41:
  2553   0013E2  EFFC  F009         	goto	i2l1258
  2554   0013E6                     i2u285_40:
  2555   0013E6  A49E               	btfss	158,2,c	;volatile
  2556   0013E8  EFF8  F009         	goto	i2u286_41
  2557   0013EC  EFFA  F009         	goto	i2u286_40
  2558   0013F0                     i2u286_41:
  2559   0013F0  EFFC  F009         	goto	i2l1258
  2560   0013F4                     i2u286_40:
  2561   0013F4                     
  2562                           ;MCAL_Layer/Interrupt/mcal_interrupt_manager.c: 146:         CCP1_ISR();
  2563   0013F4  ECB6  F00D         	call	_CCP1_ISR	;wreg free
  2564   0013F8                     i2l1258:
  2565                           
  2566                           ;MCAL_Layer/Interrupt/mcal_interrupt_manager.c: 149:     if((1 == PIE2bits.CCP2IE) && (1
      +                           == PIR2bits.CCP2IF)){
  2567   0013F8  A0A0               	btfss	160,0,c	;volatile
  2568   0013FA  EF01  F00A         	goto	i2u287_41
  2569   0013FE  EF03  F00A         	goto	i2u287_40
  2570   001402                     i2u287_41:
  2571   001402  EF0C  F00A         	goto	i2l1261
  2572   001406                     i2u287_40:
  2573   001406  A0A1               	btfss	161,0,c	;volatile
  2574   001408  EF08  F00A         	goto	i2u288_41
  2575   00140C  EF0A  F00A         	goto	i2u288_40
  2576   001410                     i2u288_41:
  2577   001410  EF0C  F00A         	goto	i2l1261
  2578   001414                     i2u288_40:
  2579   001414                     
  2580                           ;MCAL_Layer/Interrupt/mcal_interrupt_manager.c: 150:         CCP2_ISR();
  2581   001414  ECB4  F00D         	call	_CCP2_ISR	;wreg free
  2582   001418                     i2l1261:
  2583   001418  927A               	bcf	int$flags,1,c	;clear compiler interrupt flag (level 2)
  2584   00141A  0011               	retfie		f
  2585   00141C                     __end_of_InterruptManager:
  2586                           	callstack 0
  2587                           
  2588 ;; *************** function _TMR3_ISR *****************
  2589 ;; Defined at:
  2590 ;;		line 102 in file "MCAL_Layer/Timer3/hal_timr3.c"
  2591 ;; Parameters:    Size  Location     Type
  2592 ;;		None
  2593 ;; Auto vars:     Size  Location     Type
  2594 ;;		None
  2595 ;; Return value:  Size  Location     Type
  2596 ;;                  1    wreg      void 
  2597 ;; Registers used:
  2598 ;;		wreg, status,2
  2599 ;; Tracked objects:
  2600 ;;		On entry : 0/0
  2601 ;;		On exit  : 0/0
  2602 ;;		Unchanged: 0/0
  2603 ;; Data sizes:     COMRAM   BANK0   BANK1   BANK2   BANK3   BANK4   BANK5   BANK6   BANK7   BANK8   BANK9  BANK10  BANK1
      +1  BANK12  BANK13  BANK14  BANK15
  2604 ;;      Params:         0       0       0       0       0       0       0       0       0       0       0       0       
      +0       0       0       0       0
  2605 ;;      Locals:         0       0       0       0       0       0       0       0       0       0       0       0       
      +0       0       0       0       0
  2606 ;;      Temps:          0       0       0       0       0       0       0       0       0       0       0       0       
      +0       0       0       0       0
  2607 ;;      Totals:         0       0       0       0       0       0       0       0       0       0       0       0       
      +0       0       0       0       0
  2608 ;;Total ram usage:        0 bytes
  2609 ;; Hardware stack levels used: 1
  2610 ;; This function calls:
  2611 ;;		Nothing
  2612 ;; This function is called by:
  2613 ;;		_InterruptManager
  2614 ;; This function uses a non-reentrant model
  2615 ;;
  2616                           
  2617                           	psect	text13
  2618   001B14                     __ptext13:
  2619                           	callstack 0
  2620   001B14                     _TMR3_ISR:
  2621                           	callstack 26
  2622   001B14                     
  2623                           ;MCAL_Layer/Timer3/hal_timr3.c: 103:     (PIR2bits.TMR3IF = 0);
  2624   001B14  92A1               	bcf	161,1,c	;volatile
  2625   001B16                     
  2626                           ;MCAL_Layer/Timer3/hal_timr3.c: 104:     TMR3H = (timer3_preload) >> 8;
  2627   001B16  500A               	movf	(_timer3_preload+1)^0,w,c
  2628   001B18  6EB3               	movwf	179,c	;volatile
  2629   001B1A                     
  2630                           ;MCAL_Layer/Timer3/hal_timr3.c: 105:     TMR3L = (uint8)(timer3_preload);
  2631   001B1A  C009  FFB2         	movff	_timer3_preload,4018	;volatile
  2632   001B1E  0012               	return		;funcret
  2633   001B20                     __end_of_TMR3_ISR:
  2634                           	callstack 0
  2635                           
  2636 ;; *************** function _TMR2_ISR *****************
  2637 ;; Defined at:
  2638 ;;		line 95 in file "MCAL_Layer/Timer2/hal_timr2.c"
  2639 ;; Parameters:    Size  Location     Type
  2640 ;;		None
  2641 ;; Auto vars:     Size  Location     Type
  2642 ;;		None
  2643 ;; Return value:  Size  Location     Type
  2644 ;;                  1    wreg      void 
  2645 ;; Registers used:
  2646 ;;		None
  2647 ;; Tracked objects:
  2648 ;;		On entry : 0/0
  2649 ;;		On exit  : 0/0
  2650 ;;		Unchanged: 0/0
  2651 ;; Data sizes:     COMRAM   BANK0   BANK1   BANK2   BANK3   BANK4   BANK5   BANK6   BANK7   BANK8   BANK9  BANK10  BANK1
      +1  BANK12  BANK13  BANK14  BANK15
  2652 ;;      Params:         0       0       0       0       0       0       0       0       0       0       0       0       
      +0       0       0       0       0
  2653 ;;      Locals:         0       0       0       0       0       0       0       0       0       0       0       0       
      +0       0       0       0       0
  2654 ;;      Temps:          0       0       0       0       0       0       0       0       0       0       0       0       
      +0       0       0       0       0
  2655 ;;      Totals:         0       0       0       0       0       0       0       0       0       0       0       0       
      +0       0       0       0       0
  2656 ;;Total ram usage:        0 bytes
  2657 ;; Hardware stack levels used: 1
  2658 ;; This function calls:
  2659 ;;		Nothing
  2660 ;; This function is called by:
  2661 ;;		_InterruptManager
  2662 ;; This function uses a non-reentrant model
  2663 ;;
  2664                           
  2665                           	psect	text14
  2666   001B42                     __ptext14:
  2667                           	callstack 0
  2668   001B42                     _TMR2_ISR:
  2669                           	callstack 26
  2670   001B42                     
  2671                           ;MCAL_Layer/Timer2/hal_timr2.c: 96:     (PIR1bits.TMR2IF = 0);
  2672   001B42  929E               	bcf	158,1,c	;volatile
  2673                           
  2674                           ;MCAL_Layer/Timer2/hal_timr2.c: 97:     TMR2 = timer2_preload;
  2675   001B44  C039  FFCC         	movff	_timer2_preload,4044	;volatile
  2676   001B48  0012               	return		;funcret
  2677   001B4A                     __end_of_TMR2_ISR:
  2678                           	callstack 0
  2679                           
  2680 ;; *************** function _TMR1_ISR *****************
  2681 ;; Defined at:
  2682 ;;		line 102 in file "MCAL_Layer/Timer1/hal_timr1.c"
  2683 ;; Parameters:    Size  Location     Type
  2684 ;;		None
  2685 ;; Auto vars:     Size  Location     Type
  2686 ;;		None
  2687 ;; Return value:  Size  Location     Type
  2688 ;;                  1    wreg      void 
  2689 ;; Registers used:
  2690 ;;		wreg, status,2
  2691 ;; Tracked objects:
  2692 ;;		On entry : 0/0
  2693 ;;		On exit  : 0/0
  2694 ;;		Unchanged: 0/0
  2695 ;; Data sizes:     COMRAM   BANK0   BANK1   BANK2   BANK3   BANK4   BANK5   BANK6   BANK7   BANK8   BANK9  BANK10  BANK1
      +1  BANK12  BANK13  BANK14  BANK15
  2696 ;;      Params:         0       0       0       0       0       0       0       0       0       0       0       0       
      +0       0       0       0       0
  2697 ;;      Locals:         0       0       0       0       0       0       0       0       0       0       0       0       
      +0       0       0       0       0
  2698 ;;      Temps:          0       0       0       0       0       0       0       0       0       0       0       0       
      +0       0       0       0       0
  2699 ;;      Totals:         0       0       0       0       0       0       0       0       0       0       0       0       
      +0       0       0       0       0
  2700 ;;Total ram usage:        0 bytes
  2701 ;; Hardware stack levels used: 1
  2702 ;; This function calls:
  2703 ;;		Nothing
  2704 ;; This function is called by:
  2705 ;;		_InterruptManager
  2706 ;; This function uses a non-reentrant model
  2707 ;;
  2708                           
  2709                           	psect	text15
  2710   001B20                     __ptext15:
  2711                           	callstack 0
  2712   001B20                     _TMR1_ISR:
  2713                           	callstack 26
  2714   001B20                     
  2715                           ;MCAL_Layer/Timer1/hal_timr1.c: 103:     (PIR1bits.TMR1IF = 0);
  2716   001B20  909E               	bcf	158,0,c	;volatile
  2717   001B22                     
  2718                           ;MCAL_Layer/Timer1/hal_timr1.c: 104:     TMR1H = (timer1_preload) >> 8;
  2719   001B22  5010               	movf	(_timer1_preload+1)^0,w,c	;volatile
  2720   001B24  6ECF               	movwf	207,c	;volatile
  2721   001B26                     
  2722                           ;MCAL_Layer/Timer1/hal_timr1.c: 105:     TMR1L = (uint8)(timer1_preload);
  2723   001B26  C00F  FFCE         	movff	_timer1_preload,4046	;volatile
  2724   001B2A  0012               	return		;funcret
  2725   001B2C                     __end_of_TMR1_ISR:
  2726                           	callstack 0
  2727                           
  2728 ;; *************** function _TMR0_ISR *****************
  2729 ;; Defined at:
  2730 ;;		line 107 in file "MCAL_Layer/Timer0/hal_timr0.c"
  2731 ;; Parameters:    Size  Location     Type
  2732 ;;		None
  2733 ;; Auto vars:     Size  Location     Type
  2734 ;;		None
  2735 ;; Return value:  Size  Location     Type
  2736 ;;                  1    wreg      void 
  2737 ;; Registers used:
  2738 ;;		wreg, status,2
  2739 ;; Tracked objects:
  2740 ;;		On entry : 0/0
  2741 ;;		On exit  : 0/0
  2742 ;;		Unchanged: 0/0
  2743 ;; Data sizes:     COMRAM   BANK0   BANK1   BANK2   BANK3   BANK4   BANK5   BANK6   BANK7   BANK8   BANK9  BANK10  BANK1
      +1  BANK12  BANK13  BANK14  BANK15
  2744 ;;      Params:         0       0       0       0       0       0       0       0       0       0       0       0       
      +0       0       0       0       0
  2745 ;;      Locals:         0       0       0       0       0       0       0       0       0       0       0       0       
      +0       0       0       0       0
  2746 ;;      Temps:          0       0       0       0       0       0       0       0       0       0       0       0       
      +0       0       0       0       0
  2747 ;;      Totals:         0       0       0       0       0       0       0       0       0       0       0       0       
      +0       0       0       0       0
  2748 ;;Total ram usage:        0 bytes
  2749 ;; Hardware stack levels used: 1
  2750 ;; This function calls:
  2751 ;;		Nothing
  2752 ;; This function is called by:
  2753 ;;		_InterruptManager
  2754 ;; This function uses a non-reentrant model
  2755 ;;
  2756                           
  2757                           	psect	text16
  2758   001B2C                     __ptext16:
  2759                           	callstack 0
  2760   001B2C                     _TMR0_ISR:
  2761                           	callstack 26
  2762   001B2C                     
  2763                           ;MCAL_Layer/Timer0/hal_timr0.c: 108:     (INTCONbits.TMR0IF = 0);
  2764   001B2C  94F2               	bcf	242,2,c	;volatile
  2765   001B2E                     
  2766                           ;MCAL_Layer/Timer0/hal_timr0.c: 109:     TMR0H = (timer0_preload) >> 8;
  2767   001B2E  5014               	movf	(_timer0_preload+1)^0,w,c
  2768   001B30  6ED7               	movwf	215,c	;volatile
  2769   001B32                     
  2770                           ;MCAL_Layer/Timer0/hal_timr0.c: 110:     TMR0L = (uint8)(timer0_preload);
  2771   001B32  C013  FFD6         	movff	_timer0_preload,4054	;volatile
  2772   001B36  0012               	return		;funcret
  2773   001B38                     __end_of_TMR0_ISR:
  2774                           	callstack 0
  2775                           
  2776 ;; *************** function _RB7_ISR *****************
  2777 ;; Defined at:
  2778 ;;		line 168 in file "MCAL_Layer/Interrupt/mcal_external_interrupt.c"
  2779 ;; Parameters:    Size  Location     Type
  2780 ;;  RB7_Source      1    wreg     unsigned char 
  2781 ;; Auto vars:     Size  Location     Type
  2782 ;;  RB7_Source      1    0[COMRAM] unsigned char 
  2783 ;; Return value:  Size  Location     Type
  2784 ;;                  1    wreg      void 
  2785 ;; Registers used:
  2786 ;;		wreg, status,2, status,0
  2787 ;; Tracked objects:
  2788 ;;		On entry : 0/0
  2789 ;;		On exit  : 0/0
  2790 ;;		Unchanged: 0/0
  2791 ;; Data sizes:     COMRAM   BANK0   BANK1   BANK2   BANK3   BANK4   BANK5   BANK6   BANK7   BANK8   BANK9  BANK10  BANK1
      +1  BANK12  BANK13  BANK14  BANK15
  2792 ;;      Params:         0       0       0       0       0       0       0       0       0       0       0       0       
      +0       0       0       0       0
  2793 ;;      Locals:         1       0       0       0       0       0       0       0       0       0       0       0       
      +0       0       0       0       0
  2794 ;;      Temps:          0       0       0       0       0       0       0       0       0       0       0       0       
      +0       0       0       0       0
  2795 ;;      Totals:         1       0       0       0       0       0       0       0       0       0       0       0       
      +0       0       0       0       0
  2796 ;;Total ram usage:        1 bytes
  2797 ;; Hardware stack levels used: 1
  2798 ;; This function calls:
  2799 ;;		Nothing
  2800 ;; This function is called by:
  2801 ;;		_InterruptManager
  2802 ;; This function uses a non-reentrant model
  2803 ;;
  2804                           
  2805                           	psect	text17
  2806   001AAC                     __ptext17:
  2807                           	callstack 0
  2808   001AAC                     _RB7_ISR:
  2809                           	callstack 26
  2810                           
  2811                           ;incstack = 0
  2812                           ;RB7_ISR@RB7_Source stored from wreg
  2813   001AAC  6E64               	movwf	RB7_ISR@RB7_Source^0,c
  2814   001AAE                     
  2815                           ;MCAL_Layer/Interrupt/mcal_external_interrupt.c: 170:     (INTCONbits.RBIF = 0);
  2816   001AAE  90F2               	bcf	242,0,c	;volatile
  2817   001AB0                     
  2818                           ;MCAL_Layer/Interrupt/mcal_external_interrupt.c: 173:     if(0 == RB7_Source){
  2819   001AB0  5064               	movf	RB7_ISR@RB7_Source^0,w,c
  2820   001AB2  A4D8               	btfss	status,2,c
  2821   001AB4  EF5E  F00D         	goto	i2u39_41
  2822   001AB8  EF60  F00D         	goto	i2u39_40
  2823   001ABC                     i2u39_41:
  2824   001ABC  EF62  F00D         	goto	i2l2822
  2825   001AC0                     i2u39_40:
  2826   001AC0  EF62  F00D         	goto	i2l1041
  2827   001AC4                     i2l2822:
  2828   001AC4                     i2l1041:
  2829   001AC4  0012               	return		;funcret
  2830   001AC6                     __end_of_RB7_ISR:
  2831                           	callstack 0
  2832                           
  2833 ;; *************** function _RB6_ISR *****************
  2834 ;; Defined at:
  2835 ;;		line 149 in file "MCAL_Layer/Interrupt/mcal_external_interrupt.c"
  2836 ;; Parameters:    Size  Location     Type
  2837 ;;  RB6_Source      1    wreg     unsigned char 
  2838 ;; Auto vars:     Size  Location     Type
  2839 ;;  RB6_Source      1    0[COMRAM] unsigned char 
  2840 ;; Return value:  Size  Location     Type
  2841 ;;                  1    wreg      void 
  2842 ;; Registers used:
  2843 ;;		wreg, status,2, status,0
  2844 ;; Tracked objects:
  2845 ;;		On entry : 0/0
  2846 ;;		On exit  : 0/0
  2847 ;;		Unchanged: 0/0
  2848 ;; Data sizes:     COMRAM   BANK0   BANK1   BANK2   BANK3   BANK4   BANK5   BANK6   BANK7   BANK8   BANK9  BANK10  BANK1
      +1  BANK12  BANK13  BANK14  BANK15
  2849 ;;      Params:         0       0       0       0       0       0       0       0       0       0       0       0       
      +0       0       0       0       0
  2850 ;;      Locals:         1       0       0       0       0       0       0       0       0       0       0       0       
      +0       0       0       0       0
  2851 ;;      Temps:          0       0       0       0       0       0       0       0       0       0       0       0       
      +0       0       0       0       0
  2852 ;;      Totals:         1       0       0       0       0       0       0       0       0       0       0       0       
      +0       0       0       0       0
  2853 ;;Total ram usage:        1 bytes
  2854 ;; Hardware stack levels used: 1
  2855 ;; This function calls:
  2856 ;;		Nothing
  2857 ;; This function is called by:
  2858 ;;		_InterruptManager
  2859 ;; This function uses a non-reentrant model
  2860 ;;
  2861                           
  2862                           	psect	text18
  2863   001AC6                     __ptext18:
  2864                           	callstack 0
  2865   001AC6                     _RB6_ISR:
  2866                           	callstack 26
  2867                           
  2868                           ;incstack = 0
  2869                           ;RB6_ISR@RB6_Source stored from wreg
  2870   001AC6  6E64               	movwf	RB6_ISR@RB6_Source^0,c
  2871   001AC8                     
  2872                           ;MCAL_Layer/Interrupt/mcal_external_interrupt.c: 151:     (INTCONbits.RBIF = 0);
  2873   001AC8  90F2               	bcf	242,0,c	;volatile
  2874   001ACA                     
  2875                           ;MCAL_Layer/Interrupt/mcal_external_interrupt.c: 154:     if(0 == RB6_Source){
  2876   001ACA  5064               	movf	RB6_ISR@RB6_Source^0,w,c
  2877   001ACC  A4D8               	btfss	status,2,c
  2878   001ACE  EF6B  F00D         	goto	i2u38_41
  2879   001AD2  EF6D  F00D         	goto	i2u38_40
  2880   001AD6                     i2u38_41:
  2881   001AD6  EF6F  F00D         	goto	i2l2808
  2882   001ADA                     i2u38_40:
  2883   001ADA  EF6F  F00D         	goto	i2l1030
  2884   001ADE                     i2l2808:
  2885   001ADE                     i2l1030:
  2886   001ADE  0012               	return		;funcret
  2887   001AE0                     __end_of_RB6_ISR:
  2888                           	callstack 0
  2889                           
  2890 ;; *************** function _RB5_ISR *****************
  2891 ;; Defined at:
  2892 ;;		line 130 in file "MCAL_Layer/Interrupt/mcal_external_interrupt.c"
  2893 ;; Parameters:    Size  Location     Type
  2894 ;;  RB5_Source      1    wreg     unsigned char 
  2895 ;; Auto vars:     Size  Location     Type
  2896 ;;  RB5_Source      1    0[COMRAM] unsigned char 
  2897 ;; Return value:  Size  Location     Type
  2898 ;;                  1    wreg      void 
  2899 ;; Registers used:
  2900 ;;		wreg, status,2, status,0
  2901 ;; Tracked objects:
  2902 ;;		On entry : 0/0
  2903 ;;		On exit  : 0/0
  2904 ;;		Unchanged: 0/0
  2905 ;; Data sizes:     COMRAM   BANK0   BANK1   BANK2   BANK3   BANK4   BANK5   BANK6   BANK7   BANK8   BANK9  BANK10  BANK1
      +1  BANK12  BANK13  BANK14  BANK15
  2906 ;;      Params:         0       0       0       0       0       0       0       0       0       0       0       0       
      +0       0       0       0       0
  2907 ;;      Locals:         1       0       0       0       0       0       0       0       0       0       0       0       
      +0       0       0       0       0
  2908 ;;      Temps:          0       0       0       0       0       0       0       0       0       0       0       0       
      +0       0       0       0       0
  2909 ;;      Totals:         1       0       0       0       0       0       0       0       0       0       0       0       
      +0       0       0       0       0
  2910 ;;Total ram usage:        1 bytes
  2911 ;; Hardware stack levels used: 1
  2912 ;; This function calls:
  2913 ;;		Nothing
  2914 ;; This function is called by:
  2915 ;;		_InterruptManager
  2916 ;; This function uses a non-reentrant model
  2917 ;;
  2918                           
  2919                           	psect	text19
  2920   001AE0                     __ptext19:
  2921                           	callstack 0
  2922   001AE0                     _RB5_ISR:
  2923                           	callstack 26
  2924                           
  2925                           ;incstack = 0
  2926                           ;RB5_ISR@RB5_Source stored from wreg
  2927   001AE0  6E64               	movwf	RB5_ISR@RB5_Source^0,c
  2928   001AE2                     
  2929                           ;MCAL_Layer/Interrupt/mcal_external_interrupt.c: 132:     (INTCONbits.RBIF = 0);
  2930   001AE2  90F2               	bcf	242,0,c	;volatile
  2931   001AE4                     
  2932                           ;MCAL_Layer/Interrupt/mcal_external_interrupt.c: 135:     if(0 == RB5_Source){
  2933   001AE4  5064               	movf	RB5_ISR@RB5_Source^0,w,c
  2934   001AE6  A4D8               	btfss	status,2,c
  2935   001AE8  EF78  F00D         	goto	i2u37_41
  2936   001AEC  EF7A  F00D         	goto	i2u37_40
  2937   001AF0                     i2u37_41:
  2938   001AF0  EF7C  F00D         	goto	i2l2794
  2939   001AF4                     i2u37_40:
  2940   001AF4  EF7C  F00D         	goto	i2l1019
  2941   001AF8                     i2l2794:
  2942   001AF8                     i2l1019:
  2943   001AF8  0012               	return		;funcret
  2944   001AFA                     __end_of_RB5_ISR:
  2945                           	callstack 0
  2946                           
  2947 ;; *************** function _RB4_ISR *****************
  2948 ;; Defined at:
  2949 ;;		line 111 in file "MCAL_Layer/Interrupt/mcal_external_interrupt.c"
  2950 ;; Parameters:    Size  Location     Type
  2951 ;;  RB4_Source      1    wreg     unsigned char 
  2952 ;; Auto vars:     Size  Location     Type
  2953 ;;  RB4_Source      1    0[COMRAM] unsigned char 
  2954 ;; Return value:  Size  Location     Type
  2955 ;;                  1    wreg      void 
  2956 ;; Registers used:
  2957 ;;		wreg, status,2, status,0
  2958 ;; Tracked objects:
  2959 ;;		On entry : 0/0
  2960 ;;		On exit  : 0/0
  2961 ;;		Unchanged: 0/0
  2962 ;; Data sizes:     COMRAM   BANK0   BANK1   BANK2   BANK3   BANK4   BANK5   BANK6   BANK7   BANK8   BANK9  BANK10  BANK1
      +1  BANK12  BANK13  BANK14  BANK15
  2963 ;;      Params:         0       0       0       0       0       0       0       0       0       0       0       0       
      +0       0       0       0       0
  2964 ;;      Locals:         1       0       0       0       0       0       0       0       0       0       0       0       
      +0       0       0       0       0
  2965 ;;      Temps:          0       0       0       0       0       0       0       0       0       0       0       0       
      +0       0       0       0       0
  2966 ;;      Totals:         1       0       0       0       0       0       0       0       0       0       0       0       
      +0       0       0       0       0
  2967 ;;Total ram usage:        1 bytes
  2968 ;; Hardware stack levels used: 1
  2969 ;; This function calls:
  2970 ;;		Nothing
  2971 ;; This function is called by:
  2972 ;;		_InterruptManager
  2973 ;; This function uses a non-reentrant model
  2974 ;;
  2975                           
  2976                           	psect	text20
  2977   001AFA                     __ptext20:
  2978                           	callstack 0
  2979   001AFA                     _RB4_ISR:
  2980                           	callstack 26
  2981                           
  2982                           ;incstack = 0
  2983                           ;RB4_ISR@RB4_Source stored from wreg
  2984   001AFA  6E64               	movwf	RB4_ISR@RB4_Source^0,c
  2985   001AFC                     
  2986                           ;MCAL_Layer/Interrupt/mcal_external_interrupt.c: 113:     (INTCONbits.RBIF = 0);
  2987   001AFC  90F2               	bcf	242,0,c	;volatile
  2988   001AFE                     
  2989                           ;MCAL_Layer/Interrupt/mcal_external_interrupt.c: 116:     if(0 == RB4_Source){
  2990   001AFE  5064               	movf	RB4_ISR@RB4_Source^0,w,c
  2991   001B00  A4D8               	btfss	status,2,c
  2992   001B02  EF85  F00D         	goto	i2u36_41
  2993   001B06  EF87  F00D         	goto	i2u36_40
  2994   001B0A                     i2u36_41:
  2995   001B0A  EF89  F00D         	goto	i2l2780
  2996   001B0E                     i2u36_40:
  2997   001B0E  EF89  F00D         	goto	i2l1008
  2998   001B12                     i2l2780:
  2999   001B12                     i2l1008:
  3000   001B12  0012               	return		;funcret
  3001   001B14                     __end_of_RB4_ISR:
  3002                           	callstack 0
  3003                           
  3004 ;; *************** function _MSSP_SPI_ISR *****************
  3005 ;; Defined at:
  3006 ;;		line 105 in file "MCAL_Layer/SPI/hal_spi.c"
  3007 ;; Parameters:    Size  Location     Type
  3008 ;;		None
  3009 ;; Auto vars:     Size  Location     Type
  3010 ;;		None
  3011 ;; Return value:  Size  Location     Type
  3012 ;;                  1    wreg      void 
  3013 ;; Registers used:
  3014 ;;		None
  3015 ;; Tracked objects:
  3016 ;;		On entry : 0/0
  3017 ;;		On exit  : 0/0
  3018 ;;		Unchanged: 0/0
  3019 ;; Data sizes:     COMRAM   BANK0   BANK1   BANK2   BANK3   BANK4   BANK5   BANK6   BANK7   BANK8   BANK9  BANK10  BANK1
      +1  BANK12  BANK13  BANK14  BANK15
  3020 ;;      Params:         0       0       0       0       0       0       0       0       0       0       0       0       
      +0       0       0       0       0
  3021 ;;      Locals:         0       0       0       0       0       0       0       0       0       0       0       0       
      +0       0       0       0       0
  3022 ;;      Temps:          0       0       0       0       0       0       0       0       0       0       0       0       
      +0       0       0       0       0
  3023 ;;      Totals:         0       0       0       0       0       0       0       0       0       0       0       0       
      +0       0       0       0       0
  3024 ;;Total ram usage:        0 bytes
  3025 ;; Hardware stack levels used: 1
  3026 ;; This function calls:
  3027 ;;		Nothing
  3028 ;; This function is called by:
  3029 ;;		_InterruptManager
  3030 ;; This function uses a non-reentrant model
  3031 ;;
  3032                           
  3033                           	psect	text21
  3034   001B78                     __ptext21:
  3035                           	callstack 0
  3036   001B78                     _MSSP_SPI_ISR:
  3037                           	callstack 26
  3038   001B78  0012               	return		;funcret
  3039   001B7A                     __end_of_MSSP_SPI_ISR:
  3040                           	callstack 0
  3041                           
  3042 ;; *************** function _MSSP_I2C_ISR *****************
  3043 ;; Defined at:
  3044 ;;		line 242 in file "MCAL_Layer/I2C/hal_i2c.c"
  3045 ;; Parameters:    Size  Location     Type
  3046 ;;		None
  3047 ;; Auto vars:     Size  Location     Type
  3048 ;;		None
  3049 ;; Return value:  Size  Location     Type
  3050 ;;                  1    wreg      void 
  3051 ;; Registers used:
  3052 ;;		None
  3053 ;; Tracked objects:
  3054 ;;		On entry : 0/0
  3055 ;;		On exit  : 0/0
  3056 ;;		Unchanged: 0/0
  3057 ;; Data sizes:     COMRAM   BANK0   BANK1   BANK2   BANK3   BANK4   BANK5   BANK6   BANK7   BANK8   BANK9  BANK10  BANK1
      +1  BANK12  BANK13  BANK14  BANK15
  3058 ;;      Params:         0       0       0       0       0       0       0       0       0       0       0       0       
      +0       0       0       0       0
  3059 ;;      Locals:         0       0       0       0       0       0       0       0       0       0       0       0       
      +0       0       0       0       0
  3060 ;;      Temps:          0       0       0       0       0       0       0       0       0       0       0       0       
      +0       0       0       0       0
  3061 ;;      Totals:         0       0       0       0       0       0       0       0       0       0       0       0       
      +0       0       0       0       0
  3062 ;;Total ram usage:        0 bytes
  3063 ;; Hardware stack levels used: 1
  3064 ;; This function calls:
  3065 ;;		Nothing
  3066 ;; This function is called by:
  3067 ;;		_InterruptManager
  3068 ;; This function uses a non-reentrant model
  3069 ;;
  3070                           
  3071                           	psect	text22
  3072   001B50                     __ptext22:
  3073                           	callstack 0
  3074   001B50                     _MSSP_I2C_ISR:
  3075                           	callstack 26
  3076   001B50                     
  3077                           ;MCAL_Layer/I2C/hal_i2c.c: 244:     (PIR1bits.SSPIF = 0);
  3078   001B50  969E               	bcf	158,3,c	;volatile
  3079   001B52  0012               	return		;funcret
  3080   001B54                     __end_of_MSSP_I2C_ISR:
  3081                           	callstack 0
  3082                           
  3083 ;; *************** function _MSSP_I2C_BC_ISR *****************
  3084 ;; Defined at:
  3085 ;;		line 251 in file "MCAL_Layer/I2C/hal_i2c.c"
  3086 ;; Parameters:    Size  Location     Type
  3087 ;;		None
  3088 ;; Auto vars:     Size  Location     Type
  3089 ;;		None
  3090 ;; Return value:  Size  Location     Type
  3091 ;;                  1    wreg      void 
  3092 ;; Registers used:
  3093 ;;		None
  3094 ;; Tracked objects:
  3095 ;;		On entry : 0/0
  3096 ;;		On exit  : 0/0
  3097 ;;		Unchanged: 0/0
  3098 ;; Data sizes:     COMRAM   BANK0   BANK1   BANK2   BANK3   BANK4   BANK5   BANK6   BANK7   BANK8   BANK9  BANK10  BANK1
      +1  BANK12  BANK13  BANK14  BANK15
  3099 ;;      Params:         0       0       0       0       0       0       0       0       0       0       0       0       
      +0       0       0       0       0
  3100 ;;      Locals:         0       0       0       0       0       0       0       0       0       0       0       0       
      +0       0       0       0       0
  3101 ;;      Temps:          0       0       0       0       0       0       0       0       0       0       0       0       
      +0       0       0       0       0
  3102 ;;      Totals:         0       0       0       0       0       0       0       0       0       0       0       0       
      +0       0       0       0       0
  3103 ;;Total ram usage:        0 bytes
  3104 ;; Hardware stack levels used: 1
  3105 ;; This function calls:
  3106 ;;		Nothing
  3107 ;; This function is called by:
  3108 ;;		_InterruptManager
  3109 ;; This function uses a non-reentrant model
  3110 ;;
  3111                           
  3112                           	psect	text23
  3113   001B54                     __ptext23:
  3114                           	callstack 0
  3115   001B54                     _MSSP_I2C_BC_ISR:
  3116                           	callstack 26
  3117   001B54                     
  3118                           ;MCAL_Layer/I2C/hal_i2c.c: 253:     (PIR2bits.BCLIF = 0);
  3119   001B54  96A1               	bcf	161,3,c	;volatile
  3120   001B56  0012               	return		;funcret
  3121   001B58                     __end_of_MSSP_I2C_BC_ISR:
  3122                           	callstack 0
  3123                           
  3124 ;; *************** function _INT2_ISR *****************
  3125 ;; Defined at:
  3126 ;;		line 99 in file "MCAL_Layer/Interrupt/mcal_external_interrupt.c"
  3127 ;; Parameters:    Size  Location     Type
  3128 ;;		None
  3129 ;; Auto vars:     Size  Location     Type
  3130 ;;		None
  3131 ;; Return value:  Size  Location     Type
  3132 ;;                  1    wreg      void 
  3133 ;; Registers used:
  3134 ;;		None
  3135 ;; Tracked objects:
  3136 ;;		On entry : 0/0
  3137 ;;		On exit  : 0/0
  3138 ;;		Unchanged: 0/0
  3139 ;; Data sizes:     COMRAM   BANK0   BANK1   BANK2   BANK3   BANK4   BANK5   BANK6   BANK7   BANK8   BANK9  BANK10  BANK1
      +1  BANK12  BANK13  BANK14  BANK15
  3140 ;;      Params:         0       0       0       0       0       0       0       0       0       0       0       0       
      +0       0       0       0       0
  3141 ;;      Locals:         0       0       0       0       0       0       0       0       0       0       0       0       
      +0       0       0       0       0
  3142 ;;      Temps:          0       0       0       0       0       0       0       0       0       0       0       0       
      +0       0       0       0       0
  3143 ;;      Totals:         0       0       0       0       0       0       0       0       0       0       0       0       
      +0       0       0       0       0
  3144 ;;Total ram usage:        0 bytes
  3145 ;; Hardware stack levels used: 1
  3146 ;; This function calls:
  3147 ;;		Nothing
  3148 ;; This function is called by:
  3149 ;;		_InterruptManager
  3150 ;; This function uses a non-reentrant model
  3151 ;;
  3152                           
  3153                           	psect	text24
  3154   001B58                     __ptext24:
  3155                           	callstack 0
  3156   001B58                     _INT2_ISR:
  3157                           	callstack 26
  3158   001B58                     
  3159                           ;MCAL_Layer/Interrupt/mcal_external_interrupt.c: 101:     (INTCON3bits.INT2IF = 0);
  3160   001B58  92F0               	bcf	240,1,c	;volatile
  3161   001B5A  0012               	return		;funcret
  3162   001B5C                     __end_of_INT2_ISR:
  3163                           	callstack 0
  3164                           
  3165 ;; *************** function _INT1_ISR *****************
  3166 ;; Defined at:
  3167 ;;		line 90 in file "MCAL_Layer/Interrupt/mcal_external_interrupt.c"
  3168 ;; Parameters:    Size  Location     Type
  3169 ;;		None
  3170 ;; Auto vars:     Size  Location     Type
  3171 ;;		None
  3172 ;; Return value:  Size  Location     Type
  3173 ;;                  1    wreg      void 
  3174 ;; Registers used:
  3175 ;;		None
  3176 ;; Tracked objects:
  3177 ;;		On entry : 0/0
  3178 ;;		On exit  : 0/0
  3179 ;;		Unchanged: 0/0
  3180 ;; Data sizes:     COMRAM   BANK0   BANK1   BANK2   BANK3   BANK4   BANK5   BANK6   BANK7   BANK8   BANK9  BANK10  BANK1
      +1  BANK12  BANK13  BANK14  BANK15
  3181 ;;      Params:         0       0       0       0       0       0       0       0       0       0       0       0       
      +0       0       0       0       0
  3182 ;;      Locals:         0       0       0       0       0       0       0       0       0       0       0       0       
      +0       0       0       0       0
  3183 ;;      Temps:          0       0       0       0       0       0       0       0       0       0       0       0       
      +0       0       0       0       0
  3184 ;;      Totals:         0       0       0       0       0       0       0       0       0       0       0       0       
      +0       0       0       0       0
  3185 ;;Total ram usage:        0 bytes
  3186 ;; Hardware stack levels used: 1
  3187 ;; This function calls:
  3188 ;;		Nothing
  3189 ;; This function is called by:
  3190 ;;		_InterruptManager
  3191 ;; This function uses a non-reentrant model
  3192 ;;
  3193                           
  3194                           	psect	text25
  3195   001B5C                     __ptext25:
  3196                           	callstack 0
  3197   001B5C                     _INT1_ISR:
  3198                           	callstack 26
  3199   001B5C                     
  3200                           ;MCAL_Layer/Interrupt/mcal_external_interrupt.c: 92:     (INTCON3bits.INT1IF = 0);
  3201   001B5C  90F0               	bcf	240,0,c	;volatile
  3202   001B5E  0012               	return		;funcret
  3203   001B60                     __end_of_INT1_ISR:
  3204                           	callstack 0
  3205                           
  3206 ;; *************** function _INT0_ISR *****************
  3207 ;; Defined at:
  3208 ;;		line 78 in file "MCAL_Layer/Interrupt/mcal_external_interrupt.c"
  3209 ;; Parameters:    Size  Location     Type
  3210 ;;		None
  3211 ;; Auto vars:     Size  Location     Type
  3212 ;;		None
  3213 ;; Return value:  Size  Location     Type
  3214 ;;                  1    wreg      void 
  3215 ;; Registers used:
  3216 ;;		None
  3217 ;; Tracked objects:
  3218 ;;		On entry : 0/0
  3219 ;;		On exit  : 0/0
  3220 ;;		Unchanged: 0/0
  3221 ;; Data sizes:     COMRAM   BANK0   BANK1   BANK2   BANK3   BANK4   BANK5   BANK6   BANK7   BANK8   BANK9  BANK10  BANK1
      +1  BANK12  BANK13  BANK14  BANK15
  3222 ;;      Params:         0       0       0       0       0       0       0       0       0       0       0       0       
      +0       0       0       0       0
  3223 ;;      Locals:         0       0       0       0       0       0       0       0       0       0       0       0       
      +0       0       0       0       0
  3224 ;;      Temps:          0       0       0       0       0       0       0       0       0       0       0       0       
      +0       0       0       0       0
  3225 ;;      Totals:         0       0       0       0       0       0       0       0       0       0       0       0       
      +0       0       0       0       0
  3226 ;;Total ram usage:        0 bytes
  3227 ;; Hardware stack levels used: 1
  3228 ;; This function calls:
  3229 ;;		Nothing
  3230 ;; This function is called by:
  3231 ;;		_InterruptManager
  3232 ;; This function uses a non-reentrant model
  3233 ;;
  3234                           
  3235                           	psect	text26
  3236   001B60                     __ptext26:
  3237                           	callstack 0
  3238   001B60                     _INT0_ISR:
  3239                           	callstack 26
  3240   001B60                     
  3241                           ;MCAL_Layer/Interrupt/mcal_external_interrupt.c: 80:     (INTCONbits.INT0IF = 0);
  3242   001B60  92F2               	bcf	242,1,c	;volatile
  3243   001B62  0012               	return		;funcret
  3244   001B64                     __end_of_INT0_ISR:
  3245                           	callstack 0
  3246                           
  3247 ;; *************** function _EUSART_TX_ISR *****************
  3248 ;; Defined at:
  3249 ;;		line 243 in file "MCAL_Layer/usart/hal_usart.c"
  3250 ;; Parameters:    Size  Location     Type
  3251 ;;		None
  3252 ;; Auto vars:     Size  Location     Type
  3253 ;;		None
  3254 ;; Return value:  Size  Location     Type
  3255 ;;                  1    wreg      void 
  3256 ;; Registers used:
  3257 ;;		None
  3258 ;; Tracked objects:
  3259 ;;		On entry : 0/0
  3260 ;;		On exit  : 0/0
  3261 ;;		Unchanged: 0/0
  3262 ;; Data sizes:     COMRAM   BANK0   BANK1   BANK2   BANK3   BANK4   BANK5   BANK6   BANK7   BANK8   BANK9  BANK10  BANK1
      +1  BANK12  BANK13  BANK14  BANK15
  3263 ;;      Params:         0       0       0       0       0       0       0       0       0       0       0       0       
      +0       0       0       0       0
  3264 ;;      Locals:         0       0       0       0       0       0       0       0       0       0       0       0       
      +0       0       0       0       0
  3265 ;;      Temps:          0       0       0       0       0       0       0       0       0       0       0       0       
      +0       0       0       0       0
  3266 ;;      Totals:         0       0       0       0       0       0       0       0       0       0       0       0       
      +0       0       0       0       0
  3267 ;;Total ram usage:        0 bytes
  3268 ;; Hardware stack levels used: 1
  3269 ;; This function calls:
  3270 ;;		Nothing
  3271 ;; This function is called by:
  3272 ;;		_InterruptManager
  3273 ;; This function uses a non-reentrant model
  3274 ;;
  3275                           
  3276                           	psect	text27
  3277   001B64                     __ptext27:
  3278                           	callstack 0
  3279   001B64                     _EUSART_TX_ISR:
  3280                           	callstack 26
  3281   001B64                     
  3282                           ;MCAL_Layer/usart/hal_usart.c: 244:     (PIE1bits.TXIE = 0);
  3283   001B64  989D               	bcf	157,4,c	;volatile
  3284   001B66  0012               	return		;funcret
  3285   001B68                     __end_of_EUSART_TX_ISR:
  3286                           	callstack 0
  3287                           
  3288 ;; *************** function _EUSART_RX_ISR *****************
  3289 ;; Defined at:
  3290 ;;		line 250 in file "MCAL_Layer/usart/hal_usart.c"
  3291 ;; Parameters:    Size  Location     Type
  3292 ;;		None
  3293 ;; Auto vars:     Size  Location     Type
  3294 ;;		None
  3295 ;; Return value:  Size  Location     Type
  3296 ;;                  1    wreg      void 
  3297 ;; Registers used:
  3298 ;;		wreg, status,2, status,0
  3299 ;; Tracked objects:
  3300 ;;		On entry : 0/0
  3301 ;;		On exit  : 0/0
  3302 ;;		Unchanged: 0/0
  3303 ;; Data sizes:     COMRAM   BANK0   BANK1   BANK2   BANK3   BANK4   BANK5   BANK6   BANK7   BANK8   BANK9  BANK10  BANK1
      +1  BANK12  BANK13  BANK14  BANK15
  3304 ;;      Params:         0       0       0       0       0       0       0       0       0       0       0       0       
      +0       0       0       0       0
  3305 ;;      Locals:         0       0       0       0       0       0       0       0       0       0       0       0       
      +0       0       0       0       0
  3306 ;;      Temps:          0       0       0       0       0       0       0       0       0       0       0       0       
      +0       0       0       0       0
  3307 ;;      Totals:         0       0       0       0       0       0       0       0       0       0       0       0       
      +0       0       0       0       0
  3308 ;;Total ram usage:        0 bytes
  3309 ;; Hardware stack levels used: 1
  3310 ;; This function calls:
  3311 ;;		Nothing
  3312 ;; This function is called by:
  3313 ;;		_InterruptManager
  3314 ;; This function uses a non-reentrant model
  3315 ;;
  3316                           
  3317                           	psect	text28
  3318   001B7A                     __ptext28:
  3319                           	callstack 0
  3320   001B7A                     _EUSART_RX_ISR:
  3321                           	callstack 26
  3322   001B7A  0012               	return		;funcret
  3323   001B7C                     __end_of_EUSART_RX_ISR:
  3324                           	callstack 0
  3325                           
  3326 ;; *************** function _CCP2_ISR *****************
  3327 ;; Defined at:
  3328 ;;		line 260 in file "MCAL_Layer/CCP/hal_ccp.c"
  3329 ;; Parameters:    Size  Location     Type
  3330 ;;		None
  3331 ;; Auto vars:     Size  Location     Type
  3332 ;;		None
  3333 ;; Return value:  Size  Location     Type
  3334 ;;                  1    wreg      void 
  3335 ;; Registers used:
  3336 ;;		None
  3337 ;; Tracked objects:
  3338 ;;		On entry : 0/0
  3339 ;;		On exit  : 0/0
  3340 ;;		Unchanged: 0/0
  3341 ;; Data sizes:     COMRAM   BANK0   BANK1   BANK2   BANK3   BANK4   BANK5   BANK6   BANK7   BANK8   BANK9  BANK10  BANK1
      +1  BANK12  BANK13  BANK14  BANK15
  3342 ;;      Params:         0       0       0       0       0       0       0       0       0       0       0       0       
      +0       0       0       0       0
  3343 ;;      Locals:         0       0       0       0       0       0       0       0       0       0       0       0       
      +0       0       0       0       0
  3344 ;;      Temps:          0       0       0       0       0       0       0       0       0       0       0       0       
      +0       0       0       0       0
  3345 ;;      Totals:         0       0       0       0       0       0       0       0       0       0       0       0       
      +0       0       0       0       0
  3346 ;;Total ram usage:        0 bytes
  3347 ;; Hardware stack levels used: 1
  3348 ;; This function calls:
  3349 ;;		Nothing
  3350 ;; This function is called by:
  3351 ;;		_InterruptManager
  3352 ;; This function uses a non-reentrant model
  3353 ;;
  3354                           
  3355                           	psect	text29
  3356   001B68                     __ptext29:
  3357                           	callstack 0
  3358   001B68                     _CCP2_ISR:
  3359                           	callstack 26
  3360   001B68                     
  3361                           ;MCAL_Layer/CCP/hal_ccp.c: 261:     (PIR2bits.CCP2IF = 0);
  3362   001B68  90A1               	bcf	161,0,c	;volatile
  3363   001B6A  0012               	return		;funcret
  3364   001B6C                     __end_of_CCP2_ISR:
  3365                           	callstack 0
  3366                           
  3367 ;; *************** function _CCP1_ISR *****************
  3368 ;; Defined at:
  3369 ;;		line 252 in file "MCAL_Layer/CCP/hal_ccp.c"
  3370 ;; Parameters:    Size  Location     Type
  3371 ;;		None
  3372 ;; Auto vars:     Size  Location     Type
  3373 ;;		None
  3374 ;; Return value:  Size  Location     Type
  3375 ;;                  1    wreg      void 
  3376 ;; Registers used:
  3377 ;;		None
  3378 ;; Tracked objects:
  3379 ;;		On entry : 0/0
  3380 ;;		On exit  : 0/0
  3381 ;;		Unchanged: 0/0
  3382 ;; Data sizes:     COMRAM   BANK0   BANK1   BANK2   BANK3   BANK4   BANK5   BANK6   BANK7   BANK8   BANK9  BANK10  BANK1
      +1  BANK12  BANK13  BANK14  BANK15
  3383 ;;      Params:         0       0       0       0       0       0       0       0       0       0       0       0       
      +0       0       0       0       0
  3384 ;;      Locals:         0       0       0       0       0       0       0       0       0       0       0       0       
      +0       0       0       0       0
  3385 ;;      Temps:          0       0       0       0       0       0       0       0       0       0       0       0       
      +0       0       0       0       0
  3386 ;;      Totals:         0       0       0       0       0       0       0       0       0       0       0       0       
      +0       0       0       0       0
  3387 ;;Total ram usage:        0 bytes
  3388 ;; Hardware stack levels used: 1
  3389 ;; This function calls:
  3390 ;;		Nothing
  3391 ;; This function is called by:
  3392 ;;		_InterruptManager
  3393 ;; This function uses a non-reentrant model
  3394 ;;
  3395                           
  3396                           	psect	text30
  3397   001B6C                     __ptext30:
  3398                           	callstack 0
  3399   001B6C                     _CCP1_ISR:
  3400                           	callstack 26
  3401   001B6C                     
  3402                           ;MCAL_Layer/CCP/hal_ccp.c: 253:     (PIR1bits.CCP1IF = 0);
  3403   001B6C  949E               	bcf	158,2,c	;volatile
  3404   001B6E  0012               	return		;funcret
  3405   001B70                     __end_of_CCP1_ISR:
  3406                           	callstack 0
  3407                           
  3408 ;; *************** function _ADC_ISR *****************
  3409 ;; Defined at:
  3410 ;;		line 296 in file "MCAL_Layer/ADC/hal_adc.c"
  3411 ;; Parameters:    Size  Location     Type
  3412 ;;		None
  3413 ;; Auto vars:     Size  Location     Type
  3414 ;;		None
  3415 ;; Return value:  Size  Location     Type
  3416 ;;                  1    wreg      void 
  3417 ;; Registers used:
  3418 ;;		None
  3419 ;; Tracked objects:
  3420 ;;		On entry : 0/0
  3421 ;;		On exit  : 0/0
  3422 ;;		Unchanged: 0/0
  3423 ;; Data sizes:     COMRAM   BANK0   BANK1   BANK2   BANK3   BANK4   BANK5   BANK6   BANK7   BANK8   BANK9  BANK10  BANK1
      +1  BANK12  BANK13  BANK14  BANK15
  3424 ;;      Params:         0       0       0       0       0       0       0       0       0       0       0       0       
      +0       0       0       0       0
  3425 ;;      Locals:         0       0       0       0       0       0       0       0       0       0       0       0       
      +0       0       0       0       0
  3426 ;;      Temps:          0       0       0       0       0       0       0       0       0       0       0       0       
      +0       0       0       0       0
  3427 ;;      Totals:         0       0       0       0       0       0       0       0       0       0       0       0       
      +0       0       0       0       0
  3428 ;;Total ram usage:        0 bytes
  3429 ;; Hardware stack levels used: 1
  3430 ;; This function calls:
  3431 ;;		Nothing
  3432 ;; This function is called by:
  3433 ;;		_InterruptManager
  3434 ;; This function uses a non-reentrant model
  3435 ;;
  3436                           
  3437                           	psect	text31
  3438   001B70                     __ptext31:
  3439                           	callstack 0
  3440   001B70                     _ADC_ISR:
  3441                           	callstack 26
  3442   001B70                     
  3443                           ;MCAL_Layer/ADC/hal_adc.c: 297:     (PIR1bits.ADIF = 0);
  3444   001B70  9C9E               	bcf	158,6,c	;volatile
  3445   001B72  0012               	return		;funcret
  3446   001B74                     __end_of_ADC_ISR:
  3447                           	callstack 0
  3448                           
  3449                           	psect	rparam
  3450   000000                     
  3451                           	psect	temp
  3452   00007A                     btemp:
  3453                           	callstack 0
  3454   00007A                     	ds	1
  3455   000000                     int$flags	set	btemp
  3456   000000                     wtemp8	set	btemp+1
  3457   000000                     ttemp5	set	btemp+1
  3458   000000                     ttemp6	set	btemp+4
  3459   000000                     ttemp7	set	btemp+8
  3460                           
  3461                           	psect	idloc
  3462                           
  3463                           ;Config register IDLOC0 @ 0x200000
  3464                           ;	unspecified, using default values
  3465   200000                     	org	2097152
  3466   200000  FF                 	db	255
  3467                           
  3468                           ;Config register IDLOC1 @ 0x200001
  3469                           ;	unspecified, using default values
  3470   200001                     	org	2097153
  3471   200001  FF                 	db	255
  3472                           
  3473                           ;Config register IDLOC2 @ 0x200002
  3474                           ;	unspecified, using default values
  3475   200002                     	org	2097154
  3476   200002  FF                 	db	255
  3477                           
  3478                           ;Config register IDLOC3 @ 0x200003
  3479                           ;	unspecified, using default values
  3480   200003                     	org	2097155
  3481   200003  FF                 	db	255
  3482                           
  3483                           ;Config register IDLOC4 @ 0x200004
  3484                           ;	unspecified, using default values
  3485   200004                     	org	2097156
  3486   200004  FF                 	db	255
  3487                           
  3488                           ;Config register IDLOC5 @ 0x200005
  3489                           ;	unspecified, using default values
  3490   200005                     	org	2097157
  3491   200005  FF                 	db	255
  3492                           
  3493                           ;Config register IDLOC6 @ 0x200006
  3494                           ;	unspecified, using default values
  3495   200006                     	org	2097158
  3496   200006  FF                 	db	255
  3497                           
  3498                           ;Config register IDLOC7 @ 0x200007
  3499                           ;	unspecified, using default values
  3500   200007                     	org	2097159
  3501   200007  FF                 	db	255
  3502                           
  3503                           	psect	config
  3504                           
  3505                           ; Padding undefined space
  3506   300000                     	org	3145728
  3507   300000  FF                 	db	255
  3508                           
  3509                           ;Config register CONFIG1H @ 0x300001
  3510                           ;	Oscillator Selection bits
  3511                           ;	OSC = HS, HS oscillator
  3512                           ;	Fail-Safe Clock Monitor Enable bit
  3513                           ;	FCMEN = OFF, Fail-Safe Clock Monitor disabled
  3514                           ;	Internal/External Oscillator Switchover bit
  3515                           ;	IESO = OFF, Oscillator Switchover mode disabled
  3516   300001                     	org	3145729
  3517   300001  02                 	db	2
  3518                           
  3519                           ;Config register CONFIG2L @ 0x300002
  3520                           ;	Power-up Timer Enable bit
  3521                           ;	PWRT = OFF, PWRT disabled
  3522                           ;	Brown-out Reset Enable bits
  3523                           ;	BOREN = OFF, Brown-out Reset disabled in hardware and software
  3524                           ;	Brown Out Reset Voltage bits
  3525                           ;	BORV = 1, 
  3526   300002                     	org	3145730
  3527   300002  09                 	db	9
  3528                           
  3529                           ;Config register CONFIG2H @ 0x300003
  3530                           ;	Watchdog Timer Enable bit
  3531                           ;	WDT = OFF, WDT disabled (control is placed on the SWDTEN bit)
  3532                           ;	Watchdog Timer Postscale Select bits
  3533                           ;	WDTPS = 512, 1:512
  3534   300003                     	org	3145731
  3535   300003  12                 	db	18
  3536                           
  3537                           ; Padding undefined space
  3538   300004                     	org	3145732
  3539   300004  FF                 	db	255
  3540                           
  3541                           ;Config register CONFIG3H @ 0x300005
  3542                           ;	CCP2 MUX bit
  3543                           ;	CCP2MX = PORTC, CCP2 input/output is multiplexed with RC1
  3544                           ;	PORTB A/D Enable bit
  3545                           ;	PBADEN = OFF, PORTB<4:0> pins are configured as digital I/O on Reset
  3546                           ;	Low-Power Timer1 Oscillator Enable bit
  3547                           ;	LPT1OSC = OFF, Timer1 configured for higher power operation
  3548                           ;	MCLR Pin Enable bit
  3549                           ;	MCLRE = ON, MCLR pin enabled; RE3 input pin disabled
  3550   300005                     	org	3145733
  3551   300005  81                 	db	129
  3552                           
  3553                           ;Config register CONFIG4L @ 0x300006
  3554                           ;	Stack Full/Underflow Reset Enable bit
  3555                           ;	STVREN = ON, Stack full/underflow will cause Reset
  3556                           ;	Single-Supply ICSP Enable bit
  3557                           ;	LVP = OFF, Single-Supply ICSP disabled
  3558                           ;	Extended Instruction Set Enable bit
  3559                           ;	XINST = OFF, Instruction set extension and Indexed Addressing mode disabled (Legacy mo
      +                          de)
  3560                           ;	Background Debugger Enable bit
  3561                           ;	DEBUG = 0x1, unprogrammed default
  3562   300006                     	org	3145734
  3563   300006  81                 	db	129
  3564                           
  3565                           ; Padding undefined space
  3566   300007                     	org	3145735
  3567   300007  FF                 	db	255
  3568                           
  3569                           ;Config register CONFIG5L @ 0x300008
  3570                           ;	Code Protection bit
  3571                           ;	CP0 = OFF, Block 0 (000800-003FFFh) not code-protected
  3572                           ;	Code Protection bit
  3573                           ;	CP1 = OFF, Block 1 (004000-007FFFh) not code-protected
  3574                           ;	Code Protection bit
  3575                           ;	CP2 = OFF, Block 2 (008000-00BFFFh) not code-protected
  3576                           ;	Code Protection bit
  3577                           ;	CP3 = OFF, Block 3 (00C000-00FFFFh) not code-protected
  3578   300008                     	org	3145736
  3579   300008  0F                 	db	15
  3580                           
  3581                           ;Config register CONFIG5H @ 0x300009
  3582                           ;	Boot Block Code Protection bit
  3583                           ;	CPB = OFF, Boot block (000000-0007FFh) not code-protected
  3584                           ;	Data EEPROM Code Protection bit
  3585                           ;	CPD = OFF, Data EEPROM not code-protected
  3586   300009                     	org	3145737
  3587   300009  C0                 	db	192
  3588                           
  3589                           ;Config register CONFIG6L @ 0x30000A
  3590                           ;	Write Protection bit
  3591                           ;	WRT0 = OFF, Block 0 (000800-003FFFh) not write-protected
  3592                           ;	Write Protection bit
  3593                           ;	WRT1 = OFF, Block 1 (004000-007FFFh) not write-protected
  3594                           ;	Write Protection bit
  3595                           ;	WRT2 = OFF, Block 2 (008000-00BFFFh) not write-protected
  3596                           ;	Write Protection bit
  3597                           ;	WRT3 = OFF, Block 3 (00C000-00FFFFh) not write-protected
  3598   30000A                     	org	3145738
  3599   30000A  0F                 	db	15
  3600                           
  3601                           ;Config register CONFIG6H @ 0x30000B
  3602                           ;	Configuration Register Write Protection bit
  3603                           ;	WRTC = OFF, Configuration registers (300000-3000FFh) not write-protected
  3604                           ;	Boot Block Write Protection bit
  3605                           ;	WRTB = OFF, Boot Block (000000-0007FFh) not write-protected
  3606                           ;	Data EEPROM Write Protection bit
  3607                           ;	WRTD = OFF, Data EEPROM not write-protected
  3608   30000B                     	org	3145739
  3609   30000B  E0                 	db	224
  3610                           
  3611                           ;Config register CONFIG7L @ 0x30000C
  3612                           ;	Table Read Protection bit
  3613                           ;	EBTR0 = OFF, Block 0 (000800-003FFFh) not protected from table reads executed in other
      +                           blocks
  3614                           ;	Table Read Protection bit
  3615                           ;	EBTR1 = OFF, Block 1 (004000-007FFFh) not protected from table reads executed in other
      +                           blocks
  3616                           ;	Table Read Protection bit
  3617                           ;	EBTR2 = OFF, Block 2 (008000-00BFFFh) not protected from table reads executed in other
      +                           blocks
  3618                           ;	Table Read Protection bit
  3619                           ;	EBTR3 = OFF, Block 3 (00C000-00FFFFh) not protected from table reads executed in other
      +                           blocks
  3620   30000C                     	org	3145740
  3621   30000C  0F                 	db	15
  3622                           
  3623                           ;Config register CONFIG7H @ 0x30000D
  3624                           ;	Boot Block Table Read Protection bit
  3625                           ;	EBTRB = OFF, Boot Block (000000-0007FFh) not protected from table reads executed in ot
      +                          her blocks
  3626   30000D                     	org	3145741
  3627   30000D  40                 	db	64
  3628                           tosu	equ	0xFFF
  3629                           tosh	equ	0xFFE
  3630                           tosl	equ	0xFFD
  3631                           stkptr	equ	0xFFC
  3632                           pclatu	equ	0xFFB
  3633                           pclath	equ	0xFFA
  3634                           pcl	equ	0xFF9
  3635                           tblptru	equ	0xFF8
  3636                           tblptrh	equ	0xFF7
  3637                           tblptrl	equ	0xFF6
  3638                           tablat	equ	0xFF5
  3639                           prodh	equ	0xFF4
  3640                           prodl	equ	0xFF3
  3641                           indf0	equ	0xFEF
  3642                           postinc0	equ	0xFEE
  3643                           postdec0	equ	0xFED
  3644                           preinc0	equ	0xFEC
  3645                           plusw0	equ	0xFEB
  3646                           fsr0h	equ	0xFEA
  3647                           fsr0l	equ	0xFE9
  3648                           wreg	equ	0xFE8
  3649                           indf1	equ	0xFE7
  3650                           postinc1	equ	0xFE6
  3651                           postdec1	equ	0xFE5
  3652                           preinc1	equ	0xFE4
  3653                           plusw1	equ	0xFE3
  3654                           fsr1h	equ	0xFE2
  3655                           fsr1l	equ	0xFE1
  3656                           bsr	equ	0xFE0
  3657                           indf2	equ	0xFDF
  3658                           postinc2	equ	0xFDE
  3659                           postdec2	equ	0xFDD
  3660                           preinc2	equ	0xFDC
  3661                           plusw2	equ	0xFDB
  3662                           fsr2h	equ	0xFDA
  3663                           fsr2l	equ	0xFD9
  3664                           status	equ	0xFD8

Data Sizes:
    Strings     3
    Constant    16
    Data        41
    BSS         74
    Persistent  0
    Stack       0

Auto Spaces:
    Space          Size  Autos    Used
    COMRAM          126     22     121
    BANK0           128      0      16
    BANK1           256      0       0
    BANK2           256      0       0
    BANK3           256      0       0
    BANK4           256      0       0
    BANK5           256      0       0
    BANK6           256      0       0
    BANK7           256      0       0
    BANK8           256      0       0
    BANK9           256      0       0
    BANK10          256      0       0
    BANK11          256      0       0
    BANK12          256      0       0
    BANK13          256      0       0
    BANK14          256      0       0
    BANK15          128      0       0

Pointer List with Targets:

    vfprintf$2	PTR PTR void  size(2) Largest target is 2
		 -> sprintf@ap(COMRAM[2]), 

    vfprintf$1	PTR const unsigned char  size(2) Largest target is 3
		 -> STR_3(CODE[3]), STR_2(CODE[3]), STR_1(CODE[3]), 

    vfprintf$0	PTR struct _IO_FILE size(2) Largest target is 12
		 -> sprintf@f(COMRAM[12]), 

    MSSP_SPI_Interrupt_Init@Config	PTR const struct . size(2) Largest target is 2
		 -> SPI_Obj(COMRAM[2]), 

    MSSP_SPI_Msster_Mode_GPIO_PIN_Configurations@Config	PTR const struct . size(2) Largest target is 2
		 -> SPI_Obj(COMRAM[2]), 

    S4833$source	PTR const unsigned char  size(2) Largest target is 0

    f...source	PTR const unsigned char  size(2) Largest target is 0

    S4833$buffer	PTR unsigned char  size(2) Largest target is 0

    f...buffer	PTR unsigned char  size(2) Largest target is 0

    EUSART_OverrunErrorHandler	PTR FTN()void  size(2) Largest target is 1
		 -> NULL(), 

    EUSART_FramingErrorHandler	PTR FTN()void  size(2) Largest target is 1
		 -> NULL(), 

    EUSART_RxInterruptHandler	PTR FTN()void  size(2) Largest target is 1
		 -> NULL(), 

    EUSART_ASYNC_RX_Init@_eusart.EUSART_OverrunErrorHandler	PTR FTN()void  size(2) Largest target is 0

    EUSART_ASYNC_RX_Init@_eusart.EUSART_FramingErrorHandler	PTR FTN()void  size(2) Largest target is 0

    EUSART_ASYNC_RX_Init@_eusart.EUSART_RxDefaultInterruptHandler	PTR FTN()void  size(2) Largest target is 0

    EUSART_ASYNC_RX_Init@_eusart.EUSART_TxDefaultInterruptHandler	PTR FTN()void  size(2) Largest target is 0

    EUSART_TxInterruptHandler	PTR FTN()void  size(2) Largest target is 1
		 -> NULL(), 

    EUSART_ASYNC_TX_Init@_eusart.EUSART_OverrunErrorHandler	PTR FTN()void  size(2) Largest target is 0

    EUSART_ASYNC_TX_Init@_eusart.EUSART_FramingErrorHandler	PTR FTN()void  size(2) Largest target is 0

    EUSART_ASYNC_TX_Init@_eusart.EUSART_RxDefaultInterruptHandler	PTR FTN()void  size(2) Largest target is 0

    EUSART_ASYNC_TX_Init@_eusart.EUSART_TxDefaultInterruptHandler	PTR FTN()void  size(2) Largest target is 0

    S3908$EUSART_OverrunErrorHandler	PTR FTN()void  size(2) Largest target is 0

    EUSART_Baud_Rate_Calculation@_eusart.EUSART_OverrunErrorHandler	PTR FTN()void  size(2) Largest target is 0

    S3908$EUSART_FramingErrorHandler	PTR FTN()void  size(2) Largest target is 0

    EUSART_Baud_Rate_Calculation@_eusart.EUSART_FramingErrorHandler	PTR FTN()void  size(2) Largest target is 0

    S3908$EUSART_RxDefaultInterruptHandler	PTR FTN()void  size(2) Largest target is 0

    EUSART_Baud_Rate_Calculation@_eusart.EUSART_RxDefaultInterruptHandler	PTR FTN()void  size(2) Largest target is 0

    S3908$EUSART_TxDefaultInterruptHandler	PTR FTN()void  size(2) Largest target is 0

    EUSART_Baud_Rate_Calculation@_eusart.EUSART_TxDefaultInterruptHandler	PTR FTN()void  size(2) Largest target is 0

    Timer3_Mode_Select@_timer.TMR3_InterruptHandler	PTR FTN()void  size(2) Largest target is 0

    TMR3_InterruptHandler	PTR FTN()void  size(2) Largest target is 1
		 -> NULL(), 

    S3714$TMR3_InterruptHandler	PTR FTN()void  size(2) Largest target is 0

    Timer3_Init@_timer.TMR3_InterruptHandler	PTR FTN()void  size(2) Largest target is 0

    TMR2_InterruptHandler	PTR FTN()void  size(2) Largest target is 1
		 -> NULL(), 

    S3585$TMR2_InterruptHandler	PTR FTN()void  size(2) Largest target is 0

    Timer2_Init@_timer.TMR2_InterruptHandler	PTR FTN()void  size(2) Largest target is 0

    Timer1_Mode_Select@_timer.TMR1_InterruptHandler	PTR FTN()void  size(2) Largest target is 0

    TMR1_InterruptHandler	PTR FTN()volatile void  size(2) Largest target is 1
		 -> NULL(), 

    S3395$TMR1_InterruptHandler	PTR FTN()void  size(2) Largest target is 0

    Timer1_Init@_timer.TMR1_InterruptHandler	PTR FTN()void  size(2) Largest target is 0

    Timer0_Register_Size_Config@_timer.TMR0_InterruptHandler	PTR FTN()void  size(2) Largest target is 0

    Timer0_Mode_Select@_timer.TMR0_InterruptHandler	PTR FTN()void  size(2) Largest target is 0

    Timer0_Prescaler_Config@_timer.TMR0_InterruptHandler	PTR FTN()void  size(2) Largest target is 0

    TMR0_InterruptHandler	PTR FTN()void  size(2) Largest target is 1
		 -> NULL(), 

    S3230$TMR0_InterruptHandler	PTR FTN()void  size(2) Largest target is 0

    Timer0_Init@_timer.TMR0_InterruptHandler	PTR FTN()void  size(2) Largest target is 0

    MSSP_SPI_Slave_Mode_GPIO_PIN_Configurations@Config	PTR const struct . size(2) Largest target is 2
		 -> SPI_Obj(COMRAM[2]), 

    SPI_Read_Byte@_data	PTR unsigned char  size(2) Largest target is 1
		 -> SPI_Msater_Side_Slave1_RetVal(COMRAM[1]), 

    SPI_Read_Byte@Config	PTR const struct . size(2) Largest target is 2
		 -> SPI_Obj(COMRAM[2]), 

    SPI_Send_Byte@Config	PTR const struct . size(2) Largest target is 2
		 -> SPI_Obj(COMRAM[2]), 

    SPI_Init@Config	PTR const struct . size(2) Largest target is 2
		 -> SPI_Obj(COMRAM[2]), 

    Interrupt_INTx_SetInterruptHandler@int_obj.EXT_InterruptHandler	PTR FTN()void  size(2) Largest target is 0

    Interrupt_INTx_Clear_Flag@int_obj.EXT_InterruptHandler	PTR FTN()void  size(2) Largest target is 0

    Interrupt_INTx_Pin_Init@int_obj.EXT_InterruptHandler	PTR FTN()void  size(2) Largest target is 0

    Interrupt_INTx_Edge_Init@int_obj.EXT_InterruptHandler	PTR FTN()void  size(2) Largest target is 0

    Interrupt_INTx_Disable@int_obj.EXT_InterruptHandler	PTR FTN()void  size(2) Largest target is 0

    S2356$EXT_InterruptHandler	PTR FTN()void  size(2) Largest target is 0

    Interrupt_INTx_Enable@int_obj.EXT_InterruptHandler	PTR FTN()void  size(2) Largest target is 0

    S2472$EXT_InterruptHandler_LOW	PTR FTN()void  size(2) Largest target is 0

    Interrupt_RBx_Init@int_obj.EXT_InterruptHandler_LOW	PTR FTN()void  size(2) Largest target is 0

    S2472$EXT_InterruptHandler_HIGH	PTR FTN()void  size(2) Largest target is 0

    Interrupt_RBx_Init@int_obj.EXT_InterruptHandler_HIGH	PTR FTN()void  size(2) Largest target is 0

    RB7_InterruptHandler_LOW	PTR FTN()void  size(2) Largest target is 1
		 -> NULL(), 

    RB7_InterruptHandler_HIGH	PTR FTN()void  size(2) Largest target is 1
		 -> NULL(), 

    RB6_InterruptHandler_LOW	PTR FTN()void  size(2) Largest target is 1
		 -> NULL(), 

    RB6_InterruptHandler_HIGH	PTR FTN()void  size(2) Largest target is 1
		 -> NULL(), 

    RB5_InterruptHandler_LOW	PTR FTN()void  size(2) Largest target is 1
		 -> NULL(), 

    RB5_InterruptHandler_HIGH	PTR FTN()void  size(2) Largest target is 1
		 -> NULL(), 

    RB4_InterruptHandler_LOW	PTR FTN()void  size(2) Largest target is 1
		 -> NULL(), 

    RB4_InterruptHandler_HIGH	PTR FTN()void  size(2) Largest target is 1
		 -> NULL(), 

    INT2_InterruptHandler	PTR FTN()void  size(2) Largest target is 1
		 -> NULL(), 

    INT1_InterruptHandler	PTR FTN()void  size(2) Largest target is 1
		 -> NULL(), 

    INT0_InterruptHandler	PTR FTN()void  size(2) Largest target is 1
		 -> NULL(), 

    I2C_Report_Receive_Overflow_InterruptHandle	PTR FTN()void  size(2) Largest target is 1
		 -> NULL(), 

    MSSP_I2C_Interrupt_Configurations@i2c_obj.I2C_Report_Receive_Overflow	PTR FTN()void  size(2) Largest target is 0

    MSSP_I2C_Interrupt_Configurations@i2c_obj.I2C_DefaultInterruptHandler	PTR FTN()void  size(2) Largest target is 0

    MSSP_I2C_Interrupt_Configurations@i2c_obj.I2C_Report_Write_Collision	PTR FTN()void  size(2) Largest target is 0

    I2C_Slave_Mode_Configurations@i2c_obj.I2C_Report_Receive_Overflow	PTR FTN()void  size(2) Largest target is 0

    I2C_Slave_Mode_Configurations@i2c_obj.I2C_DefaultInterruptHandler	PTR FTN()void  size(2) Largest target is 0

    I2C_Slave_Mode_Configurations@i2c_obj.I2C_Report_Write_Collision	PTR FTN()void  size(2) Largest target is 0

    I2C_Master_Mode_Clock_Configurations@i2c_obj.I2C_Report_Receive_Overflow	PTR FTN()void  size(2) Largest target is 0

    I2C_Master_Mode_Clock_Configurations@i2c_obj.I2C_DefaultInterruptHandler	PTR FTN()void  size(2) Largest target is 0

    I2C_Master_Mode_Clock_Configurations@i2c_obj.I2C_Report_Write_Collision	PTR FTN()void  size(2) Largest target is 0

    I2C_Report_Write_Collision_InterruptHandler	PTR FTN()void  size(2) Largest target is 1
		 -> NULL(), 

    I2C_DefaultInterruptHandle	PTR FTN()void  size(2) Largest target is 1
		 -> NULL(), 

    S1835$I2C_Report_Receive_Overflow	PTR FTN()void  size(2) Largest target is 0

    MSSP_I2C_Init@i2c_obj.I2C_Report_Receive_Overflow	PTR FTN()void  size(2) Largest target is 0

    S1835$I2C_DefaultInterruptHandler	PTR FTN()void  size(2) Largest target is 0

    MSSP_I2C_Init@i2c_obj.I2C_DefaultInterruptHandler	PTR FTN()void  size(2) Largest target is 0

    S1835$I2C_Report_Write_Collision	PTR FTN()void  size(2) Largest target is 0

    MSSP_I2C_Init@i2c_obj.I2C_Report_Write_Collision	PTR FTN()void  size(2) Largest target is 0

    gpio_pin_intialize@_pin_config	PTR const struct . size(2) Largest target is 1
		 -> SPI_SS1(COMRAM[1]), relay_initialize@pin_obj(COMRAM[1]), led_initialize@pin_obj(COMRAM[1]), 

    gpio_pin_write_logic@_pin_config	PTR const struct . size(2) Largest target is 1
		 -> SPI_SS1(COMRAM[1]), relay_turn_off@pin_obj(COMRAM[1]), relay_turn_on@pin_obj(COMRAM[1]), relay_initialize@pin_obj(COMRAM[1]), 
		 -> led_turn_off@pin_obj(COMRAM[1]), led_turn_on@pin_obj(COMRAM[1]), led_initialize@pin_obj(COMRAM[1]), 

    gpio_pin_direction_intialize@_pin_config	PTR const struct . size(2) Largest target is 1
		 -> SPI_SS1(COMRAM[1]), MSSP_SPI_Slave_Mode_GPIO_PIN_Configurations@SPI_SS(COMRAM[1]), MSSP_SPI_Slave_Mode_GPIO_PIN_Configurations@SPI_CLK(COMRAM[1]), MSSP_SPI_Slave_Mode_GPIO_PIN_Configurations@SPI_SDI(COMRAM[1]), 
		 -> MSSP_SPI_Slave_Mode_GPIO_PIN_Configurations@SPI_SDO(COMRAM[1]), MSSP_SPI_Msster_Mode_GPIO_PIN_Configurations@SPI_CLK(COMRAM[1]), MSSP_SPI_Msster_Mode_GPIO_PIN_Configurations@SPI_SDI(COMRAM[1]), MSSP_SPI_Msster_Mode_GPIO_PIN_Configurations@SPI_SDO(COMRAM[1]), 
		 -> relay_initialize@pin_obj(COMRAM[1]), led_initialize@pin_obj(COMRAM[1]), 

    port_registers	PTR volatile unsigned char [5] size(2) Largest target is 1
		 -> PORTE(BITBIGSFRlllll[1]), PORTD(BITBIGSFRlllll[1]), PORTC(BITBIGSFRlllll[1]), PORTB(BITBIGSFRlllll[1]), 
		 -> PORTA(BITBIGSFRlllll[1]), 

    lat_registers	PTR volatile unsigned char [5] size(2) Largest target is 1
		 -> LATE(BITBIGSFRllllh[1]), LATD(BITBIGSFRllllh[1]), LATC(BITBIGSFRllllh[1]), LATB(BITBIGSFRllllh[1]), 
		 -> LATA(BITBIGSFRlllll[1]), 

    tris_registers	PTR volatile unsigned char [5] size(2) Largest target is 1
		 -> TRISD(ABS[1]), TRISC(ABS[1]), TRISB(ABS[1]), TRISE(ABS[1]), 
		 -> TRISA(BITBIGSFRlllll[1]), 

    CCP_Compare_Mode_Config@_ccp_obj.CCP2_InterruptHandler	PTR FTN()void  size(2) Largest target is 0

    CCP_Compare_Mode_Config@_ccp_obj.CCP1_InterruptHandler	PTR FTN()void  size(2) Largest target is 0

    CCP_Capture_Mode_Config@_ccp_obj.CCP2_InterruptHandler	PTR FTN()void  size(2) Largest target is 0

    CCP_Capture_Mode_Config@_ccp_obj.CCP1_InterruptHandler	PTR FTN()void  size(2) Largest target is 0

    CCP_Mode_Timer_Select@_ccp_obj.CCP2_InterruptHandler	PTR FTN()void  size(2) Largest target is 0

    CCP_Mode_Timer_Select@_ccp_obj.CCP1_InterruptHandler	PTR FTN()void  size(2) Largest target is 0

    CCP_Interrupt_Config@_ccp_obj.CCP2_InterruptHandler	PTR FTN()void  size(2) Largest target is 0

    CCP_Interrupt_Config@_ccp_obj.CCP1_InterruptHandler	PTR FTN()void  size(2) Largest target is 0

    CCP_PWM_Mode_Config@_ccp_obj.CCP2_InterruptHandler	PTR FTN()void  size(2) Largest target is 0

    CCP_PWM_Mode_Config@_ccp_obj.CCP1_InterruptHandler	PTR FTN()void  size(2) Largest target is 0

    CCP2_InterruptHandler	PTR FTN()void  size(2) Largest target is 1
		 -> NULL(), 

    CCP1_InterruptHandler	PTR FTN()void  size(2) Largest target is 1
		 -> NULL(), 

    CCP_PWM_Stop@_ccp_obj.CCP2_InterruptHandler	PTR FTN()void  size(2) Largest target is 0

    CCP_PWM_Stop@_ccp_obj.CCP1_InterruptHandler	PTR FTN()void  size(2) Largest target is 0

    CCP_PWM_Start@_ccp_obj.CCP2_InterruptHandler	PTR FTN()void  size(2) Largest target is 0

    CCP_PWM_Start@_ccp_obj.CCP1_InterruptHandler	PTR FTN()void  size(2) Largest target is 0

    CCP_PWM_Set_Duty@_ccp_obj.CCP2_InterruptHandler	PTR FTN()void  size(2) Largest target is 0

    CCP_PWM_Set_Duty@_ccp_obj.CCP1_InterruptHandler	PTR FTN()void  size(2) Largest target is 0

    CCP_DeInit@_ccp_obj.CCP2_InterruptHandler	PTR FTN()void  size(2) Largest target is 0

    CCP_DeInit@_ccp_obj.CCP1_InterruptHandler	PTR FTN()void  size(2) Largest target is 0

    S1124$CCP2_InterruptHandler	PTR FTN()void  size(2) Largest target is 0

    CCP_Init@_ccp_obj.CCP2_InterruptHandler	PTR FTN()void  size(2) Largest target is 0

    S1124$CCP1_InterruptHandler	PTR FTN()void  size(2) Largest target is 0

    CCP_Init@_ccp_obj.CCP1_InterruptHandler	PTR FTN()void  size(2) Largest target is 0

    configure_voltage_reference@_adc.ADC_InterruptHandler	PTR FTN()void  size(2) Largest target is 0

    select_result_format@_adc.ADC_InterruptHandler	PTR FTN()void  size(2) Largest target is 0

    ADC_GetConversionResult@_adc.ADC_InterruptHandler	PTR FTN()void  size(2) Largest target is 0

    ADC_InterruptHandler	PTR FTN()void  size(2) Largest target is 1
		 -> NULL(), 

    S706$ADC_InterruptHandler	PTR FTN()void  size(2) Largest target is 0

    ADC_Init@_adc.ADC_InterruptHandler	PTR FTN()void  size(2) Largest target is 0

    sp__memset	PTR void  size(2) Largest target is 0


Critical Paths under _main in COMRAM

    _main->_SPI_Init
    _gpio_pin_intialize->_gpio_pin_write_logic
    _SPI_Init->_MSSP_SPI_Slave_Mode_GPIO_PIN_Configurations
    _MSSP_SPI_Slave_Mode_GPIO_PIN_Configurations->_gpio_pin_direction_intialize
    _MSSP_SPI_Msster_Mode_GPIO_PIN_Configurations->_gpio_pin_direction_intialize

Critical Paths under _InterruptManager in COMRAM

    _InterruptManager->_RB4_ISR
    _InterruptManager->_RB5_ISR
    _InterruptManager->_RB6_ISR
    _InterruptManager->_RB7_ISR

Critical Paths under _main in BANK0

    None.

Critical Paths under _InterruptManager in BANK0

    None.

Critical Paths under _main in BANK1

    None.

Critical Paths under _InterruptManager in BANK1

    None.

Critical Paths under _main in BANK2

    None.

Critical Paths under _InterruptManager in BANK2

    None.

Critical Paths under _main in BANK3

    None.

Critical Paths under _InterruptManager in BANK3

    None.

Critical Paths under _main in BANK4

    None.

Critical Paths under _InterruptManager in BANK4

    None.

Critical Paths under _main in BANK5

    None.

Critical Paths under _InterruptManager in BANK5

    None.

Critical Paths under _main in BANK6

    None.

Critical Paths under _InterruptManager in BANK6

    None.

Critical Paths under _main in BANK7

    None.

Critical Paths under _InterruptManager in BANK7

    None.

Critical Paths under _main in BANK8

    None.

Critical Paths under _InterruptManager in BANK8

    None.

Critical Paths under _main in BANK9

    None.

Critical Paths under _InterruptManager in BANK9

    None.

Critical Paths under _main in BANK10

    None.

Critical Paths under _InterruptManager in BANK10

    None.

Critical Paths under _main in BANK11

    None.

Critical Paths under _InterruptManager in BANK11

    None.

Critical Paths under _main in BANK12

    None.

Critical Paths under _InterruptManager in BANK12

    None.

Critical Paths under _main in BANK13

    None.

Critical Paths under _InterruptManager in BANK13

    None.

Critical Paths under _main in BANK14

    None.

Critical Paths under _InterruptManager in BANK14

    None.

Critical Paths under _main in BANK15

    None.

Critical Paths under _InterruptManager in BANK15

    None.

Call Graph Tables:

 ---------------------------------------------------------------------------------
 (Depth) Function   	        Calls       Base Space   Used Autos Params    Refs
 ---------------------------------------------------------------------------------
 (0) _main                                                 3     3      0   17496
                                             20 COMRAM     2     2      0
                           _SPI_Init
                      _SPI_Read_Byte
                      _SPI_Send_Byte
              _application_intialize
                 _gpio_pin_intialize
               _gpio_pin_write_logic
 ---------------------------------------------------------------------------------
 (1) _gpio_pin_intialize                                   4     2      2    8170
                                             11 COMRAM     4     2      2
       _gpio_pin_direction_intialize
               _gpio_pin_write_logic
 ---------------------------------------------------------------------------------
 (1) _gpio_pin_write_logic                                10     7      3    5499
                                              1 COMRAM    10     7      3
 ---------------------------------------------------------------------------------
 (1) _application_intialize                                1     1      0       0
                _ecu_layer_intialize
 ---------------------------------------------------------------------------------
 (2) _ecu_layer_intialize                                  1     1      0       0
 ---------------------------------------------------------------------------------
 (1) _SPI_Send_Byte                                        4     1      3     372
                                              1 COMRAM     3     0      3
 ---------------------------------------------------------------------------------
 (1) _SPI_Read_Byte                                        5     1      4     394
                                              1 COMRAM     4     0      4
 ---------------------------------------------------------------------------------
 (1) _SPI_Init                                             4     2      2    3052
                                             17 COMRAM     3     1      2
            _MSSP_SPI_Interrupt_Init
_MSSP_SPI_Msster_Mode_GPIO_PIN_Confi
_MSSP_SPI_Slave_Mode_GPIO_PIN_Config
 ---------------------------------------------------------------------------------
 (2) _MSSP_SPI_Slave_Mode_GPIO_PIN_Configurations          8     6      2    1310
                                             10 COMRAM     7     5      2
       _gpio_pin_direction_intialize
 ---------------------------------------------------------------------------------
 (2) _MSSP_SPI_Msster_Mode_GPIO_PIN_Configurations         6     4      2    1258
                                             10 COMRAM     5     3      2
       _gpio_pin_direction_intialize
 ---------------------------------------------------------------------------------
 (2) _gpio_pin_direction_intialize                         9     7      2    1091
                                              1 COMRAM     9     7      2
 ---------------------------------------------------------------------------------
 (2) _MSSP_SPI_Interrupt_Init                              2     0      2      76
                                              1 COMRAM     2     0      2
 ---------------------------------------------------------------------------------
 Estimated maximum stack depth 2
 ---------------------------------------------------------------------------------
 (Depth) Function   	        Calls       Base Space   Used Autos Params    Refs
 ---------------------------------------------------------------------------------
 (4) _InterruptManager                                     0     0      0     120
                            _ADC_ISR
                           _CCP1_ISR
                           _CCP2_ISR
                      _EUSART_RX_ISR
                      _EUSART_TX_ISR
                           _INT0_ISR
                           _INT1_ISR
                           _INT2_ISR
                    _MSSP_I2C_BC_ISR
                       _MSSP_I2C_ISR
                       _MSSP_SPI_ISR
                            _RB4_ISR
                            _RB5_ISR
                            _RB6_ISR
                            _RB7_ISR
                           _TMR0_ISR
                           _TMR1_ISR
                           _TMR2_ISR
                           _TMR3_ISR
 ---------------------------------------------------------------------------------
 (5) _TMR3_ISR                                             0     0      0       0
 ---------------------------------------------------------------------------------
 (5) _TMR2_ISR                                             0     0      0       0
 ---------------------------------------------------------------------------------
 (5) _TMR1_ISR                                             0     0      0       0
 ---------------------------------------------------------------------------------
 (5) _TMR0_ISR                                             0     0      0       0
 ---------------------------------------------------------------------------------
 (5) _RB7_ISR                                              1     1      0      30
                                              0 COMRAM     1     1      0
 ---------------------------------------------------------------------------------
 (5) _RB6_ISR                                              1     1      0      30
                                              0 COMRAM     1     1      0
 ---------------------------------------------------------------------------------
 (5) _RB5_ISR                                              1     1      0      30
                                              0 COMRAM     1     1      0
 ---------------------------------------------------------------------------------
 (5) _RB4_ISR                                              1     1      0      30
                                              0 COMRAM     1     1      0
 ---------------------------------------------------------------------------------
 (5) _MSSP_SPI_ISR                                         0     0      0       0
 ---------------------------------------------------------------------------------
 (5) _MSSP_I2C_ISR                                         0     0      0       0
 ---------------------------------------------------------------------------------
 (5) _MSSP_I2C_BC_ISR                                      0     0      0       0
 ---------------------------------------------------------------------------------
 (5) _INT2_ISR                                             0     0      0       0
 ---------------------------------------------------------------------------------
 (5) _INT1_ISR                                             0     0      0       0
 ---------------------------------------------------------------------------------
 (5) _INT0_ISR                                             0     0      0       0
 ---------------------------------------------------------------------------------
 (5) _EUSART_TX_ISR                                        0     0      0       0
 ---------------------------------------------------------------------------------
 (5) _EUSART_RX_ISR                                        0     0      0       0
 ---------------------------------------------------------------------------------
 (5) _CCP2_ISR                                             0     0      0       0
 ---------------------------------------------------------------------------------
 (5) _CCP1_ISR                                             0     0      0       0
 ---------------------------------------------------------------------------------
 (5) _ADC_ISR                                              0     0      0       0
 ---------------------------------------------------------------------------------
 Estimated maximum stack depth 5
 ---------------------------------------------------------------------------------

 Call Graph Graphs:

 _main (ROOT)
   _SPI_Init
     _MSSP_SPI_Interrupt_Init
     _MSSP_SPI_Msster_Mode_GPIO_PIN_Configurations
       _gpio_pin_direction_intialize
     _MSSP_SPI_Slave_Mode_GPIO_PIN_Configurations
       _gpio_pin_direction_intialize
   _SPI_Read_Byte
   _SPI_Send_Byte
   _application_intialize
     _ecu_layer_intialize
   _gpio_pin_intialize
     _gpio_pin_direction_intialize
     _gpio_pin_write_logic
   _gpio_pin_write_logic

 _InterruptManager (ROOT)
   _ADC_ISR
   _CCP1_ISR
   _CCP2_ISR
   _EUSART_RX_ISR
   _EUSART_TX_ISR
   _INT0_ISR
   _INT1_ISR
   _INT2_ISR
   _MSSP_I2C_BC_ISR
   _MSSP_I2C_ISR
   _MSSP_SPI_ISR
   _RB4_ISR
   _RB5_ISR
   _RB6_ISR
   _RB7_ISR
   _TMR0_ISR
   _TMR1_ISR
   _TMR2_ISR
   _TMR3_ISR

 Address spaces:
Name               Size   Autos  Total    Cost      Usage
BIGRAM             F7F      0       0      49        0.0%
EEDATA             400      0       0       0        0.0%
BITBANK14          100      0       0      33        0.0%
BANK14             100      0       0      34        0.0%
BITBANK13          100      0       0      31        0.0%
BANK13             100      0       0      32        0.0%
BITBANK12          100      0       0      29        0.0%
BANK12             100      0       0      30        0.0%
BITBANK11          100      0       0      27        0.0%
BANK11             100      0       0      28        0.0%
BITBANK10          100      0       0      25        0.0%
BANK10             100      0       0      26        0.0%
BITBANK9           100      0       0      23        0.0%
BANK9              100      0       0      24        0.0%
BITBANK8           100      0       0      21        0.0%
BANK8              100      0       0      22        0.0%
BITBANK7           100      0       0      19        0.0%
BANK7              100      0       0      20        0.0%
BITBANK6           100      0       0      17        0.0%
BANK6              100      0       0      18        0.0%
BITBANK5           100      0       0      15        0.0%
BANK5              100      0       0      16        0.0%
BITBANK4           100      0       0      13        0.0%
BANK4              100      0       0      14        0.0%
BITBANK3           100      0       0      10        0.0%
BANK3              100      0       0      11        0.0%
BITBANK2           100      0       0       8        0.0%
BANK2              100      0       0       9        0.0%
BITBANK1           100      0       0       6        0.0%
BANK1              100      0       0       7        0.0%
BITBANK15           80      0       0      35        0.0%
BANK15              80      0       0      36        0.0%
BITBANK0            80      0       0       4        0.0%
BANK0               80      0      10       5       12.5%
BITCOMRAM           7E      0       0       0        0.0%
COMRAM              7E     16      79       1       96.0%
BITBIGSFRhlhhlh     18      0       0      38        0.0%
BITBIGSFRhh          D      0       0      37        0.0%
BITBIGSFRlllhh       6      0       0      46        0.0%
BITBIGSFRhlhhll      5      0       0      39        0.0%
BITBIGSFRllhllh      4      0       0      43        0.0%
BITBIGSFRllllh       4      0       0      47        0.0%
BITBIGSFRllhllh      4      0       0      44        0.0%
BITBIGSFRlllll       4      0       0      48        0.0%
BITBIGSFRllhllh      1      0       0      42        0.0%
BITBIGSFRllhlh       1      0       0      41        0.0%
BITBIGSFRllhh        1      0       0      40        0.0%
BITBIGSFRllhlll      1      0       0      45        0.0%
BIGSFR               0      0       0     200        0.0%
BITSFR               0      0       0     200        0.0%
SFR                  0      0       0     200        0.0%
STACK                0      0       0       2        0.0%
NULL                 0      0       0       0        0.0%
ABS                  0      0      89      12        0.0%
DATA                 0      0      89       3        0.0%
CODE                 0      0       0       0        0.0%


Microchip Technology PIC18 Macro Assembler V2.41 build 20230208172133 
Symbol Table                                                                                   Sun Jun 11 19:14:44 2023

                                  ??_InterruptManager 0065                       __end_of_MSSP_SPI_Interrupt_Init 1B78  
                                         _SSPSTATbits 0FC7                                         _SPI_Send_Byte 1A5E  
                                                 l347 1B74                                                   l714 16B4  
                                                 l733 17E0                                                   l754 1924  
                                                 _PR2 0FCB                                   SPI_Read_Byte@Config 0065  
                           _RB5_InterruptHandler_HIGH 0021                                       __end_of_ADC_ISR 1B74  
                                 led_initialize@F3016 0040                                                   prod 0FF3  
                               relay_initialize@F3010 003C                                                   wreg 0FE8  
                                     __end_of_RB4_ISR 1B14                                       __end_of_RB5_ISR 1AFA  
                                     __end_of_RB6_ISR 1AE0                                       __end_of_RB7_ISR 1AC6  
                                                l1301 1A86                                                  l1302 1A8A  
                                                l1312 1A2A                                                  l1324 1B76  
                                                l1333 1A5C                                                  l1309 1A0E  
                                                l1280 1432                                                  l1345 19E4  
                                                l1289 1570                                                  l1297 1A74  
                                                l1299 1A78                                                  l1725 1B4E  
                                                l2536 1B74                                                  l5130 15AA  
                                                l5132 15B2                                                  l5140 16B2  
                                                l5124 1572                                                  l5134 1614  
                                                l5126 1576                                                  l5150 16BA  
                                                l5128 1588                                                  l5400 156C  
                                                l5152 16CC                                                  l6200 1868  
                                                l5138 1670                                                  l5250 1A38  
                                                l5242 1A2C                                                  l5402 156E  
                                                l5410 1A70                                                  l5162 17B4  
                                                l5154 16EE                                                  l6202 1878  
                                                l5252 1A44                                                  l5244 1A2C  
                                                l5260 198E                                                  l5420 19F8  
                                                l5412 1A88                                                  l5156 16F6  
                                                l5164 17DE                                                  l5148 16B6  
                                                l6204 188C                                                  l5254 1A50  
                                                l5246 1A30                                                  l5270 19B2  
                                                l5262 1992                                                  l5422 1A0A  
                                                l5406 1A5E                                                  l5158 1758  
                                                l6206 18A2                                                  l5248 1A34  
                                                l5272 19BE                                                  l5264 1996  
                                                l5256 198A                                                  l5424 1A1C  
                                                l5416 19E6                                                  l5408 1A5E  
                                                l6216 17C8                                                  l5280 18CC  
                                                l6218 169C                                                  l5274 19D8  
                                                l5266 199A                                                  l5258 198A  
                                                l5370 141C                                                  l5426 1A28  
                                                l5418 19E6                                                  l5282 18EE  
                                                l6170 17E2                                                  l5268 19A6  
                                                l5380 147A                                                  l5372 142E  
                                                l5284 18F6                                                  l5276 18BA  
                                                l6180 17F6                                                  l6172 17E6  
                                                l5390 14F2                                                  l5382 1494  
                                                l5374 1434                                                  l5286 1922  
                                                l5278 18BA                                                  l6190 1812  
                                                l6182 1802                                                  l6174 17EA  
                                                l5392 14FE                                                  l5384 14AE  
                                                l5376 144A                                                  l5368 141C  
                                                l6192 181E                                                  l6184 180A  
                                                l6176 17EE                                                  l6168 17E2  
                                                l5394 151C                                                  l5386 14BE  
                                                l5378 1462                                                  l2986 1B4A  
                                                l6194 182E                                                  l6186 180E  
                                                l6178 17F2                                                  l5396 153E  
                                                l5388 14D8                                                  l2988 1B4A  
                                                l6196 183E                                                  l6188 1810  
                                                l5398 1560                                                  l6198 1852  
                                                STR_1 1011                                                  _LATA 0F89  
                                                _LATB 0F8A                                                  _LATC 0F8B  
                                                _LATD 0F8C                                                  _LATE 0F8D  
                                                u3400 1588                                                  u3401 1584  
                                                u3410 15AA                                                  u3411 15A6  
                                                u3440 1688                                                  u3424 15D2  
                                                u3441 1682                                                  u3425 15CE  
                                                u3450 168A                                                  u3434 1634  
                                                u3435 1630                                                  u3540 19D8  
                                                u3700 14D8                                                  u3460 16CC  
                                                u3541 19D4                                                  u3701 14D4  
                                                u3461 16C8                                                  u3710 14F2  
                                                u3470 16EE                                                  u3550 18CC  
                                                u3711 14EE                                                  u3471 16EA  
                                                u3551 18C8                                                  u3720 1A70  
                                                u3560 18EE                                                  u3721 1A6C  
                                                u3561 18EA                                                  u3650 142E  
                                                u3730 1A86                                                  u3651 142A  
                                                u3731 1A82                                                  u3660 1462  
                                                u3740 19F8                                                  u3484 1716  
                                                u3661 145E                                                  u3741 19F4  
                                                u3485 1712                                                  u3670 147A  
                                                u3750 1A0A                                                  u3494 1778  
                                                u3671 1476                                                  u3751 1A06  
                                                u3495 1774                                                  u3680 1494  
                                                u3760 1A1C                                                  u3681 1490  
                                                u3761 1A18                                                  u3690 14AE  
                                                u3691 14AA                                                  u4547 185C  
                                                u4557 1896                                                  _TMR2 0FCC  
                             ??_application_intialize 0065                              _RB4_InterruptHandler_LOW 0023  
                                                _main 17E2                                      __end_of_CCP1_ISR 1B70  
                                    __end_of_CCP2_ISR 1B6C                              _RB7_InterruptHandler_LOW 0017  
                                                fsr2h 0FDA                                                  indf2 0FDF  
                                                fsr1l 0FE1                                                  fsr2l 0FD9  
                                                btemp 007A                                                  prodl 0FF3  
                                                start 000E                                        ?_SPI_Read_Byte 0065  
                                        ___param_bank 0000                                  _gpio_pin_write_logic 16B6  
                                      ?_SPI_Send_Byte 0065                                      __end_of_INT0_ISR 1B64  
                                    __end_of_INT1_ISR 1B60                                      __end_of_INT2_ISR 1B5C  
                                       _EUSART_RX_ISR 1B7A                                         _EUSART_TX_ISR 1B64  
                                               ?_main 0064                                                 _EEADR 0FA9  
                                               i2l473 1B72                                                 i2l574 1B6A  
                                               i2l569 1B6E                                                 i2l923 1B56  
                                               i2l919 1B52                                                 i2l992 1B5E  
                                               i2l987 1B62                                                 i2l997 1B5A  
                                               _RCREG 0FAE                                   relay_turn_off@F3020 003A  
                                               _TMR0H 0FD7                                                 _TMR1H 0FCF  
                                               _TMR0L 0FD6                                                 _TMR1L 0FCE  
                                               _TMR3H 0FB3                                                 _TMR3L 0FB2  
                                               _SPBRG 0FAF                                                 _PORTA 0F80  
                                               _PORTB 0F81                                                 _PORTC 0F82  
                                               _PORTD 0F83                                                 _PORTE 0F84  
                                               _TRISA 0F92                                                 _TRISB 0F93  
                                               _TRISC 0F94                                                 _TRISD 0F95  
                                               _TRISE 0F96                                                 _TXREG 0FAD  
                                    __end_of_TMR0_ISR 1B38                                      __end_of_TMR1_ISR 1B2C  
                                    __end_of_TMR2_ISR 1B4A                                      __end_of_TMR3_ISR 1B20  
                                    __end_of_SPI_Init 1572                                                 tablat 0FF5  
                                               ttemp5 007B                                                 ttemp6 007E  
                                               ttemp7 0082                                                 status 0FD8  
                                               wtemp8 007B                                       __initialization 1926  
                                        __end_of_main 18BA                                 ?_gpio_pin_write_logic 0065  
                                           ??_ADC_ISR 0064                                        ?_EUSART_RX_ISR 0064  
                                      ?_EUSART_TX_ISR 0064                                         _lat_registers 0045  
                                              ??_main 0078                                         __activetblptr 0003  
                               _TMR3_InterruptHandler 000B                                      led_turn_on@F3021 003F  
                                           ??_RB4_ISR 0064                                             ??_RB5_ISR 0064  
                                           ??_RB6_ISR 0064                                             ??_RB7_ISR 0064  
                          _EUSART_OverrunErrorHandler 0001                                                _ADRESH 0FC4  
                                              _EEADRH 0FAA                                                _ADRESL 0FC3  
                                              _EEDATA 0FA8                                                _CCPR1L 0FBE  
                                              _CCPR2L 0FBB                                                _EECON2 0FA7  
                                              i2l1030 1ADE                                                i2l1008 1B12  
                                              i2l1041 1AC4                                                i2l1019 1AF8  
                                              i2l1220 1078                                                i2l1230 11CC  
                                              i2l1222 10BC                                                i2l1240 12D8  
                                              i2l1232 1210                                                i2l1224 1100  
                                              i2l1216 1038                                                i2l1321 1B78  
                                              i2l1250 1378                                                i2l1242 12F8  
                                              i2l1234 1254                                                i2l1226 1144  
                                              i2l1218 1058                                                i2l1252 1398  
                                              i2l1244 1318                                                i2l1236 1298  
                                              i2l1228 1188                                                i2l1261 1418  
                                              i2l1254 13B8                                                i2l1246 1338  
                                              i2l1238 12B8                                                i2l1256 13D8  
                                              i2l1248 1358                                                i2l1258 13F8  
                                              i2l1507 1B48                                                i2l1551 1B1E  
                                              i2l1456 1B2A                                                i2l1387 1B36  
                                              i2l2800 1AC8                                                i2l2722 1B6C  
                                              i2l2802 1ACA                                                i2l1683 1B66  
                                              i2l1692 1B7A                                                i2l4500 1094  
                                              i2l2718 1B70                                                i2l2750 1B54  
                                              i2l2822 1AC4                                                i2l2814 1AAE  
                                              i2l4510 10D8                                                i2l4502 10A2  
                                              i2l2728 1B68                                                i2l2904 1B7A  
                                              i2l2760 1B5C                                                i2l2808 1ADE  
                                              i2l2816 1AB0                                                i2l4600 1354  
                                              i2l4520 111C                                                i2l4512 10E6  
                                              i2l4504 10B2                                                i2l2754 1B60  
                                              i2l2746 1B50                                                i2l4610 13A6  
                                              i2l4602 1366                                                i2l4530 1160  
                                              i2l4522 112A                                                i2l4514 10F6  
                                              i2l4506 10B6                                                i2l2780 1B12  
                                              i2l2772 1AFC                                                i2l4620 13F4  
                                              i2l4612 13B4                                                i2l4604 1374  
                                              i2l4540 11A4                                                i2l4532 116E  
                                              i2l4524 113A                                                i2l4516 10FA  
                                              i2l4508 10CA                                                i2l2766 1B58  
                                              i2l2774 1AFE                                                i2l2870 1B2C  
                                              i2l4622 1406                                                i2l4614 13C6  
                                              i2l4606 1386                                                i2l4550 11E8  
                                              i2l4542 11B2                                                i2l4534 117E  
                                              i2l4526 113E                                                i2l4518 110E  
                                              i2l2872 1B2E                                                i2l2880 1B22  
                                              i2l4624 1414                                                i2l4616 13D4  
                                              i2l4608 1394                                                i2l4560 122C  
                                              i2l4552 11F6                                                i2l4544 11C2  
                                              i2l4536 1182                                                i2l4528 1152  
                                              i2l2794 1AF8                                                i2l2786 1AE2  
                                              i2l2874 1B32                                                i2l2882 1B26  
                                              i2l2890 1B14                                                i2l4618 13E6  
                                              i2l4570 1270                                                i2l4562 123A  
                                              i2l4554 1206                                                i2l4546 11C6  
                                              i2l4538 1196                                                i2l4490 1046  
                                              i2l2788 1AE4                                                i2l2892 1B16  
                                              i2l4580 12B4                                                i2l4572 127E  
                                              i2l4564 124A                                                i2l4556 120A  
                                              i2l4548 11DA                                                i2l4492 1054  
                                              i2l4484 1018                                                i2l2878 1B20  
                                              i2l2886 1B42                                                i2l2894 1B1A  
                                              i2l4590 1306                                                i2l4582 12C6  
                                              i2l4574 128E                                                i2l4566 124E  
                                              i2l4558 121E                                                i2l4494 1066  
                                              i2l4486 1026                                                i2l4592 1314  
                                              i2l4584 12D4                                                i2l4576 1292  
                                              i2l4568 1262                                                i2l4496 1074  
                                              i2l4488 1034                                                i2l2898 1B64  
                                              i2l4594 1326                                                i2l4586 12E6  
                                              i2l4578 12A6                                                i2l4498 1086  
                                              i2l4596 1334                                                i2l4588 12F4  
                                              i2l4598 1346                                                _SPBRGH 0FB0  
                                              _SSPADD 0FC8                                                _SSPBUF 0FC9  
                                     ??_SPI_Read_Byte 0069                                       ??_SPI_Send_Byte 0068  
                                              clear_0 197A                                                isa$std 0001  
             gpio_pin_direction_intialize@_pin_config 0065           _I2C_Report_Receive_Overflow_InterruptHandle 002D  
                                           ?_CCP1_ISR 0064                                          __pdataCOMRAM 0045  
                                           ?_CCP2_ISR 0064                                          __mediumconst 0000  
                                              tblptrh 0FF7                                                tblptrl 0FF6  
                                              tblptru 0FF8                                            __accesstop 0080  
                             __end_of__initialization 1980                                             ?_INT0_ISR 0064  
                                           ?_INT1_ISR 0064                                             ?_INT2_ISR 0064  
                                       ___rparam_used 0001                                     RB5_ISR@RB5_Source 0064  
                              ??_gpio_pin_write_logic 0068                                        __pcstackCOMRAM 0064  
                          _I2C_DefaultInterruptHandle 002F                                          __pidataBANK0 1B38  
                                           ?_TMR0_ISR 0064                                       ??_EUSART_RX_ISR 0064  
                                           ?_TMR1_ISR 0064                                             ?_TMR2_ISR 0064  
                                           ?_TMR3_ISR 0064                                       ??_EUSART_TX_ISR 0064  
                                           ?_SPI_Init 0075                                            ??_CCP1_ISR 0064  
                                          ??_CCP2_ISR 0064                                            __pbssBANK0 008A  
                               _INT0_InterruptHandler 002B                                            ??_INT0_ISR 0064  
                                          ??_INT1_ISR 0064                                            ??_INT2_ISR 0064  
                       __end_of_application_intialize 1B50                                   SPI_Send_Byte@Config 0065  
                                          ??_TMR0_ISR 0064                                            ??_TMR1_ISR 0064  
                                          ??_TMR2_ISR 0064                                            ??_TMR3_ISR 0064  
                                   led_turn_off@F3026 003E   __end_of_MSSP_SPI_Slave_Mode_GPIO_PIN_Configurations 19E6  
       ??_MSSP_SPI_Slave_Mode_GPIO_PIN_Configurations 0070          ?_MSSP_SPI_Slave_Mode_GPIO_PIN_Configurations 006E  
         _MSSP_SPI_Slave_Mode_GPIO_PIN_Configurations 198A                                               _ADC_ISR 1B70  
                                          ??_SPI_Init 0077                                     RB7_ISR@RB7_Source 0064  
                                             _RB4_ISR 1AFA                                               _RB5_ISR 1AE0  
                                             _RB6_ISR 1AC6                                               _RB7_ISR 1AAC  
                           _RB6_InterruptHandler_HIGH 001D                                         ?_MSSP_I2C_ISR 0064  
                                led_turn_toggle@F3031 003D                                               i2u36_40 1B0E  
                                             i2u36_41 1B0A                                               i2u37_40 1AF4  
                                             i2u37_41 1AF0                                               i2u38_40 1ADA  
                                             i2u38_41 1AD6                                               i2u39_40 1AC0  
                                             i2u39_41 1ABC                                               _SPI_SS1 0044  
                                             _SPI_Obj 0041                               _MSSP_SPI_Interrupt_Init 1B76  
                                          _btn_values 1001                                        _tris_registers 004F  
                            _RB6_InterruptHandler_LOW 001B                                         ?_MSSP_SPI_ISR 0064  
                                   ??_MSSP_I2C_BC_ISR 0064                                  _ADC_InterruptHandler 0037  
                                             __Hparam 0000                                               __Lparam 0000  
                                 _ecu_layer_intialize 1B74                                          __psmallconst 1000  
                          __end_of_gpio_pin_intialize 1926                                               __pcinit 1926  
__end_of_MSSP_SPI_Msster_Mode_GPIO_PIN_Configurations 1A5E        ??_MSSP_SPI_Msster_Mode_GPIO_PIN_Configurations 0070  
       ?_MSSP_SPI_Msster_Mode_GPIO_PIN_Configurations 006E          _MSSP_SPI_Msster_Mode_GPIO_PIN_Configurations 1A2C  
                                             __ramtop 1000                                               __ptext0 17E2  
                                             __ptext1 18BA                                               __ptext2 16B6  
                                             __ptext3 1B4A                                               __ptext4 1B74  
                                             __ptext5 1A5E                                               __ptext6 19E6  
                                             __ptext7 141C                                               __ptext8 198A  
                                             __ptext9 1A2C                                             _T0CONbits 0FD5  
                                           _T1CONbits 0FCD                                        ??_MSSP_I2C_ISR 0064  
                                           _T2CONbits 0FCA                                             _T3CONbits 0FB1  
                                ?_ecu_layer_intialize 0064                                        __pintcode_body 1016  
                                end_of_initialization 1980                                               int_func 1016  
                                      ??_MSSP_SPI_ISR 0064                                 gpio_pin_intialize@ret 0072  
                                           _RCSTAbits 0FAB                                               postdec1 0FE5  
                                             postdec2 0FDD                                               postinc0 0FEE  
                                             postinc2 0FDE                                 _INT1_InterruptHandler 0029  
                                           _PORTBbits 0F81                                        SPI_Init@Config 0075  
                                    _InterruptManager 0008                         gpio_pin_intialize@_pin_config 006F  
                               ??_ecu_layer_intialize 0065    MSSP_SPI_Slave_Mode_GPIO_PIN_Configurations@SPI_CLK 0073  
 MSSP_SPI_Msster_Mode_GPIO_PIN_Configurations@SPI_CLK 0072                  __end_of_gpio_pin_direction_intialize 16B6  
                        _gpio_pin_direction_intialize 1572    MSSP_SPI_Slave_Mode_GPIO_PIN_Configurations@SPI_SDI 0072  
 MSSP_SPI_Msster_Mode_GPIO_PIN_Configurations@SPI_SDI 0071    MSSP_SPI_Slave_Mode_GPIO_PIN_Configurations@SPI_SDO 0071  
 MSSP_SPI_Msster_Mode_GPIO_PIN_Configurations@SPI_SDO 0070                             ??_MSSP_SPI_Interrupt_Init 0067  
                                           _TRISCbits 0F94                                    SPI_Read_Byte@_data 0067  
                                         _CCP1CONbits 0FBD                                           _CCP2CONbits 0FBA  
                                           _TXSTAbits 0FAC                                 __end_of_SPI_Read_Byte 1A2C  
                                  relay_turn_on@F3015 003B                         convert_uint16_to_string@F3166 008A  
                               __end_of_SPI_Send_Byte 1A8C                                           _BAUDCONbits 0FB8  
                                       __pidataCOMRAM 1A8C                                        _timer0_preload 0013  
                                      _timer1_preload 000F                                        _timer2_preload 0039  
                                 start_initialization 1926                                        _timer3_preload 0009  
   MSSP_SPI_Msster_Mode_GPIO_PIN_Configurations@F3060 005E     MSSP_SPI_Msster_Mode_GPIO_PIN_Configurations@F3062 005D  
    MSSP_SPI_Slave_Mode_GPIO_PIN_Configurations@F3071 005A      MSSP_SPI_Slave_Mode_GPIO_PIN_Configurations@F3073 0059  
   MSSP_SPI_Msster_Mode_GPIO_PIN_Configurations@F3058 005F      MSSP_SPI_Slave_Mode_GPIO_PIN_Configurations@F3067 005C  
    MSSP_SPI_Slave_Mode_GPIO_PIN_Configurations@F3069 005B                         ?_gpio_pin_direction_intialize 0065  
                           _EUSART_RxInterruptHandler 0005                                  __end_of_MSSP_I2C_ISR 1B54  
                          _EUSART_FramingErrorHandler 0003                                           __pdataBANK0 0080  
                                            ?_ADC_ISR 0064                                 __end_of_EUSART_RX_ISR 1B7C  
                               __end_of_EUSART_TX_ISR 1B68                                  __end_of_MSSP_SPI_ISR 1B7A  
                                            ?_RB4_ISR 0064                                              ?_RB5_ISR 0064  
                                            ?_RB6_ISR 0064                                              ?_RB7_ISR 0064  
                                         __pbssCOMRAM 0001           _I2C_Report_Write_Collision_InterruptHandler 0031  
                                     _MSSP_I2C_BC_ISR 1B54                                 _INT2_InterruptHandler 0027  
                     gpio_pin_direction_intialize@ret 006D                                 _TMR0_InterruptHandler 0015  
                               _application_intialize 1B4A                                    SPI_Send_Byte@_data 0067  
                                           __pintcode 0008                       gpio_pin_write_logic@_pin_config 0065  
                           gpio_pin_write_logic@logic 0067                                           __smallconst 1000  
                           _RB4_InterruptHandler_HIGH 0025                                              _CCP1_ISR 1B6C  
                                            _CCP2_ISR 1B68                             _RB7_InterruptHandler_HIGH 0019  
                                  _gpio_pin_intialize 18BA                        ??_gpio_pin_direction_intialize 0067  
                            _RB5_InterruptHandler_LOW 001F                                              _INT0_ISR 1B60  
                                            _INT1_ISR 1B5C                                              _INT2_ISR 1B58  
                                            _RB4_Flag 0063                                              _RB5_Flag 0062  
                                            _RB6_Flag 0061                                              _RB7_Flag 0060  
                                   RB4_ISR@RB4_Source 0064                                   ?_gpio_pin_intialize 006F  
                            __end_of_InterruptManager 141C                                              _PIE1bits 0F9D  
                                            _PIE2bits 0FA0                                              i2u230_40 1054  
                                            i2u230_41 1050                                              i2u231_40 1066  
                                            i2u231_41 1062                                              i2u240_40 10F6  
                                            i2u232_40 1074                                              i2u240_41 10F2  
                                            i2u232_41 1070                                              i2u241_40 110E  
                                            i2u233_40 1086                                              i2u241_41 110A  
                                            i2u233_41 1082                                              i2u250_40 11A4  
                                            i2u242_40 111C                                              i2u234_40 1094  
                                            i2u250_41 11A0                                              i2u242_41 1118  
                                            i2u234_41 1090                                              i2u251_40 11B2  
                                            i2u243_40 112A                                              i2u235_40 10A2  
                                            i2u227_40 1026                                              i2u251_41 11AE  
                                            i2u243_41 1126                                              i2u235_41 109E  
                                            i2u227_41 1022                                              i2u260_40 124A  
                                            i2u252_40 11C2                                              i2u244_40 113A  
                                            i2u236_40 10B2                                              i2u228_40 1034  
                                            i2u260_41 1246                                              i2u252_41 11BE  
                                            i2u244_41 1136                                              i2u236_41 10AE  
                                            i2u228_41 1030                                              i2u261_40 1262  
                                            i2u253_40 11DA                                              i2u245_40 1152  
                                            i2u237_40 10CA                                              i2u229_40 1046  
                                            i2u261_41 125E                                              i2u253_41 11D6  
                                            i2u245_41 114E                                              i2u237_41 10C6  
                                            i2u229_41 1042                                              i2u270_40 12F4  
                                            i2u262_40 1270                                              i2u254_40 11E8  
                                            i2u246_40 1160                                              i2u238_40 10D8  
                                            i2u270_41 12F0                                              i2u262_41 126C  
                                            i2u254_41 11E4                                              i2u246_41 115C  
                                            i2u238_41 10D4                                              i2u271_40 1306  
                                            i2u263_40 127E                                              i2u255_40 11F6  
                                            i2u247_40 116E                                              i2u239_40 10E6  
                                            i2u271_41 1302                                              i2u263_41 127A  
                                            i2u255_41 11F2                                              i2u247_41 116A  
                                            i2u239_41 10E2                                              i2u280_40 1394  
                                            i2u272_40 1314                                              i2u264_40 128E  
                                            i2u256_40 1206                                              i2u248_40 117E  
                                            i2u280_41 1390                                              i2u272_41 1310  
                                            i2u264_41 128A                                              i2u256_41 1202  
                                            i2u248_41 117A                                              i2u281_40 13A6  
                                            i2u273_40 1326                                              i2u265_40 12A6  
                                            i2u257_40 121E                                              i2u249_40 1196  
                                            i2u281_41 13A2                                              i2u273_41 1322  
                                            i2u265_41 12A2                                              i2u257_41 121A  
                                            i2u249_41 1192                                              _PIR1bits 0F9E  
                                            i2u282_40 13B4                                              i2u274_40 1334  
                                            i2u266_40 12B4                                              i2u258_40 122C  
                                            i2u282_41 13B0                                              i2u274_41 1330  
                                            i2u266_41 12B0                                              i2u258_41 1228  
                                            i2u283_40 13C6                                              i2u275_40 1346  
                                            i2u267_40 12C6                                              i2u259_40 123A  
                                            i2u283_41 13C2                                              i2u275_41 1342  
                                            i2u267_41 12C2                                              i2u259_41 1236  
                                            _PIR2bits 0FA1                                              i2u284_40 13D4  
                                            i2u276_40 1354                                              i2u268_40 12D4  
                                            i2u284_41 13D0                                              i2u276_41 1350  
                                            i2u268_41 12D0                                              i2u285_40 13E6  
                                            i2u277_40 1366                                              i2u269_40 12E6  
                                            i2u285_41 13E2                                              i2u277_41 1362  
                                            i2u269_41 12E2                                              i2u286_40 13F4  
                                            i2u278_40 1374                                              i2u286_41 13F0  
                                            i2u278_41 1370                                              i2u287_40 1406  
                                            i2u279_40 1386                                              i2u287_41 1402  
                                            i2u279_41 1382                                              i2u288_40 1414  
                                            i2u288_41 1410                                              _TMR0_ISR 1B2C  
                                            _TMR1_ISR 1B20                                              _TMR2_ISR 1B42  
                                            _TMR3_ISR 1B14     MSSP_SPI_Slave_Mode_GPIO_PIN_Configurations@SPI_SS 0074  
                                            _SPI_Init 141C                                            _ADCON0bits 0FC2  
                                          _ADCON1bits 0FC1                                            _ADCON2bits 0FC0  
   MSSP_SPI_Slave_Mode_GPIO_PIN_Configurations@Config 006E    MSSP_SPI_Msster_Mode_GPIO_PIN_Configurations@Config 006E  
                             __end_of_MSSP_I2C_BC_ISR 1B58                                  ??_gpio_pin_intialize 0071  
                             gpio_pin_write_logic@ret 006E                                           _INTCON2bits 0FF1  
                                         _INTCON3bits 0FF0                                             copy_data0 193A  
                                           copy_data1 195A                         MSSP_SPI_Interrupt_Init@Config 0065  
                                          _EECON1bits 0FA6                                ?_application_intialize 0064  
                                            __Hrparam 0000                                              __Lrparam 0000  
                                   RB6_ISR@RB6_Source 0064                                 _CCP1_InterruptHandler 0035  
                         __end_of_ecu_layer_intialize 1B76                                    __end_of_btn_values 1011  
                               _TMR1_InterruptHandler 0011                                          _MSSP_I2C_ISR 1B50  
                                            __ptext10 1572                                              __ptext11 1B76  
                                            __ptext20 1AFA                                              __ptext21 1B78  
                                            __ptext13 1B14                                              __ptext30 1B6C  
                                            __ptext22 1B50                                              __ptext14 1B42  
                                            __ptext31 1B70                                              __ptext23 1B54  
                                            __ptext15 1B20                                              __ptext24 1B58  
                                            __ptext16 1B2C                                              __ptext25 1B5C  
                                            __ptext17 1AAC                                              __ptext26 1B60  
                                            __ptext18 1AC6                                              __ptext27 1B64  
                                            __ptext19 1AE0                                              __ptext28 1B7A  
                                            __ptext29 1B68                                          _MSSP_SPI_ISR 1B78  
                                            isa$xinst 0000                                              int$flags 007A  
                            ?_MSSP_SPI_Interrupt_Init 0065                                      ?_MSSP_I2C_BC_ISR 0064  
                                          _INTCONbits 0FF2                          __end_of_gpio_pin_write_logic 17E2  
                                            intlevel2 0000                             _EUSART_TxInterruptHandler 0007  
                                      _port_registers 0080                                           _SSPCON1bits 0FC6  
                                         _SSPCON2bits 0FC5                         _SPI_Msater_Side_Slave1_RetVal 0043  
                               _CCP2_InterruptHandler 0033                                 _TMR2_InterruptHandler 000D  
                                   ?_InterruptManager 0064                                         _SPI_Read_Byte 19E6  
