

Microchip MPLAB XC8 Assembler V2.41 build 20230208172133 
                                                                                               Mon Jul 10 02:13:22 2023

Microchip MPLAB XC8 C Compiler v2.41 (Free license) build 20230208172133 Og1 
     1                           	processor	18F4620
     2                           	fnconf	rparam,??,?,0
     3                           	pagewidth 120
     4                           	opt	flic
     5                           	psect	idataCOMRAM,global,class=CODE,delta=1,noexec
     6                           	psect	idataBANK0,global,class=CODE,delta=1,noexec
     7                           	psect	smallconst,global,reloc=2,class=SMALLCONST,delta=1,noexec
     8                           	psect	nvBANK0,global,class=BANK0,space=1,delta=1,lowdata,noexec
     9                           	psect	cinit,global,reloc=2,class=CODE,delta=1
    10                           	psect	bssCOMRAM,global,class=COMRAM,space=1,delta=1,lowdata,noexec
    11                           	psect	dataCOMRAM,global,class=COMRAM,space=1,delta=1,lowdata,noexec
    12                           	psect	bssBANK0,global,class=BANK0,space=1,delta=1,lowdata,noexec
    13                           	psect	dataBANK0,global,class=BANK0,space=1,delta=1,lowdata,noexec
    14                           	psect	cstackBANK0,global,class=BANK0,space=1,delta=1,lowdata,noexec
    15                           	psect	cstackCOMRAM,global,class=COMRAM,space=1,delta=1,lowdata,noexec
    16                           	psect	text0,global,reloc=2,class=CODE,delta=1
    17                           	psect	text1,global,reloc=2,class=CODE,delta=1
    18                           	psect	text2,global,reloc=2,class=CODE,delta=1
    19                           	psect	text3,global,reloc=2,class=CODE,delta=1
    20                           	psect	text4,global,reloc=2,class=CODE,delta=1
    21                           	psect	text5,global,reloc=2,class=CODE,delta=1
    22                           	psect	text6,global,reloc=2,class=CODE,delta=1
    23                           	psect	text7,global,reloc=2,class=CODE,delta=1
    24                           	psect	text8,global,reloc=2,class=CODE,delta=1
    25                           	psect	text9,global,reloc=2,class=CODE,delta=1
    26                           	psect	text10,global,reloc=2,class=CODE,delta=1
    27                           	psect	text11,global,reloc=2,class=CODE,delta=1
    28                           	psect	text12,global,reloc=2,class=CODE,delta=1
    29                           	psect	text13,global,reloc=2,class=CODE,delta=1
    30                           	psect	text14,global,reloc=2,class=CODE,delta=1
    31                           	psect	text15,global,reloc=2,class=CODE,delta=1
    32                           	psect	text16,global,reloc=2,class=CODE,delta=1
    33                           	psect	text17,global,reloc=2,class=CODE,delta=1
    34                           	psect	text18,global,reloc=2,class=CODE,delta=1
    35                           	psect	text19,global,reloc=2,class=CODE,delta=1
    36                           	psect	text20,global,reloc=2,class=CODE,delta=1
    37                           	psect	intcode,global,reloc=2,class=CODE,delta=1
    38                           	psect	intcode_body,global,reloc=2,class=CODE,delta=1
    39                           	psect	text22,global,reloc=2,class=CODE,delta=1
    40                           	psect	text23,global,reloc=2,class=CODE,delta=1
    41                           	psect	text24,global,reloc=2,class=CODE,delta=1
    42                           	psect	text25,global,reloc=2,class=CODE,delta=1
    43                           	psect	text26,global,reloc=2,class=CODE,delta=1
    44                           	psect	text27,global,reloc=2,class=CODE,delta=1
    45                           	psect	text28,global,reloc=2,class=CODE,delta=1
    46                           	psect	text29,global,reloc=2,class=CODE,delta=1
    47                           	psect	text30,global,reloc=2,class=CODE,delta=1
    48                           	psect	text31,global,reloc=2,class=CODE,delta=1
    49                           	psect	text32,global,reloc=2,class=CODE,delta=1
    50                           	psect	text33,global,reloc=2,class=CODE,delta=1
    51                           	psect	text34,global,reloc=2,class=CODE,delta=1
    52                           	psect	text35,global,reloc=2,class=CODE,delta=1
    53                           	psect	text36,global,reloc=2,class=CODE,delta=1
    54                           	psect	text37,global,reloc=2,class=CODE,delta=1
    55                           	psect	text38,global,reloc=2,class=CODE,delta=1
    56                           	psect	text39,global,reloc=2,class=CODE,delta=1
    57                           	psect	text40,global,reloc=2,class=CODE,delta=1
    58                           	psect	intsave_regs,global,class=BIGRAM,space=1,delta=1,noexec
    59                           	psect	text41,global,reloc=2,class=CODE,delta=1
    60                           	psect	rparam,global,class=COMRAM,space=1,delta=1,noexec
    61                           	psect	temp,global,ovrld,common,class=COMRAM,space=1,delta=1
    62                           	psect	idloc,global,abs,ovrld,class=IDLOC,space=5,delta=1,noexec
    63                           	psect	config,global,abs,ovrld,class=CONFIG,space=4,delta=1,noexec
    64   000000                     
    65                           ; Version 2.20
    66                           ; Generated 12/02/2020 GMT
    67                           ; 
    68                           ; Copyright © 2020, Microchip Technology Inc. and its subsidiaries ("Microchip")
    69                           ; All rights reserved.
    70                           ; 
    71                           ; This software is developed by Microchip Technology Inc. and its subsidiaries ("Microch
      +                          ip").
    72                           ; 
    73                           ; Redistribution and use in source and binary forms, with or without modification, are
    74                           ; permitted provided that the following conditions are met:
    75                           ; 
    76                           ;     1. Redistributions of source code must retain the above copyright notice, this lis
      +                          t of
    77                           ;        conditions and the following disclaimer.
    78                           ; 
    79                           ;     2. Redistributions in binary form must reproduce the above copyright notice, this 
      +                          list
    80                           ;        of conditions and the following disclaimer in the documentation and/or other
    81                           ;        materials provided with the distribution.
    82                           ; 
    83                           ;     3. Microchip's name may not be used to endorse or promote products derived from th
      +                          is
    84                           ;        software without specific prior written permission.
    85                           ; 
    86                           ; THIS SOFTWARE IS PROVIDED BY MICROCHIP "AS IS" AND ANY EXPRESS OR IMPLIED WARRANTIES,
    87                           ; INCLUDING, BUT NOT LIMITED TO, THE IMPLIED WARRANTIES OF MERCHANTABILITY AND FITNESS F
      +                          OR
    88                           ; PURPOSE ARE DISCLAIMED.  IN NO EVENT SHALL MICROCHIP BE LIABLE FOR ANY DIRECT, INDIREC
      +                          T,
    89                           ; INCIDENTAL, SPECIAL, EXEMPLARY, OR CONSEQUENTIAL DAMAGES (INCLUDING BUT NOT LIMITED TO
    90                           ; PROCUREMENT OF SUBSTITUTE GOODS OR SERVICES; LOSS OF USE, DATA OR PROFITS; OR BUSINESS
    91                           ; INTERRUPTION) HOWSOEVER CAUSED AND ON ANY THEORY OF LIABILITY, WHETHER IN CONTRACT, ST
      +                          RICT
    92                           ; LIABILITY, OR TORT (INCLUDING NEGLIGENCE OR OTHERWISE) ARISING IN ANY WAY OUT OF THE U
      +                          SE OF
    93                           ; THIS SOFTWARE, EVEN IF ADVISED OF THE POSSIBILITY OF SUCH DAMAGE.
    94                           ; 
    95                           ; 
    96                           ; Code-generator required, PIC18F4620 Definitions
    97                           ; 
    98                           ; SFR Addresses
    99   000000                     
   100                           	psect	idataCOMRAM
   101   0021AC                     __pidataCOMRAM:
   102                           	callstack 0
   103                           
   104                           ;initializer for _samefunctionFlage
   105   0021AC  01                 	db	1
   106                           
   107                           ;initializer for MSSP_SPI_Slave_Mode_GPIO_PIN_Configurations@F3073
   108   0021AD  68                 	db	104
   109                           
   110                           ;initializer for MSSP_SPI_Slave_Mode_GPIO_PIN_Configurations@F3071
   111   0021AE  5A                 	db	90
   112                           
   113                           ;initializer for MSSP_SPI_Slave_Mode_GPIO_PIN_Configurations@F3069
   114   0021AF  62                 	db	98
   115                           
   116                           ;initializer for MSSP_SPI_Slave_Mode_GPIO_PIN_Configurations@F3067
   117   0021B0  2A                 	db	42
   118                           
   119                           ;initializer for MSSP_SPI_Msster_Mode_GPIO_PIN_Configurations@F3062
   120   0021B1  1A                 	db	26
   121                           
   122                           ;initializer for MSSP_SPI_Msster_Mode_GPIO_PIN_Configurations@F3060
   123   0021B2  62                 	db	98
   124                           
   125                           ;initializer for MSSP_SPI_Msster_Mode_GPIO_PIN_Configurations@F3058
   126   0021B3  2A                 	db	42
   127                           
   128                           ;initializer for _RB7_Flag
   129   0021B4  01                 	db	1
   130                           
   131                           ;initializer for _RB6_Flag
   132   0021B5  01                 	db	1
   133                           
   134                           ;initializer for _RB5_Flag
   135   0021B6  01                 	db	1
   136                           
   137                           ;initializer for _RB4_Flag
   138   0021B7  01                 	db	1
   139                           
   140                           ;initializer for _lcd1
   141   0021B8  02                 	db	2
   142   0021B9  0A                 	db	10
   143   0021BA  12                 	db	18
   144   0021BB  1A                 	db	26
   145   0021BC  22                 	db	34
   146   0021BD  2A                 	db	42
   147                           
   148                           	psect	idataBANK0
   149   0020D8                     __pidataBANK0:
   150                           	callstack 0
   151                           
   152                           ;initializer for _port_registers
   153   0020D8  80                 	db	128
   154   0020D9  0F                 	db	15
   155   0020DA  81                 	db	129
   156   0020DB  0F                 	db	15
   157   0020DC  82                 	db	130
   158   0020DD  0F                 	db	15
   159   0020DE  83                 	db	131
   160   0020DF  0F                 	db	15
   161   0020E0  84                 	db	132
   162   0020E1  0F                 	db	15
   163                           
   164                           ;initializer for _lat_registers
   165   0020E2  89                 	db	137
   166   0020E3  0F                 	db	15
   167   0020E4  8A                 	db	138
   168   0020E5  0F                 	db	15
   169   0020E6  8B                 	db	139
   170   0020E7  0F                 	db	15
   171   0020E8  8C                 	db	140
   172   0020E9  0F                 	db	15
   173   0020EA  8D                 	db	141
   174   0020EB  0F                 	db	15
   175                           
   176                           ;initializer for _tris_registers
   177   0020EC  92                 	db	146
   178   0020ED  0F                 	db	15
   179   0020EE  93                 	db	147
   180   0020EF  0F                 	db	15
   181   0020F0  94                 	db	148
   182   0020F1  0F                 	db	15
   183   0020F2  95                 	db	149
   184   0020F3  0F                 	db	15
   185   0020F4  96                 	db	150
   186   0020F5  0F                 	db	15
   187                           
   188                           ;initializer for passwordUI@F3111
   189   0020F6  33                 	db	51
   190   0020F7  35                 	db	53
   191   0020F8  32                 	db	50
   192   0020F9  34                 	db	52
   193                           
   194                           ;initializer for _keypad1
   195   0020FA  1B                 	db	27
   196   0020FB  23                 	db	35
   197   0020FC  2B                 	db	43
   198   0020FD  33                 	db	51
   199   0020FE  43                 	db	67
   200   0020FF  4B                 	db	75
   201   002100  53                 	db	83
   202                           
   203                           	psect	smallconst
   204   001000                     __psmallconst:
   205                           	callstack 0
   206   001000  00                 	db	0
   207   001001                     _btn_values:
   208                           	callstack 0
   209   001001  31                 	db	49
   210   001002  32                 	db	50
   211   001003  33                 	db	51
   212   001004  34                 	db	52
   213   001005  35                 	db	53
   214   001006  36                 	db	54
   215   001007  37                 	db	55
   216   001008  38                 	db	56
   217   001009  39                 	db	57
   218   00100A  2A                 	db	42
   219   00100B  30                 	db	48
   220   00100C  23                 	db	35
   221   00100D                     __end_of_btn_values:
   222                           	callstack 0
   223   000000                     _SPBRGH	set	4016
   224   000000                     _SPBRG	set	4015
   225   000000                     _TXREG	set	4013
   226   000000                     _TXSTAbits	set	4012
   227   000000                     _RCREG	set	4014
   228   000000                     _RCSTAbits	set	4011
   229   000000                     _TMR3L	set	4018
   230   000000                     _TMR3H	set	4019
   231   000000                     _TMR2	set	4044
   232   000000                     _T2CONbits	set	4042
   233   000000                     _TMR1L	set	4046
   234   000000                     _TMR1H	set	4047
   235   000000                     _T1CONbits	set	4045
   236   000000                     _TMR0L	set	4054
   237   000000                     _TMR0H	set	4055
   238   000000                     _T0CONbits	set	4053
   239   000000                     _INTCON2bits	set	4081
   240   000000                     _INTCON3bits	set	4080
   241   000000                     _SSPBUF	set	4041
   242   000000                     _SSPSTATbits	set	4039
   243   000000                     _SSPADD	set	4040
   244   000000                     _SSPCON2bits	set	4037
   245   000000                     _SSPCON1bits	set	4038
   246   000000                     _EECON2	set	4007
   247   000000                     _ADCON1bits	set	4033
   248   000000                     _ADRESL	set	4035
   249   000000                     _ADRESH	set	4036
   250   000000                     _INTCONbits	set	4082
   251   000000                     _TRISD	set	3989
   252   000000                     _TRISC	set	3988
   253   000000                     _PR2	set	4043
   254   000000                     _TRISB	set	3987
   255   000000                     _TRISE	set	3990
   256   00100D                     STR_8:
   257   00100D  45                 	db	69	;'E'
   258   00100E  6E                 	db	110	;'n'
   259   00100F  74                 	db	116	;'t'
   260   001010  65                 	db	101	;'e'
   261   001011  72                 	db	114	;'r'
   262   001012  20                 	db	32
   263   001013  50                 	db	80	;'P'
   264   001014  61                 	db	97	;'a'
   265   001015  73                 	db	115	;'s'
   266   001016  73                 	db	115	;'s'
   267   001017  77                 	db	119	;'w'
   268   001018  6F                 	db	111	;'o'
   269   001019  72                 	db	114	;'r'
   270   00101A  64                 	db	100	;'d'
   271   00101B  3A                 	db	58	;':'
   272   00101C  00                 	db	0
   273   00101D                     STR_10:
   274   00101D  57                 	db	87	;'W'
   275   00101E  72                 	db	114	;'r'
   276   00101F  6F                 	db	111	;'o'
   277   001020  6E                 	db	110	;'n'
   278   001021  67                 	db	103	;'g'
   279   001022  20                 	db	32
   280   001023  50                 	db	80	;'P'
   281   001024  61                 	db	97	;'a'
   282   001025  73                 	db	115	;'s'
   283   001026  73                 	db	115	;'s'
   284   001027  77                 	db	119	;'w'
   285   001028  6F                 	db	111	;'o'
   286   001029  72                 	db	114	;'r'
   287   00102A  64                 	db	100	;'d'
   288   00102B  00                 	db	0
   289   00102C                     STR_4:
   290   00102C  57                 	db	87	;'W'
   291   00102D  65                 	db	101	;'e'
   292   00102E  6C                 	db	108	;'l'
   293   00102F  63                 	db	99	;'c'
   294   001030  6F                 	db	111	;'o'
   295   001031  6D                 	db	109	;'m'
   296   001032  65                 	db	101	;'e'
   297   001033  20                 	db	32
   298   001034  48                 	db	72	;'H'
   299   001035  6F                 	db	111	;'o'
   300   001036  6D                 	db	109	;'m'
   301   001037  65                 	db	101	;'e'
   302   001038  00                 	db	0
   303   001039                     STR_5:
   304   001039  53                 	db	83	;'S'
   305   00103A  65                 	db	101	;'e'
   306   00103B  74                 	db	116	;'t'
   307   00103C  74                 	db	116	;'t'
   308   00103D  69                 	db	105	;'i'
   309   00103E  6E                 	db	110	;'n'
   310   00103F  67                 	db	103	;'g'
   311   001040  73                 	db	115	;'s'
   312   001041  3A                 	db	58	;':'
   313   001042  23                 	db	35
   314   001043  00                 	db	0
   315   001044                     STR_6:
   316   001044  53                 	db	83	;'S'
   317   001045  65                 	db	101	;'e'
   318   001046  74                 	db	116	;'t'
   319   001047  74                 	db	116	;'t'
   320   001048  69                 	db	105	;'i'
   321   001049  6E                 	db	110	;'n'
   322   00104A  67                 	db	103	;'g'
   323   00104B  73                 	db	115	;'s'
   324   00104C  00                 	db	0
   325   00104D                     STR_7:
   326   00104D  62                 	db	98	;'b'
   327   00104E  61                 	db	97	;'a'
   328   00104F  63                 	db	99	;'c'
   329   001050  6B                 	db	107	;'k'
   330   001051  3A                 	db	58	;':'
   331   001052  2A                 	db	42
   332   001053  00                 	db	0
   333   001054                     STR_1:
   334   001054  25                 	db	37
   335   001055  69                 	db	105	;'i'
   336   001056  00                 	db	0
   337   001057  00                 	db	0	; dummy byte at the end
   338   000000                     
   339                           	psect	nvBANK0
   340   0000C0                     __pnvBANK0:
   341                           	callstack 0
   342   0000C0                     _interfaceHandler:
   343                           	callstack 0
   344   0000C0                     	ds	2
   345   000000                     _PORTBbits	set	3969
   346   000000                     _TRISCbits	set	3988
   347   000000                     _PIE1bits	set	3997
   348   000000                     _ADCON2bits	set	4032
   349   000000                     _ADCON0bits	set	4034
   350   000000                     _PORTE	set	3972
   351   000000                     _PORTD	set	3971
   352   000000                     _PORTC	set	3970
   353   000000                     _PORTB	set	3969
   354   000000                     _PORTA	set	3968
   355   000000                     _LATA	set	3977
   356   000000                     _TRISA	set	3986
   357   000000                     _PIE2bits	set	4000
   358   000000                     _CCP2CONbits	set	4026
   359   000000                     _CCP1CONbits	set	4029
   360   000000                     _PIR1bits	set	3998
   361   000000                     _CCPR1L	set	4030
   362   000000                     _CCPR2L	set	4027
   363   000000                     _EECON1bits	set	4006
   364   000000                     _EEDATA	set	4008
   365   000000                     _EEADR	set	4009
   366   000000                     _EEADRH	set	4010
   367   000000                     _T3CONbits	set	4017
   368   000000                     _PIR2bits	set	4001
   369   000000                     _LATE	set	3981
   370   000000                     _LATD	set	3980
   371   000000                     _LATC	set	3979
   372   000000                     _LATB	set	3978
   373   000000                     _BAUDCONbits	set	4024
   374                           
   375                           ; #config settings
   376                           
   377                           	psect	cinit
   378   001FD2                     __pcinit:
   379                           	callstack 0
   380   001FD2                     start_initialization:
   381                           	callstack 0
   382   001FD2                     __initialization:
   383                           	callstack 0
   384                           
   385                           ; Initialize objects allocated to BANK0 (41 bytes)
   386                           ; load TBLPTR registers with __pidataBANK0
   387   001FD2  0ED8               	movlw	low __pidataBANK0
   388   001FD4  6EF6               	movwf	tblptrl,c
   389   001FD6  0E20               	movlw	high __pidataBANK0
   390   001FD8  6EF7               	movwf	tblptrh,c
   391   001FDA  0E00               	movlw	low (__pidataBANK0 shr (0+16))
   392   001FDC  6EF8               	movwf	tblptru,c
   393   001FDE  EE00  F080         	lfsr	0,__pdataBANK0
   394   001FE2  EE10 F029          	lfsr	1,41
   395   001FE6                     copy_data0:
   396   001FE6  0009               	tblrd		*+
   397   001FE8  CFF5 FFEE          	movff	tablat,postinc0
   398   001FEC  50E5               	movf	postdec1,w,c
   399   001FEE  50E1               	movf	fsr1l,w,c
   400   001FF0  E1FA               	bnz	copy_data0
   401                           
   402                           ; Initialize objects allocated to COMRAM (18 bytes)
   403                           ; load TBLPTR registers with __pidataCOMRAM
   404   001FF2  0EAC               	movlw	low __pidataCOMRAM
   405   001FF4  6EF6               	movwf	tblptrl,c
   406   001FF6  0E21               	movlw	high __pidataCOMRAM
   407   001FF8  6EF7               	movwf	tblptrh,c
   408   001FFA  0E00               	movlw	low (__pidataCOMRAM shr (0+16))
   409   001FFC  6EF8               	movwf	tblptru,c
   410   001FFE  EE00  F062         	lfsr	0,__pdataCOMRAM
   411   002002  EE10 F012          	lfsr	1,18
   412   002006                     copy_data1:
   413   002006  0009               	tblrd		*+
   414   002008  CFF5 FFEE          	movff	tablat,postinc0
   415   00200C  50E5               	movf	postdec1,w,c
   416   00200E  50E1               	movf	fsr1l,w,c
   417   002010  E1FA               	bnz	copy_data1
   418                           
   419                           ; Clear objects allocated to BANK0 (12 bytes)
   420   002012  EE00  F0A9         	lfsr	0,__pbssBANK0
   421   002016  0E0C               	movlw	12
   422   002018                     clear_0:
   423   002018  6AEE               	clrf	postinc0,c
   424   00201A  06E8               	decf	wreg,f,c
   425   00201C  E1FD               	bnz	clear_0
   426                           
   427                           ; Clear objects allocated to COMRAM (62 bytes)
   428   00201E  EE00  F001         	lfsr	0,__pbssCOMRAM
   429   002022  0E3E               	movlw	62
   430   002024                     clear_1:
   431   002024  6AEE               	clrf	postinc0,c
   432   002026  06E8               	decf	wreg,f,c
   433   002028  E1FD               	bnz	clear_1
   434   00202A                     end_of_initialization:
   435                           	callstack 0
   436   00202A                     __end_of__initialization:
   437                           	callstack 0
   438   00202A  9074               	bcf	int$flags,0,c	;clear compiler interrupt flag (level 1)
   439   00202C  9274               	bcf	int$flags,1,c	;clear compiler interrupt flag (level 2)
   440   00202E  0100               	movlb	0
   441   002030  EFDF  F010         	goto	_main	;jump to C main() function
   442                           
   443                           	psect	bssCOMRAM
   444   000001                     __pbssCOMRAM:
   445                           	callstack 0
   446   000001                     _EUSART_OverrunErrorHandler:
   447                           	callstack 0
   448   000001                     	ds	2
   449   000003                     _EUSART_FramingErrorHandler:
   450                           	callstack 0
   451   000003                     	ds	2
   452   000005                     _EUSART_RxInterruptHandler:
   453                           	callstack 0
   454   000005                     	ds	2
   455   000007                     _EUSART_TxInterruptHandler:
   456                           	callstack 0
   457   000007                     	ds	2
   458   000009                     _timer3_preload:
   459                           	callstack 0
   460   000009                     	ds	2
   461   00000B                     _TMR3_InterruptHandler:
   462                           	callstack 0
   463   00000B                     	ds	2
   464   00000D                     _TMR2_InterruptHandler:
   465                           	callstack 0
   466   00000D                     	ds	2
   467   00000F                     _timer1_preload:
   468                           	callstack 0
   469   00000F                     	ds	2
   470   000011                     _TMR1_InterruptHandler:
   471                           	callstack 0
   472   000011                     	ds	2
   473   000013                     _timer0_preload:
   474                           	callstack 0
   475   000013                     	ds	2
   476   000015                     _TMR0_InterruptHandler:
   477                           	callstack 0
   478   000015                     	ds	2
   479   000017                     _RB7_InterruptHandler_LOW:
   480                           	callstack 0
   481   000017                     	ds	2
   482   000019                     _RB7_InterruptHandler_HIGH:
   483                           	callstack 0
   484   000019                     	ds	2
   485   00001B                     _RB6_InterruptHandler_LOW:
   486                           	callstack 0
   487   00001B                     	ds	2
   488   00001D                     _RB6_InterruptHandler_HIGH:
   489                           	callstack 0
   490   00001D                     	ds	2
   491   00001F                     _RB5_InterruptHandler_LOW:
   492                           	callstack 0
   493   00001F                     	ds	2
   494   000021                     _RB5_InterruptHandler_HIGH:
   495                           	callstack 0
   496   000021                     	ds	2
   497   000023                     _RB4_InterruptHandler_LOW:
   498                           	callstack 0
   499   000023                     	ds	2
   500   000025                     _RB4_InterruptHandler_HIGH:
   501                           	callstack 0
   502   000025                     	ds	2
   503   000027                     _INT2_InterruptHandler:
   504                           	callstack 0
   505   000027                     	ds	2
   506   000029                     _INT1_InterruptHandler:
   507                           	callstack 0
   508   000029                     	ds	2
   509   00002B                     _INT0_InterruptHandler:
   510                           	callstack 0
   511   00002B                     	ds	2
   512   00002D                     _I2C_DefaultInterruptHandle:
   513                           	callstack 0
   514   00002D                     	ds	2
   515   00002F                     _I2C_Report_Write_Collision_InterruptHandler:
   516                           	callstack 0
   517   00002F                     	ds	2
   518   000031                     _CCP2_InterruptHandler:
   519                           	callstack 0
   520   000031                     	ds	2
   521   000033                     _CCP1_InterruptHandler:
   522                           	callstack 0
   523   000033                     	ds	2
   524   000035                     _ADC_InterruptHandler:
   525                           	callstack 0
   526   000035                     	ds	2
   527   000037                     _timer2_preload:
   528                           	callstack 0
   529   000037                     	ds	1
   530   000038                     relay_turn_off@F3020:
   531                           	callstack 0
   532   000038                     	ds	1
   533   000039                     relay_turn_on@F3015:
   534                           	callstack 0
   535   000039                     	ds	1
   536   00003A                     relay_initialize@F3010:
   537                           	callstack 0
   538   00003A                     	ds	1
   539   00003B                     led_turn_toggle@F3031:
   540                           	callstack 0
   541   00003B                     	ds	1
   542   00003C                     led_turn_off@F3026:
   543                           	callstack 0
   544   00003C                     	ds	1
   545   00003D                     led_turn_on@F3021:
   546                           	callstack 0
   547   00003D                     	ds	1
   548   00003E                     led_initialize@F3016:
   549                           	callstack 0
   550   00003E                     	ds	1
   551                           
   552                           	psect	dataCOMRAM
   553   000062                     __pdataCOMRAM:
   554                           	callstack 0
   555   000062                     _samefunctionFlage:
   556                           	callstack 0
   557   000062                     	ds	1
   558   000063                     MSSP_SPI_Slave_Mode_GPIO_PIN_Configurations@F3073:
   559                           	callstack 0
   560   000063                     	ds	1
   561   000064                     MSSP_SPI_Slave_Mode_GPIO_PIN_Configurations@F3071:
   562                           	callstack 0
   563   000064                     	ds	1
   564   000065                     MSSP_SPI_Slave_Mode_GPIO_PIN_Configurations@F3069:
   565                           	callstack 0
   566   000065                     	ds	1
   567   000066                     MSSP_SPI_Slave_Mode_GPIO_PIN_Configurations@F3067:
   568                           	callstack 0
   569   000066                     	ds	1
   570   000067                     MSSP_SPI_Msster_Mode_GPIO_PIN_Configurations@F3062:
   571                           	callstack 0
   572   000067                     	ds	1
   573   000068                     MSSP_SPI_Msster_Mode_GPIO_PIN_Configurations@F3060:
   574                           	callstack 0
   575   000068                     	ds	1
   576   000069                     MSSP_SPI_Msster_Mode_GPIO_PIN_Configurations@F3058:
   577                           	callstack 0
   578   000069                     	ds	1
   579   00006A                     _RB7_Flag:
   580                           	callstack 0
   581   00006A                     	ds	1
   582   00006B                     _RB6_Flag:
   583                           	callstack 0
   584   00006B                     	ds	1
   585   00006C                     _RB5_Flag:
   586                           	callstack 0
   587   00006C                     	ds	1
   588   00006D                     _RB4_Flag:
   589                           	callstack 0
   590   00006D                     	ds	1
   591   00006E                     _lcd1:
   592                           	callstack 0
   593   00006E                     	ds	6
   594                           
   595                           	psect	bssBANK0
   596   0000A9                     __pbssBANK0:
   597                           	callstack 0
   598   0000A9                     	ds	6
   599   0000AF                     	ds	4
   600   0000B3                     _I2C_Report_Receive_Overflow_InterruptHandle:
   601                           	callstack 0
   602   0000B3                     	ds	2
   603                           
   604                           	psect	dataBANK0
   605   000080                     __pdataBANK0:
   606                           	callstack 0
   607   000080                     _port_registers:
   608                           	callstack 0
   609   000080                     	ds	10
   610   00008A                     _lat_registers:
   611                           	callstack 0
   612   00008A                     	ds	10
   613   000094                     _tris_registers:
   614                           	callstack 0
   615   000094                     	ds	10
   616   00009E                     passwordUI@F3111:
   617                           	callstack 0
   618   00009E                     	ds	4
   619   0000A2                     _keypad1:
   620                           	callstack 0
   621   0000A2                     	ds	7
   622                           
   623                           	psect	cstackBANK0
   624   0000B5                     __pcstackBANK0:
   625                           	callstack 0
   626   0000B5                     passwordUI@rpassword:
   627                           	callstack 0
   628                           
   629                           ; 4 bytes @ 0x0
   630   0000B5                     	ds	4
   631   0000B9                     passwordUI@password:
   632                           	callstack 0
   633                           
   634                           ; 4 bytes @ 0x4
   635   0000B9                     	ds	4
   636   0000BD                     passwordUI@errFlage:
   637                           	callstack 0
   638                           
   639                           ; 1 bytes @ 0x8
   640   0000BD                     	ds	1
   641   0000BE                     passwordUI@ret:
   642                           	callstack 0
   643                           
   644                           ; 1 bytes @ 0x9
   645   0000BE                     	ds	1
   646   0000BF                     passwordUI@i:
   647                           	callstack 0
   648                           
   649                           ; 1 bytes @ 0xA
   650   0000BF                     	ds	1
   651                           
   652                           	psect	cstackCOMRAM
   653   00003F                     __pcstackCOMRAM:
   654                           	callstack 0
   655   00003F                     RB4_ISR@RB4_Source:
   656                           	callstack 0
   657   00003F                     RB5_ISR@RB5_Source:
   658                           	callstack 0
   659   00003F                     RB6_ISR@RB6_Source:
   660                           	callstack 0
   661   00003F                     RB7_ISR@RB7_Source:
   662                           	callstack 0
   663                           
   664                           ; 1 bytes @ 0x0
   665   00003F                     	ds	1
   666   000040                     gpio_pin_direction_intialize@_pin_config:
   667                           	callstack 0
   668   000040                     gpio_pin_write_logic@_pin_config:
   669                           	callstack 0
   670   000040                     gpio_pin_read_logic@_pin_config:
   671                           	callstack 0
   672                           
   673                           ; 2 bytes @ 0x1
   674   000040                     	ds	2
   675   000042                     ??_gpio_pin_direction_intialize:
   676   000042                     gpio_pin_write_logic@logic:
   677                           	callstack 0
   678   000042                     gpio_pin_read_logic@logic:
   679                           	callstack 0
   680                           
   681                           ; 2 bytes @ 0x3
   682   000042                     	ds	1
   683   000043                     ??_gpio_pin_write_logic:
   684                           
   685                           ; 1 bytes @ 0x4
   686   000043                     	ds	1
   687   000044                     ??_gpio_pin_read_logic:
   688                           
   689                           ; 1 bytes @ 0x5
   690   000044                     	ds	4
   691   000048                     gpio_pin_direction_intialize@ret:
   692                           	callstack 0
   693                           
   694                           ; 1 bytes @ 0x9
   695   000048                     	ds	1
   696   000049                     gpio_pin_write_logic@ret:
   697                           	callstack 0
   698   000049                     gpio_pin_read_logic@ret:
   699                           	callstack 0
   700                           
   701                           ; 1 bytes @ 0xA
   702   000049                     	ds	1
   703   00004A                     lcd_send_4bits@lcd:
   704                           	callstack 0
   705   00004A                     lcd_4bit_send_enable_signal@lcd:
   706                           	callstack 0
   707   00004A                     keypad_get_value@_keypad_obj:
   708                           	callstack 0
   709   00004A                     gpio_pin_intialize@_pin_config:
   710                           	callstack 0
   711                           
   712                           ; 2 bytes @ 0xB
   713   00004A                     	ds	2
   714   00004C                     ??_gpio_pin_intialize:
   715   00004C                     lcd_send_4bits@_data_command:
   716                           	callstack 0
   717   00004C                     lcd_4bit_send_enable_signal@ret:
   718                           	callstack 0
   719   00004C                     keypad_get_value@value:
   720                           	callstack 0
   721                           
   722                           ; 2 bytes @ 0xD
   723   00004C                     	ds	1
   724   00004D                     lcd_send_4bits@ret:
   725                           	callstack 0
   726   00004D                     gpio_pin_intialize@ret:
   727                           	callstack 0
   728                           
   729                           ; 1 bytes @ 0xE
   730   00004D                     	ds	1
   731   00004E                     ??_keypad_get_value:
   732   00004E                     lcd_4bit_send_command@lcd:
   733                           	callstack 0
   734   00004E                     lcd_4bit_send_char_data@lcd:
   735                           	callstack 0
   736   00004E                     keypad_initialize@_keypad_obj:
   737                           	callstack 0
   738                           
   739                           ; 2 bytes @ 0xF
   740   00004E                     	ds	2
   741   000050                     ??_keypad_initialize:
   742   000050                     lcd_4bit_send_command@command:
   743                           	callstack 0
   744   000050                     lcd_4bit_send_char_data@data:
   745                           	callstack 0
   746   000050                     keypad_get_value@column_logic:
   747                           	callstack 0
   748                           
   749                           ; 1 bytes @ 0x11
   750   000050                     	ds	1
   751   000051                     lcd_4bit_send_command@ret:
   752                           	callstack 0
   753   000051                     lcd_4bit_send_char_data@ret:
   754                           	callstack 0
   755   000051                     keypad_get_value@ret:
   756                           	callstack 0
   757                           
   758                           ; 1 bytes @ 0x12
   759   000051                     	ds	1
   760   000052                     keypad_initialize@ret:
   761                           	callstack 0
   762   000052                     keypad_get_value@l_counter:
   763                           	callstack 0
   764   000052                     lcd_4bit_intialize@lcd:
   765                           	callstack 0
   766   000052                     lcd_4bit_clear@lcd:
   767                           	callstack 0
   768   000052                     lcd_4bit_set_cursor@lcd:
   769                           	callstack 0
   770                           
   771                           ; 2 bytes @ 0x13
   772   000052                     	ds	1
   773   000053                     keypad_initialize@rows_counter:
   774                           	callstack 0
   775   000053                     keypad_get_value@l_rows_counter:
   776                           	callstack 0
   777                           
   778                           ; 1 bytes @ 0x14
   779   000053                     	ds	1
   780   000054                     ??_lcd_4bit_intialize:
   781   000054                     lcd_4bit_set_cursor@row:
   782                           	callstack 0
   783   000054                     keypad_initialize@columns_counter:
   784                           	callstack 0
   785   000054                     keypad_get_value@l_columns_counter:
   786                           	callstack 0
   787                           
   788                           ; 1 bytes @ 0x15
   789   000054                     	ds	1
   790   000055                     lcd_4bit_set_cursor@coulmn:
   791                           	callstack 0
   792                           
   793                           ; 1 bytes @ 0x16
   794   000055                     	ds	1
   795   000056                     ??_lcd_4bit_set_cursor:
   796   000056                     lcd_4bit_intialize@l_data_pins_counter:
   797                           	callstack 0
   798                           
   799                           ; 1 bytes @ 0x17
   800   000056                     	ds	1
   801   000057                     lcd_4bit_intialize@ret:
   802                           	callstack 0
   803                           
   804                           ; 1 bytes @ 0x18
   805   000057                     	ds	1
   806   000058                     lcd_4bit_set_cursor@ret:
   807                           	callstack 0
   808                           
   809                           ; 1 bytes @ 0x19
   810   000058                     	ds	1
   811   000059                     lcd_4bit_send_char_data_pos@lcd:
   812                           	callstack 0
   813   000059                     lcd_4bit_send_string_pos@lcd:
   814                           	callstack 0
   815                           
   816                           ; 2 bytes @ 0x1A
   817   000059                     	ds	2
   818   00005B                     lcd_4bit_send_char_data_pos@row:
   819                           	callstack 0
   820   00005B                     lcd_4bit_send_string_pos@row:
   821                           	callstack 0
   822                           
   823                           ; 1 bytes @ 0x1C
   824   00005B                     	ds	1
   825   00005C                     lcd_4bit_send_char_data_pos@column:
   826                           	callstack 0
   827   00005C                     lcd_4bit_send_string_pos@column:
   828                           	callstack 0
   829                           
   830                           ; 1 bytes @ 0x1D
   831   00005C                     	ds	1
   832   00005D                     lcd_4bit_send_char_data_pos@data:
   833                           	callstack 0
   834   00005D                     lcd_4bit_send_string_pos@str:
   835                           	callstack 0
   836                           
   837                           ; 2 bytes @ 0x1E
   838   00005D                     	ds	1
   839   00005E                     lcd_4bit_send_char_data_pos@ret:
   840                           	callstack 0
   841                           
   842                           ; 1 bytes @ 0x1F
   843   00005E                     	ds	1
   844   00005F                     lcd_4bit_send_string_pos@ret:
   845                           	callstack 0
   846                           
   847                           ; 1 bytes @ 0x20
   848   00005F                     	ds	1
   849   000060                     ??_passwordUI:
   850   000060                     homeUI@keypad_val:
   851                           	callstack 0
   852   000060                     settingsUI@keypad_val:
   853                           	callstack 0
   854                           
   855                           ; 1 bytes @ 0x21
   856   000060                     	ds	2
   857   000062                     
   858                           ; 1 bytes @ 0x23
   859 ;;
   860 ;;Main: autosize = 0, tempsize = 0, incstack = 0, save=0
   861 ;;
   862 ;; *************** function _main *****************
   863 ;; Defined at:
   864 ;;		line 13 in file "application.c"
   865 ;; Parameters:    Size  Location     Type
   866 ;;		None
   867 ;; Auto vars:     Size  Location     Type
   868 ;;		None
   869 ;; Return value:  Size  Location     Type
   870 ;;                  2  1716[None  ] int 
   871 ;; Registers used:
   872 ;;		wreg, fsr1l, fsr1h, fsr2l, fsr2h, status,2, status,0, pcl, pclath, pclatu, tosl, tblptrl, tblptrh, tblptru, prodl, p
      +rodh, cstack
   873 ;; Tracked objects:
   874 ;;		On entry : 0/0
   875 ;;		On exit  : 0/0
   876 ;;		Unchanged: 0/0
   877 ;; Data sizes:     COMRAM   BANK0   BANK1   BANK2   BANK3   BANK4   BANK5   BANK6   BANK7   BANK8   BANK9  BANK10  BANK1
      +1  BANK12  BANK13  BANK14  BANK15
   878 ;;      Params:         0       0       0       0       0       0       0       0       0       0       0       0       
      +0       0       0       0       0
   879 ;;      Locals:         0       0       0       0       0       0       0       0       0       0       0       0       
      +0       0       0       0       0
   880 ;;      Temps:          0       0       0       0       0       0       0       0       0       0       0       0       
      +0       0       0       0       0
   881 ;;      Totals:         0       0       0       0       0       0       0       0       0       0       0       0       
      +0       0       0       0       0
   882 ;;Total ram usage:        0 bytes
   883 ;; Hardware stack levels required when called: 9
   884 ;; This function calls:
   885 ;;		_ecu_layer_intialize
   886 ;;		_mainUI
   887 ;; This function is called by:
   888 ;;		Startup code after reset
   889 ;; This function uses a non-reentrant model
   890 ;;
   891                           
   892                           	psect	text0
   893   0021BE                     __ptext0:
   894                           	callstack 0
   895   0021BE                     _main:
   896                           	callstack 22
   897   0021BE                     
   898                           ;application.c: 15:     ecu_layer_intialize();
   899   0021BE  EC95  F010         	call	_ecu_layer_intialize	;wreg free
   900   0021C2                     
   901                           ;application.c: 16:     mainUI();
   902   0021C2  EC57  F010         	call	_mainUI	;wreg free
   903   0021C6  EF07  F000         	goto	start
   904   0021CA                     __end_of_main:
   905                           	callstack 0
   906                           
   907 ;; *************** function _mainUI *****************
   908 ;; Defined at:
   909 ;;		line 18 in file "UserInterfaces.c"
   910 ;; Parameters:    Size  Location     Type
   911 ;;		None
   912 ;; Auto vars:     Size  Location     Type
   913 ;;		None
   914 ;; Return value:  Size  Location     Type
   915 ;;                  1    wreg      void 
   916 ;; Registers used:
   917 ;;		wreg, fsr1l, fsr1h, fsr2l, fsr2h, status,2, status,0, pcl, pclath, pclatu, tosl, tblptrl, tblptrh, tblptru, prodl, p
      +rodh, cstack
   918 ;; Tracked objects:
   919 ;;		On entry : 0/0
   920 ;;		On exit  : 0/0
   921 ;;		Unchanged: 0/0
   922 ;; Data sizes:     COMRAM   BANK0   BANK1   BANK2   BANK3   BANK4   BANK5   BANK6   BANK7   BANK8   BANK9  BANK10  BANK1
      +1  BANK12  BANK13  BANK14  BANK15
   923 ;;      Params:         0       0       0       0       0       0       0       0       0       0       0       0       
      +0       0       0       0       0
   924 ;;      Locals:         0       0       0       0       0       0       0       0       0       0       0       0       
      +0       0       0       0       0
   925 ;;      Temps:          0       0       0       0       0       0       0       0       0       0       0       0       
      +0       0       0       0       0
   926 ;;      Totals:         0       0       0       0       0       0       0       0       0       0       0       0       
      +0       0       0       0       0
   927 ;;Total ram usage:        0 bytes
   928 ;; Hardware stack levels used: 1
   929 ;; Hardware stack levels required when called: 8
   930 ;; This function calls:
   931 ;;		NULL
   932 ;;		_homeUI
   933 ;;		_passwordUI
   934 ;;		_settingsUI
   935 ;; This function is called by:
   936 ;;		_main
   937 ;; This function uses a non-reentrant model
   938 ;;
   939                           
   940                           	psect	text1
   941   0020AE                     __ptext1:
   942                           	callstack 0
   943   0020AE                     _mainUI:
   944                           	callstack 22
   945   0020AE                     
   946                           ;UserInterfaces.c: 19:     interfaceHandler = homeUI;
   947   0020AE  0EE2               	movlw	low _homeUI
   948   0020B0  0100               	movlb	0	; () banked
   949   0020B2  6FC0               	movwf	_interfaceHandler& (0+255),b
   950   0020B4  0E1B               	movlw	high _homeUI
   951   0020B6  6FC1               	movwf	(_interfaceHandler+1)& (0+255),b
   952   0020B8                     l7086:
   953                           
   954                           ;UserInterfaces.c: 21:         interfaceHandler();
   955   0020B8  D802               	call	u5358
   956   0020BA  EF69  F010         	goto	u5359
   957   0020BE                     u5358:
   958   0020BE  0005               	push	
   959   0020C0  6EFA               	movwf	pclath,c
   960   0020C2  0100               	movlb	0	; () banked
   961   0020C4  51C0               	movf	_interfaceHandler& (0+255),w,b
   962   0020C6  6EFD               	movwf	tosl,c
   963   0020C8  51C1               	movf	(_interfaceHandler+1)& (0+255),w,b
   964   0020CA  6EFE               	movwf	tosh,c
   965   0020CC  6AFF               	clrf	tosu,c
   966   0020CE  50FA               	movf	pclath,w,c
   967   0020D0  0012               	return		;indir
   968   0020D2                     u5359:
   969   0020D2  EF5C  F010         	goto	l7086
   970   0020D6  0012               	return		;funcret
   971   0020D8                     __end_of_mainUI:
   972                           	callstack 0
   973                           
   974 ;; *************** function _passwordUI *****************
   975 ;; Defined at:
   976 ;;		line 70 in file "UserInterfaces.c"
   977 ;; Parameters:    Size  Location     Type
   978 ;;		None
   979 ;; Auto vars:     Size  Location     Type
   980 ;;  password        4    4[BANK0 ] unsigned char [4]
   981 ;;  rpassword       4    0[BANK0 ] unsigned char [4]
   982 ;;  i               1   10[BANK0 ] unsigned char 
   983 ;;  ret             1    9[BANK0 ] unsigned char 
   984 ;;  errFlage        1    8[BANK0 ] unsigned char 
   985 ;; Return value:  Size  Location     Type
   986 ;;                  1    wreg      void 
   987 ;; Registers used:
   988 ;;		wreg, fsr1l, fsr1h, fsr2l, fsr2h, status,2, status,0, tblptrl, tblptrh, tblptru, prodl, prodh, cstack
   989 ;; Tracked objects:
   990 ;;		On entry : 0/0
   991 ;;		On exit  : 0/0
   992 ;;		Unchanged: 0/0
   993 ;; Data sizes:     COMRAM   BANK0   BANK1   BANK2   BANK3   BANK4   BANK5   BANK6   BANK7   BANK8   BANK9  BANK10  BANK1
      +1  BANK12  BANK13  BANK14  BANK15
   994 ;;      Params:         0       0       0       0       0       0       0       0       0       0       0       0       
      +0       0       0       0       0
   995 ;;      Locals:         0      11       0       0       0       0       0       0       0       0       0       0       
      +0       0       0       0       0
   996 ;;      Temps:          2       0       0       0       0       0       0       0       0       0       0       0       
      +0       0       0       0       0
   997 ;;      Totals:         2      11       0       0       0       0       0       0       0       0       0       0       
      +0       0       0       0       0
   998 ;;Total ram usage:       13 bytes
   999 ;; Hardware stack levels used: 1
  1000 ;; Hardware stack levels required when called: 7
  1001 ;; This function calls:
  1002 ;;		_keypad_get_value
  1003 ;;		_lcd_4bit_clear
  1004 ;;		_lcd_4bit_send_char_data_pos
  1005 ;;		_lcd_4bit_send_string_pos
  1006 ;; This function is called by:
  1007 ;;		_homeUI
  1008 ;;		_mainUI
  1009 ;; This function uses a non-reentrant model
  1010 ;;
  1011                           
  1012                           	psect	text2
  1013   00145E                     __ptext2:
  1014                           	callstack 0
  1015   00145E                     _passwordUI:
  1016                           	callstack 22
  1017   00145E                     
  1018                           ;UserInterfaces.c: 72:     uint8 password[4] = {0},rpassword[4] = {'3','5','2','4'},i = 
      +                          0,errFlage = 0;
  1019   00145E  0E00               	movlw	0
  1020   001460  0100               	movlb	0	; () banked
  1021   001462  6FB9               	movwf	passwordUI@password& (0+255),b
  1022   001464  0E00               	movlw	0
  1023   001466  6FBA               	movwf	(passwordUI@password+1)& (0+255),b
  1024   001468  0E00               	movlw	0
  1025   00146A  6FBB               	movwf	(passwordUI@password+2)& (0+255),b
  1026   00146C  0E00               	movlw	0
  1027   00146E  6FBC               	movwf	(passwordUI@password+3)& (0+255),b
  1028   001470                     
  1029                           ; BSR set to: 0
  1030   001470  C09E  F0B5         	movff	passwordUI@F3111,passwordUI@rpassword
  1031   001474  C09F  F0B6         	movff	passwordUI@F3111+1,passwordUI@rpassword+1
  1032   001478  C0A0  F0B7         	movff	passwordUI@F3111+2,passwordUI@rpassword+2
  1033   00147C  C0A1  F0B8         	movff	passwordUI@F3111+3,passwordUI@rpassword+3
  1034   001480  0E00               	movlw	0
  1035   001482  6FBD               	movwf	passwordUI@errFlage& (0+255),b
  1036                           
  1037                           ;UserInterfaces.c: 75:     Std_ReturnType ret = (Std_ReturnType)0x00;
  1038   001484  0E00               	movlw	0
  1039   001486  6FBE               	movwf	passwordUI@ret& (0+255),b
  1040   001488                     
  1041                           ; BSR set to: 0
  1042   001488  0E6E               	movlw	low _lcd1
  1043   00148A  6E52               	movwf	lcd_4bit_clear@lcd^0,c
  1044   00148C  0E00               	movlw	high _lcd1
  1045   00148E  6E53               	movwf	(lcd_4bit_clear@lcd+1)^0,c
  1046   001490  EC81  F010         	call	_lcd_4bit_clear	;wreg free
  1047   001494  0E6E               	movlw	low _lcd1
  1048   001496  6E59               	movwf	lcd_4bit_send_string_pos@lcd^0,c
  1049   001498  0E00               	movlw	high _lcd1
  1050   00149A  6E5A               	movwf	(lcd_4bit_send_string_pos@lcd+1)^0,c
  1051   00149C  0E01               	movlw	1
  1052   00149E  6E5B               	movwf	lcd_4bit_send_string_pos@row^0,c
  1053   0014A0  0E01               	movlw	1
  1054   0014A2  6E5C               	movwf	lcd_4bit_send_string_pos@column^0,c
  1055   0014A4  0E0D               	movlw	low STR_8
  1056   0014A6  6E5D               	movwf	lcd_4bit_send_string_pos@str^0,c
  1057   0014A8  0E10               	movlw	high STR_8
  1058   0014AA  6E5E               	movwf	(lcd_4bit_send_string_pos@str+1)^0,c
  1059   0014AC  ECD1  F00E         	call	_lcd_4bit_send_string_pos	;wreg free
  1060   0014B0  0E6E               	movlw	low _lcd1
  1061   0014B2  6E59               	movwf	lcd_4bit_send_string_pos@lcd^0,c
  1062   0014B4  0E00               	movlw	high _lcd1
  1063   0014B6  6E5A               	movwf	(lcd_4bit_send_string_pos@lcd+1)^0,c
  1064   0014B8  0E04               	movlw	4
  1065   0014BA  6E5B               	movwf	lcd_4bit_send_string_pos@row^0,c
  1066   0014BC  0E01               	movlw	1
  1067   0014BE  6E5C               	movwf	lcd_4bit_send_string_pos@column^0,c
  1068   0014C0  0E4D               	movlw	low STR_7
  1069   0014C2  6E5D               	movwf	lcd_4bit_send_string_pos@str^0,c
  1070   0014C4  0E10               	movlw	high STR_7
  1071   0014C6  6E5E               	movwf	(lcd_4bit_send_string_pos@str+1)^0,c
  1072   0014C8  ECD1  F00E         	call	_lcd_4bit_send_string_pos	;wreg free
  1073   0014CC                     
  1074                           ;UserInterfaces.c: 79:     for(i=0;i<4;i++){
  1075   0014CC  0E00               	movlw	0
  1076   0014CE  0100               	movlb	0	; () banked
  1077   0014D0  6FBF               	movwf	passwordUI@i& (0+255),b
  1078   0014D2                     l6998:
  1079                           
  1080                           ; BSR set to: 0
  1081                           ;UserInterfaces.c: 80:         _delay((unsigned long)((180)*(4000000UL/4000.0)));
  1082   0014D2  0EEA               	movlw	234
  1083   0014D4  6E60               	movwf	??_passwordUI^0,c
  1084   0014D6  0EC3               	movlw	195
  1085   0014D8                     u5827:
  1086   0014D8  2EE8               	decfsz	wreg,f,c
  1087   0014DA  D7FE               	bra	u5827
  1088   0014DC  2E60               	decfsz	??_passwordUI^0,f,c
  1089   0014DE  D7FC               	bra	u5827
  1090   0014E0  F000               	nop	
  1091   0014E2  0EA2               	movlw	low _keypad1
  1092   0014E4  6E4A               	movwf	keypad_get_value@_keypad_obj^0,c
  1093   0014E6  0E00               	movlw	high _keypad1
  1094   0014E8  6E4B               	movwf	(keypad_get_value@_keypad_obj+1)^0,c
  1095   0014EA  0EB9               	movlw	low passwordUI@password
  1096   0014EC  0100               	movlb	0	; () banked
  1097   0014EE  25BF               	addwf	passwordUI@i& (0+255),w,b
  1098   0014F0  6E4C               	movwf	keypad_get_value@value^0,c
  1099   0014F2  6A4D               	clrf	(keypad_get_value@value+1)^0,c
  1100   0014F4  0E00               	movlw	high passwordUI@password
  1101   0014F6  224D               	addwfc	(keypad_get_value@value+1)^0,f,c
  1102   0014F8  ECAE  F00C         	call	_keypad_get_value	;wreg free
  1103   0014FC  0E6E               	movlw	low _lcd1
  1104   0014FE  6E59               	movwf	lcd_4bit_send_char_data_pos@lcd^0,c
  1105   001500  0E00               	movlw	high _lcd1
  1106   001502  6E5A               	movwf	(lcd_4bit_send_char_data_pos@lcd+1)^0,c
  1107   001504  0E01               	movlw	1
  1108   001506  6E5B               	movwf	lcd_4bit_send_char_data_pos@row^0,c
  1109   001508  0100               	movlb	0	; () banked
  1110   00150A  51BF               	movf	passwordUI@i& (0+255),w,b
  1111   00150C  0F10               	addlw	16
  1112   00150E  6E5C               	movwf	lcd_4bit_send_char_data_pos@column^0,c
  1113   001510  0E58               	movlw	88
  1114   001512  6E5D               	movwf	lcd_4bit_send_char_data_pos@data^0,c
  1115   001514  EC1A  F010         	call	_lcd_4bit_send_char_data_pos	;wreg free
  1116   001518                     
  1117                           ;UserInterfaces.c: 83:        if(password[i] != rpassword[i])errFlage =1;
  1118   001518  0EB5               	movlw	low passwordUI@rpassword
  1119   00151A  0100               	movlb	0	; () banked
  1120   00151C  25BF               	addwf	passwordUI@i& (0+255),w,b
  1121   00151E  6ED9               	movwf	fsr2l,c
  1122   001520  6ADA               	clrf	fsr2h,c
  1123   001522  0E00               	movlw	high passwordUI@rpassword
  1124   001524  22DA               	addwfc	fsr2h,f,c
  1125   001526  0EB9               	movlw	low passwordUI@password
  1126   001528  25BF               	addwf	passwordUI@i& (0+255),w,b
  1127   00152A  6EE1               	movwf	fsr1l,c
  1128   00152C  6AE2               	clrf	fsr1h,c
  1129   00152E  0E00               	movlw	high passwordUI@password
  1130   001530  22E2               	addwfc	fsr1h,f,c
  1131   001532  50DE               	movf	postinc2,w,c
  1132   001534  18E6               	xorwf	postinc1,w,c
  1133   001536  B4D8               	btfsc	status,2,c
  1134   001538  EFA0  F00A         	goto	u5261
  1135   00153C  EFA2  F00A         	goto	u5260
  1136   001540                     u5261:
  1137   001540  EFA4  F00A         	goto	l7008
  1138   001544                     u5260:
  1139   001544                     
  1140                           ; BSR set to: 0
  1141   001544  0E01               	movlw	1
  1142   001546  6FBD               	movwf	passwordUI@errFlage& (0+255),b
  1143   001548                     l7008:
  1144                           
  1145                           ; BSR set to: 0
  1146                           ;UserInterfaces.c: 84:     }
  1147   001548  2BBF               	incf	passwordUI@i& (0+255),f,b
  1148   00154A                     
  1149                           ; BSR set to: 0
  1150   00154A  0E03               	movlw	3
  1151   00154C  65BF               	cpfsgt	passwordUI@i& (0+255),b
  1152   00154E  EFAB  F00A         	goto	u5271
  1153   001552  EFAD  F00A         	goto	u5270
  1154   001556                     u5271:
  1155   001556  EF69  F00A         	goto	l6998
  1156   00155A                     u5270:
  1157   00155A                     
  1158                           ; BSR set to: 0
  1159                           ;UserInterfaces.c: 86:     if(errFlage){
  1160   00155A  51BD               	movf	passwordUI@errFlage& (0+255),w,b
  1161   00155C  B4D8               	btfsc	status,2,c
  1162   00155E  EFB3  F00A         	goto	u5281
  1163   001562  EFB5  F00A         	goto	u5280
  1164   001566                     u5281:
  1165   001566  EFDB  F00A         	goto	l7022
  1166   00156A                     u5280:
  1167   00156A                     
  1168                           ; BSR set to: 0
  1169   00156A  0E6E               	movlw	low _lcd1
  1170   00156C  6E52               	movwf	lcd_4bit_clear@lcd^0,c
  1171   00156E  0E00               	movlw	high _lcd1
  1172   001570  6E53               	movwf	(lcd_4bit_clear@lcd+1)^0,c
  1173   001572  EC81  F010         	call	_lcd_4bit_clear	;wreg free
  1174   001576  0E6E               	movlw	low _lcd1
  1175   001578  6E59               	movwf	lcd_4bit_send_string_pos@lcd^0,c
  1176   00157A  0E00               	movlw	high _lcd1
  1177   00157C  6E5A               	movwf	(lcd_4bit_send_string_pos@lcd+1)^0,c
  1178   00157E  0E01               	movlw	1
  1179   001580  6E5B               	movwf	lcd_4bit_send_string_pos@row^0,c
  1180   001582  0E04               	movlw	4
  1181   001584  6E5C               	movwf	lcd_4bit_send_string_pos@column^0,c
  1182   001586  0E1D               	movlw	low STR_10
  1183   001588  6E5D               	movwf	lcd_4bit_send_string_pos@str^0,c
  1184   00158A  0E10               	movlw	high STR_10
  1185   00158C  6E5E               	movwf	(lcd_4bit_send_string_pos@str+1)^0,c
  1186   00158E  ECD1  F00E         	call	_lcd_4bit_send_string_pos	;wreg free
  1187   001592                     
  1188                           ;UserInterfaces.c: 89:         _delay((unsigned long)((1500)*(4000000UL/4000.0)));
  1189   001592  0E08               	movlw	8
  1190   001594  6E61               	movwf	(??_passwordUI+1)^0,c
  1191   001596  0E9D               	movlw	157
  1192   001598  6E60               	movwf	??_passwordUI^0,c
  1193   00159A  0E06               	movlw	6
  1194   00159C                     u5837:
  1195   00159C  2EE8               	decfsz	wreg,f,c
  1196   00159E  D7FE               	bra	u5837
  1197   0015A0  2E60               	decfsz	??_passwordUI^0,f,c
  1198   0015A2  D7FC               	bra	u5837
  1199   0015A4  2E61               	decfsz	(??_passwordUI+1)^0,f,c
  1200   0015A6  D7FA               	bra	u5837
  1201   0015A8                     
  1202                           ;UserInterfaces.c: 90:         interfaceHandler = homeUI;
  1203   0015A8  0EE2               	movlw	low _homeUI
  1204   0015AA  0100               	movlb	0	; () banked
  1205   0015AC  6FC0               	movwf	_interfaceHandler& (0+255),b
  1206   0015AE  0E1B               	movlw	high _homeUI
  1207   0015B0  6FC1               	movwf	(_interfaceHandler+1)& (0+255),b
  1208                           
  1209                           ;UserInterfaces.c: 91:     }
  1210   0015B2  EFDF  F00A         	goto	l1769
  1211   0015B6                     l7022:
  1212                           
  1213                           ; BSR set to: 0
  1214                           ;UserInterfaces.c: 94:         interfaceHandler = settingsUI;
  1215   0015B6  0E82               	movlw	low _settingsUI
  1216   0015B8  6FC0               	movwf	_interfaceHandler& (0+255),b
  1217   0015BA  0E1C               	movlw	high _settingsUI
  1218   0015BC  6FC1               	movwf	(_interfaceHandler+1)& (0+255),b
  1219   0015BE                     l1769:
  1220                           
  1221                           ; BSR set to: 0
  1222   0015BE  0012               	return		;funcret
  1223   0015C0                     __end_of_passwordUI:
  1224                           	callstack 0
  1225                           
  1226 ;; *************** function _homeUI *****************
  1227 ;; Defined at:
  1228 ;;		line 27 in file "UserInterfaces.c"
  1229 ;; Parameters:    Size  Location     Type
  1230 ;;		None
  1231 ;; Auto vars:     Size  Location     Type
  1232 ;;  keypad_val      1   33[COMRAM] volatile unsigned char 
  1233 ;;  ret             1    0        unsigned char 
  1234 ;; Return value:  Size  Location     Type
  1235 ;;                  1    wreg      void 
  1236 ;; Registers used:
  1237 ;;		wreg, fsr2l, fsr2h, status,2, status,0, tblptrl, tblptrh, tblptru, prodl, prodh, cstack
  1238 ;; Tracked objects:
  1239 ;;		On entry : 0/0
  1240 ;;		On exit  : 0/0
  1241 ;;		Unchanged: 0/0
  1242 ;; Data sizes:     COMRAM   BANK0   BANK1   BANK2   BANK3   BANK4   BANK5   BANK6   BANK7   BANK8   BANK9  BANK10  BANK1
      +1  BANK12  BANK13  BANK14  BANK15
  1243 ;;      Params:         0       0       0       0       0       0       0       0       0       0       0       0       
      +0       0       0       0       0
  1244 ;;      Locals:         1       0       0       0       0       0       0       0       0       0       0       0       
      +0       0       0       0       0
  1245 ;;      Temps:          0       0       0       0       0       0       0       0       0       0       0       0       
      +0       0       0       0       0
  1246 ;;      Totals:         1       0       0       0       0       0       0       0       0       0       0       0       
      +0       0       0       0       0
  1247 ;;Total ram usage:        1 bytes
  1248 ;; Hardware stack levels used: 1
  1249 ;; Hardware stack levels required when called: 7
  1250 ;; This function calls:
  1251 ;;		_keypad_get_value
  1252 ;;		_lcd_4bit_clear
  1253 ;;		_lcd_4bit_send_string_pos
  1254 ;; This function is called by:
  1255 ;;		_mainUI
  1256 ;;		_settingsUI
  1257 ;;		_passwordUI
  1258 ;; This function uses a non-reentrant model
  1259 ;;
  1260                           
  1261                           	psect	text3
  1262   001BE2                     __ptext3:
  1263                           	callstack 0
  1264   001BE2                     _homeUI:
  1265                           	callstack 22
  1266   001BE2                     
  1267                           ;UserInterfaces.c: 29:     if(!samefunctionFlage)ret = lcd_4bit_clear(&lcd1);
  1268   001BE2  5062               	movf	_samefunctionFlage^0,w,c
  1269   001BE4  A4D8               	btfss	status,2,c
  1270   001BE6  EFF7  F00D         	goto	u5221
  1271   001BEA  EFF9  F00D         	goto	u5220
  1272   001BEE                     u5221:
  1273   001BEE  EFFF  F00D         	goto	l6942
  1274   001BF2                     u5220:
  1275   001BF2  0E6E               	movlw	low _lcd1
  1276   001BF4  6E52               	movwf	lcd_4bit_clear@lcd^0,c
  1277   001BF6  0E00               	movlw	high _lcd1
  1278   001BF8  6E53               	movwf	(lcd_4bit_clear@lcd+1)^0,c
  1279   001BFA  EC81  F010         	call	_lcd_4bit_clear	;wreg free
  1280   001BFE                     l6942:
  1281                           
  1282                           ;UserInterfaces.c: 32:     volatile uint8 keypad_val = 0;
  1283   001BFE  0E00               	movlw	0
  1284   001C00  6E60               	movwf	homeUI@keypad_val^0,c	;volatile
  1285   001C02  0E6E               	movlw	low _lcd1
  1286   001C04  6E59               	movwf	lcd_4bit_send_string_pos@lcd^0,c
  1287   001C06  0E00               	movlw	high _lcd1
  1288   001C08  6E5A               	movwf	(lcd_4bit_send_string_pos@lcd+1)^0,c
  1289   001C0A  0E01               	movlw	1
  1290   001C0C  6E5B               	movwf	lcd_4bit_send_string_pos@row^0,c
  1291   001C0E  0E04               	movlw	4
  1292   001C10  6E5C               	movwf	lcd_4bit_send_string_pos@column^0,c
  1293   001C12  0E2C               	movlw	low STR_4
  1294   001C14  6E5D               	movwf	lcd_4bit_send_string_pos@str^0,c
  1295   001C16  0E10               	movlw	high STR_4
  1296   001C18  6E5E               	movwf	(lcd_4bit_send_string_pos@str+1)^0,c
  1297   001C1A  ECD1  F00E         	call	_lcd_4bit_send_string_pos	;wreg free
  1298   001C1E  0E6E               	movlw	low _lcd1
  1299   001C20  6E59               	movwf	lcd_4bit_send_string_pos@lcd^0,c
  1300   001C22  0E00               	movlw	high _lcd1
  1301   001C24  6E5A               	movwf	(lcd_4bit_send_string_pos@lcd+1)^0,c
  1302   001C26  0E04               	movlw	4
  1303   001C28  6E5B               	movwf	lcd_4bit_send_string_pos@row^0,c
  1304   001C2A  0E01               	movlw	1
  1305   001C2C  6E5C               	movwf	lcd_4bit_send_string_pos@column^0,c
  1306   001C2E  0E39               	movlw	low STR_5
  1307   001C30  6E5D               	movwf	lcd_4bit_send_string_pos@str^0,c
  1308   001C32  0E10               	movlw	high STR_5
  1309   001C34  6E5E               	movwf	(lcd_4bit_send_string_pos@str+1)^0,c
  1310   001C36  ECD1  F00E         	call	_lcd_4bit_send_string_pos	;wreg free
  1311   001C3A  0EA2               	movlw	low _keypad1
  1312   001C3C  6E4A               	movwf	keypad_get_value@_keypad_obj^0,c
  1313   001C3E  0E00               	movlw	high _keypad1
  1314   001C40  6E4B               	movwf	(keypad_get_value@_keypad_obj+1)^0,c
  1315   001C42  0E60               	movlw	low homeUI@keypad_val
  1316   001C44  6E4C               	movwf	keypad_get_value@value^0,c
  1317   001C46  0E00               	movlw	high homeUI@keypad_val
  1318   001C48  6E4D               	movwf	(keypad_get_value@value+1)^0,c
  1319   001C4A  ECAE  F00C         	call	_keypad_get_value	;wreg free
  1320   001C4E                     
  1321                           ;UserInterfaces.c: 37:     if('#'==keypad_val){
  1322   001C4E  0E23               	movlw	35
  1323   001C50  1860               	xorwf	homeUI@keypad_val^0,w,c	;volatile
  1324   001C52  A4D8               	btfss	status,2,c
  1325   001C54  EF2E  F00E         	goto	u5231
  1326   001C58  EF30  F00E         	goto	u5230
  1327   001C5C                     u5231:
  1328   001C5C  EF39  F00E         	goto	l6956
  1329   001C60                     u5230:
  1330   001C60                     
  1331                           ;UserInterfaces.c: 38:         interfaceHandler = passwordUI;
  1332   001C60  0E5E               	movlw	low _passwordUI
  1333   001C62  0100               	movlb	0	; () banked
  1334   001C64  6FC0               	movwf	_interfaceHandler& (0+255),b
  1335   001C66  0E14               	movlw	high _passwordUI
  1336   001C68  6FC1               	movwf	(_interfaceHandler+1)& (0+255),b
  1337   001C6A                     
  1338                           ; BSR set to: 0
  1339                           ;UserInterfaces.c: 39:         samefunctionFlage = 0;
  1340   001C6A  0E00               	movlw	0
  1341   001C6C  6E62               	movwf	_samefunctionFlage^0,c
  1342                           
  1343                           ;UserInterfaces.c: 40:     }
  1344   001C6E  EF40  F00E         	goto	l1751
  1345   001C72                     l6956:
  1346                           
  1347                           ;UserInterfaces.c: 42:         interfaceHandler = homeUI;
  1348   001C72  0EE2               	movlw	low _homeUI
  1349   001C74  0100               	movlb	0	; () banked
  1350   001C76  6FC0               	movwf	_interfaceHandler& (0+255),b
  1351   001C78  0E1B               	movlw	high _homeUI
  1352   001C7A  6FC1               	movwf	(_interfaceHandler+1)& (0+255),b
  1353   001C7C                     
  1354                           ; BSR set to: 0
  1355                           ;UserInterfaces.c: 43:         samefunctionFlage = 1;
  1356   001C7C  0E01               	movlw	1
  1357   001C7E  6E62               	movwf	_samefunctionFlage^0,c
  1358   001C80                     l1751:
  1359                           
  1360                           ; BSR set to: 0
  1361   001C80  0012               	return		;funcret
  1362   001C82                     __end_of_homeUI:
  1363                           	callstack 0
  1364                           
  1365 ;; *************** function _settingsUI *****************
  1366 ;; Defined at:
  1367 ;;		line 50 in file "UserInterfaces.c"
  1368 ;; Parameters:    Size  Location     Type
  1369 ;;		None
  1370 ;; Auto vars:     Size  Location     Type
  1371 ;;  keypad_val      1   33[COMRAM] volatile unsigned char 
  1372 ;;  ret             1    0        unsigned char 
  1373 ;; Return value:  Size  Location     Type
  1374 ;;                  1    wreg      void 
  1375 ;; Registers used:
  1376 ;;		wreg, fsr2l, fsr2h, status,2, status,0, tblptrl, tblptrh, tblptru, prodl, prodh, cstack
  1377 ;; Tracked objects:
  1378 ;;		On entry : 0/0
  1379 ;;		On exit  : 0/0
  1380 ;;		Unchanged: 0/0
  1381 ;; Data sizes:     COMRAM   BANK0   BANK1   BANK2   BANK3   BANK4   BANK5   BANK6   BANK7   BANK8   BANK9  BANK10  BANK1
      +1  BANK12  BANK13  BANK14  BANK15
  1382 ;;      Params:         0       0       0       0       0       0       0       0       0       0       0       0       
      +0       0       0       0       0
  1383 ;;      Locals:         1       0       0       0       0       0       0       0       0       0       0       0       
      +0       0       0       0       0
  1384 ;;      Temps:          0       0       0       0       0       0       0       0       0       0       0       0       
      +0       0       0       0       0
  1385 ;;      Totals:         1       0       0       0       0       0       0       0       0       0       0       0       
      +0       0       0       0       0
  1386 ;;Total ram usage:        1 bytes
  1387 ;; Hardware stack levels used: 1
  1388 ;; Hardware stack levels required when called: 7
  1389 ;; This function calls:
  1390 ;;		_keypad_get_value
  1391 ;;		_lcd_4bit_clear
  1392 ;;		_lcd_4bit_send_string_pos
  1393 ;; This function is called by:
  1394 ;;		_passwordUI
  1395 ;;		_mainUI
  1396 ;; This function uses a non-reentrant model
  1397 ;;
  1398                           
  1399                           	psect	text4
  1400   001C82                     __ptext4:
  1401                           	callstack 0
  1402   001C82                     _settingsUI:
  1403                           	callstack 22
  1404   001C82                     
  1405                           ;UserInterfaces.c: 52:     if(!samefunctionFlage)ret = lcd_4bit_clear(&lcd1);
  1406   001C82  5062               	movf	_samefunctionFlage^0,w,c
  1407   001C84  A4D8               	btfss	status,2,c
  1408   001C86  EF47  F00E         	goto	u5241
  1409   001C8A  EF49  F00E         	goto	u5240
  1410   001C8E                     u5241:
  1411   001C8E  EF4F  F00E         	goto	l6964
  1412   001C92                     u5240:
  1413   001C92  0E6E               	movlw	low _lcd1
  1414   001C94  6E52               	movwf	lcd_4bit_clear@lcd^0,c
  1415   001C96  0E00               	movlw	high _lcd1
  1416   001C98  6E53               	movwf	(lcd_4bit_clear@lcd+1)^0,c
  1417   001C9A  EC81  F010         	call	_lcd_4bit_clear	;wreg free
  1418   001C9E                     l6964:
  1419                           
  1420                           ;UserInterfaces.c: 54:     volatile uint8 keypad_val = 0;
  1421   001C9E  0E00               	movlw	0
  1422   001CA0  6E60               	movwf	settingsUI@keypad_val^0,c	;volatile
  1423   001CA2  0E6E               	movlw	low _lcd1
  1424   001CA4  6E59               	movwf	lcd_4bit_send_string_pos@lcd^0,c
  1425   001CA6  0E00               	movlw	high _lcd1
  1426   001CA8  6E5A               	movwf	(lcd_4bit_send_string_pos@lcd+1)^0,c
  1427   001CAA  0E01               	movlw	1
  1428   001CAC  6E5B               	movwf	lcd_4bit_send_string_pos@row^0,c
  1429   001CAE  0E04               	movlw	4
  1430   001CB0  6E5C               	movwf	lcd_4bit_send_string_pos@column^0,c
  1431   001CB2  0E44               	movlw	low STR_6
  1432   001CB4  6E5D               	movwf	lcd_4bit_send_string_pos@str^0,c
  1433   001CB6  0E10               	movlw	high STR_6
  1434   001CB8  6E5E               	movwf	(lcd_4bit_send_string_pos@str+1)^0,c
  1435   001CBA  ECD1  F00E         	call	_lcd_4bit_send_string_pos	;wreg free
  1436   001CBE  0E6E               	movlw	low _lcd1
  1437   001CC0  6E59               	movwf	lcd_4bit_send_string_pos@lcd^0,c
  1438   001CC2  0E00               	movlw	high _lcd1
  1439   001CC4  6E5A               	movwf	(lcd_4bit_send_string_pos@lcd+1)^0,c
  1440   001CC6  0E04               	movlw	4
  1441   001CC8  6E5B               	movwf	lcd_4bit_send_string_pos@row^0,c
  1442   001CCA  0E01               	movlw	1
  1443   001CCC  6E5C               	movwf	lcd_4bit_send_string_pos@column^0,c
  1444   001CCE  0E4D               	movlw	low STR_7
  1445   001CD0  6E5D               	movwf	lcd_4bit_send_string_pos@str^0,c
  1446   001CD2  0E10               	movlw	high STR_7
  1447   001CD4  6E5E               	movwf	(lcd_4bit_send_string_pos@str+1)^0,c
  1448   001CD6  ECD1  F00E         	call	_lcd_4bit_send_string_pos	;wreg free
  1449   001CDA  0EA2               	movlw	low _keypad1
  1450   001CDC  6E4A               	movwf	keypad_get_value@_keypad_obj^0,c
  1451   001CDE  0E00               	movlw	high _keypad1
  1452   001CE0  6E4B               	movwf	(keypad_get_value@_keypad_obj+1)^0,c
  1453   001CE2  0E60               	movlw	low settingsUI@keypad_val
  1454   001CE4  6E4C               	movwf	keypad_get_value@value^0,c
  1455   001CE6  0E00               	movlw	high settingsUI@keypad_val
  1456   001CE8  6E4D               	movwf	(keypad_get_value@value+1)^0,c
  1457   001CEA  ECAE  F00C         	call	_keypad_get_value	;wreg free
  1458   001CEE                     
  1459                           ;UserInterfaces.c: 58:     if('*'==keypad_val){
  1460   001CEE  0E2A               	movlw	42
  1461   001CF0  1860               	xorwf	settingsUI@keypad_val^0,w,c	;volatile
  1462   001CF2  A4D8               	btfss	status,2,c
  1463   001CF4  EF7E  F00E         	goto	u5251
  1464   001CF8  EF80  F00E         	goto	u5250
  1465   001CFC                     u5251:
  1466   001CFC  EF89  F00E         	goto	l6978
  1467   001D00                     u5250:
  1468   001D00                     
  1469                           ;UserInterfaces.c: 59:         interfaceHandler = homeUI;
  1470   001D00  0EE2               	movlw	low _homeUI
  1471   001D02  0100               	movlb	0	; () banked
  1472   001D04  6FC0               	movwf	_interfaceHandler& (0+255),b
  1473   001D06  0E1B               	movlw	high _homeUI
  1474   001D08  6FC1               	movwf	(_interfaceHandler+1)& (0+255),b
  1475   001D0A                     
  1476                           ; BSR set to: 0
  1477                           ;UserInterfaces.c: 60:         samefunctionFlage = 0;
  1478   001D0A  0E00               	movlw	0
  1479   001D0C  6E62               	movwf	_samefunctionFlage^0,c
  1480                           
  1481                           ;UserInterfaces.c: 61:     }
  1482   001D0E  EF90  F00E         	goto	l1757
  1483   001D12                     l6978:
  1484                           
  1485                           ;UserInterfaces.c: 63:         interfaceHandler = settingsUI;
  1486   001D12  0E82               	movlw	low _settingsUI
  1487   001D14  0100               	movlb	0	; () banked
  1488   001D16  6FC0               	movwf	_interfaceHandler& (0+255),b
  1489   001D18  0E1C               	movlw	high _settingsUI
  1490   001D1A  6FC1               	movwf	(_interfaceHandler+1)& (0+255),b
  1491   001D1C                     
  1492                           ; BSR set to: 0
  1493                           ;UserInterfaces.c: 64:         samefunctionFlage = 1;
  1494   001D1C  0E01               	movlw	1
  1495   001D1E  6E62               	movwf	_samefunctionFlage^0,c
  1496   001D20                     l1757:
  1497                           
  1498                           ; BSR set to: 0
  1499   001D20  0012               	return		;funcret
  1500   001D22                     __end_of_settingsUI:
  1501                           	callstack 0
  1502                           
  1503 ;; *************** function _lcd_4bit_send_char_data_pos *****************
  1504 ;; Defined at:
  1505 ;;		line 133 in file "ECU_Layer/Chr_LCD/ecu_chr_lcd.c"
  1506 ;; Parameters:    Size  Location     Type
  1507 ;;  lcd             2   26[COMRAM] PTR const struct .
  1508 ;;		 -> lcd1(6), 
  1509 ;;  row             1   28[COMRAM] unsigned char 
  1510 ;;  column          1   29[COMRAM] unsigned char 
  1511 ;;  data            1   30[COMRAM] unsigned char 
  1512 ;; Auto vars:     Size  Location     Type
  1513 ;;  ret             1   31[COMRAM] unsigned char 
  1514 ;; Return value:  Size  Location     Type
  1515 ;;                  1    wreg      unsigned char 
  1516 ;; Registers used:
  1517 ;;		wreg, fsr2l, fsr2h, status,2, status,0, prodl, prodh, cstack
  1518 ;; Tracked objects:
  1519 ;;		On entry : 0/0
  1520 ;;		On exit  : 0/0
  1521 ;;		Unchanged: 0/0
  1522 ;; Data sizes:     COMRAM   BANK0   BANK1   BANK2   BANK3   BANK4   BANK5   BANK6   BANK7   BANK8   BANK9  BANK10  BANK1
      +1  BANK12  BANK13  BANK14  BANK15
  1523 ;;      Params:         5       0       0       0       0       0       0       0       0       0       0       0       
      +0       0       0       0       0
  1524 ;;      Locals:         1       0       0       0       0       0       0       0       0       0       0       0       
      +0       0       0       0       0
  1525 ;;      Temps:          0       0       0       0       0       0       0       0       0       0       0       0       
      +0       0       0       0       0
  1526 ;;      Totals:         6       0       0       0       0       0       0       0       0       0       0       0       
      +0       0       0       0       0
  1527 ;;Total ram usage:        6 bytes
  1528 ;; Hardware stack levels used: 1
  1529 ;; Hardware stack levels required when called: 6
  1530 ;; This function calls:
  1531 ;;		_lcd_4bit_send_char_data
  1532 ;;		_lcd_4bit_set_cursor
  1533 ;; This function is called by:
  1534 ;;		_passwordUI
  1535 ;;		_lcd_4bit_send_custom_char
  1536 ;; This function uses a non-reentrant model
  1537 ;;
  1538                           
  1539                           	psect	text5
  1540   002034                     __ptext5:
  1541                           	callstack 0
  1542   002034                     _lcd_4bit_send_char_data_pos:
  1543                           	callstack 22
  1544   002034                     
  1545                           ;ECU_Layer/Chr_LCD/ecu_chr_lcd.c: 135:     if(((void*)0) == lcd){
  1546   002034  5059               	movf	lcd_4bit_send_char_data_pos@lcd^0,w,c
  1547   002036  105A               	iorwf	(lcd_4bit_send_char_data_pos@lcd+1)^0,w,c
  1548   002038  A4D8               	btfss	status,2,c
  1549   00203A  EF21  F010         	goto	u5051
  1550   00203E  EF23  F010         	goto	u5050
  1551   002042                     u5051:
  1552   002042  EF27  F010         	goto	l6740
  1553   002046                     u5050:
  1554   002046                     
  1555                           ;ECU_Layer/Chr_LCD/ecu_chr_lcd.c: 136:         ret = (Std_ReturnType)0x00;
  1556   002046  0E00               	movlw	0
  1557   002048  6E5E               	movwf	lcd_4bit_send_char_data_pos@ret^0,c
  1558                           
  1559                           ;ECU_Layer/Chr_LCD/ecu_chr_lcd.c: 137:     }
  1560   00204A  EF3B  F010         	goto	l6742
  1561   00204E                     l6740:
  1562                           
  1563                           ;ECU_Layer/Chr_LCD/ecu_chr_lcd.c: 139:         ret = lcd_4bit_set_cursor(lcd, row, colum
      +                          n);
  1564   00204E  C059  F052         	movff	lcd_4bit_send_char_data_pos@lcd,lcd_4bit_set_cursor@lcd
  1565   002052  C05A  F053         	movff	lcd_4bit_send_char_data_pos@lcd+1,lcd_4bit_set_cursor@lcd+1
  1566   002056  C05B  F054         	movff	lcd_4bit_send_char_data_pos@row,lcd_4bit_set_cursor@row
  1567   00205A  C05C  F055         	movff	lcd_4bit_send_char_data_pos@column,lcd_4bit_set_cursor@coulmn
  1568   00205E  EC9D  F00D         	call	_lcd_4bit_set_cursor	;wreg free
  1569   002062  6E5E               	movwf	lcd_4bit_send_char_data_pos@ret^0,c
  1570                           
  1571                           ;ECU_Layer/Chr_LCD/ecu_chr_lcd.c: 140:         ret = lcd_4bit_send_char_data(lcd, data);
  1572   002064  C059  F04E         	movff	lcd_4bit_send_char_data_pos@lcd,lcd_4bit_send_char_data@lcd
  1573   002068  C05A  F04F         	movff	lcd_4bit_send_char_data_pos@lcd+1,lcd_4bit_send_char_data@lcd+1
  1574   00206C  C05D  F050         	movff	lcd_4bit_send_char_data_pos@data,lcd_4bit_send_char_data@data
  1575   002070  EC0D  F00F         	call	_lcd_4bit_send_char_data	;wreg free
  1576   002074  6E5E               	movwf	lcd_4bit_send_char_data_pos@ret^0,c
  1577   002076                     l6742:
  1578                           
  1579                           ;ECU_Layer/Chr_LCD/ecu_chr_lcd.c: 142:     return ret;
  1580   002076  505E               	movf	lcd_4bit_send_char_data_pos@ret^0,w,c
  1581   002078  0012               	return		;funcret
  1582   00207A                     __end_of_lcd_4bit_send_char_data_pos:
  1583                           	callstack 0
  1584                           
  1585 ;; *************** function _lcd_4bit_send_string_pos *****************
  1586 ;; Defined at:
  1587 ;;		line 176 in file "ECU_Layer/Chr_LCD/ecu_chr_lcd.c"
  1588 ;; Parameters:    Size  Location     Type
  1589 ;;  lcd             2   26[COMRAM] PTR const struct .
  1590 ;;		 -> lcd1(6), 
  1591 ;;  row             1   28[COMRAM] unsigned char 
  1592 ;;  column          1   29[COMRAM] unsigned char 
  1593 ;;  str             2   30[COMRAM] PTR unsigned char 
  1594 ;;		 -> STR_10(15), STR_9(7), STR_8(16), STR_7(7), 
  1595 ;;		 -> STR_6(9), STR_5(11), STR_4(13), 
  1596 ;; Auto vars:     Size  Location     Type
  1597 ;;  ret             1   32[COMRAM] unsigned char 
  1598 ;; Return value:  Size  Location     Type
  1599 ;;                  1    wreg      unsigned char 
  1600 ;; Registers used:
  1601 ;;		wreg, fsr2l, fsr2h, status,2, status,0, tblptrl, tblptrh, tblptru, prodl, prodh, cstack
  1602 ;; Tracked objects:
  1603 ;;		On entry : 0/0
  1604 ;;		On exit  : 0/0
  1605 ;;		Unchanged: 0/0
  1606 ;; Data sizes:     COMRAM   BANK0   BANK1   BANK2   BANK3   BANK4   BANK5   BANK6   BANK7   BANK8   BANK9  BANK10  BANK1
      +1  BANK12  BANK13  BANK14  BANK15
  1607 ;;      Params:         6       0       0       0       0       0       0       0       0       0       0       0       
      +0       0       0       0       0
  1608 ;;      Locals:         1       0       0       0       0       0       0       0       0       0       0       0       
      +0       0       0       0       0
  1609 ;;      Temps:          0       0       0       0       0       0       0       0       0       0       0       0       
      +0       0       0       0       0
  1610 ;;      Totals:         7       0       0       0       0       0       0       0       0       0       0       0       
      +0       0       0       0       0
  1611 ;;Total ram usage:        7 bytes
  1612 ;; Hardware stack levels used: 1
  1613 ;; Hardware stack levels required when called: 6
  1614 ;; This function calls:
  1615 ;;		_lcd_4bit_send_char_data
  1616 ;;		_lcd_4bit_set_cursor
  1617 ;; This function is called by:
  1618 ;;		_homeUI
  1619 ;;		_settingsUI
  1620 ;;		_passwordUI
  1621 ;; This function uses a non-reentrant model
  1622 ;;
  1623                           
  1624                           	psect	text6
  1625   001DA2                     __ptext6:
  1626                           	callstack 0
  1627   001DA2                     _lcd_4bit_send_string_pos:
  1628                           	callstack 22
  1629   001DA2                     
  1630                           ;ECU_Layer/Chr_LCD/ecu_chr_lcd.c: 178:     if(((void*)0) == lcd){
  1631   001DA2  5059               	movf	lcd_4bit_send_string_pos@lcd^0,w,c
  1632   001DA4  105A               	iorwf	(lcd_4bit_send_string_pos@lcd+1)^0,w,c
  1633   001DA6  A4D8               	btfss	status,2,c
  1634   001DA8  EFD8  F00E         	goto	u5061
  1635   001DAC  EFDA  F00E         	goto	u5060
  1636   001DB0                     u5061:
  1637   001DB0  EFDE  F00E         	goto	l6752
  1638   001DB4                     u5060:
  1639   001DB4                     
  1640                           ;ECU_Layer/Chr_LCD/ecu_chr_lcd.c: 179:         ret = (Std_ReturnType)0x00;
  1641   001DB4  0E00               	movlw	0
  1642   001DB6  6E5F               	movwf	lcd_4bit_send_string_pos@ret^0,c
  1643                           
  1644                           ;ECU_Layer/Chr_LCD/ecu_chr_lcd.c: 180:     }
  1645   001DB8  EF0B  F00F         	goto	l6760
  1646   001DBC                     l6752:
  1647                           
  1648                           ;ECU_Layer/Chr_LCD/ecu_chr_lcd.c: 182:         ret = lcd_4bit_set_cursor(lcd, row, colum
      +                          n);
  1649   001DBC  C059  F052         	movff	lcd_4bit_send_string_pos@lcd,lcd_4bit_set_cursor@lcd
  1650   001DC0  C05A  F053         	movff	lcd_4bit_send_string_pos@lcd+1,lcd_4bit_set_cursor@lcd+1
  1651   001DC4  C05B  F054         	movff	lcd_4bit_send_string_pos@row,lcd_4bit_set_cursor@row
  1652   001DC8  C05C  F055         	movff	lcd_4bit_send_string_pos@column,lcd_4bit_set_cursor@coulmn
  1653   001DCC  EC9D  F00D         	call	_lcd_4bit_set_cursor	;wreg free
  1654   001DD0  6E5F               	movwf	lcd_4bit_send_string_pos@ret^0,c
  1655                           
  1656                           ;ECU_Layer/Chr_LCD/ecu_chr_lcd.c: 183:         while(*str){
  1657   001DD2  EFFC  F00E         	goto	l6758
  1658   001DD6                     l6754:
  1659                           
  1660                           ;ECU_Layer/Chr_LCD/ecu_chr_lcd.c: 184:             ret = lcd_4bit_send_char_data(lcd, *s
      +                          tr++);
  1661   001DD6  C059  F04E         	movff	lcd_4bit_send_string_pos@lcd,lcd_4bit_send_char_data@lcd
  1662   001DDA  C05A  F04F         	movff	lcd_4bit_send_string_pos@lcd+1,lcd_4bit_send_char_data@lcd+1
  1663   001DDE  C05D  FFF6         	movff	lcd_4bit_send_string_pos@str,tblptrl
  1664   001DE2  C05E  FFF7         	movff	lcd_4bit_send_string_pos@str+1,tblptrh
  1665   001DE6                     	if	1	;Program memory is < 0x10000, tblptru is always zero
  1666   001DE6  6AF8               	clrf	tblptru,c
  1667   001DE8                     	endif
  1668   001DE8                     	if	0	;tblptru may be non-zero
  1669   001DE8                     	endif
  1670   001DE8  0008               	tblrd		*
  1671   001DEA  CFF5 F050          	movff	tablat,lcd_4bit_send_char_data@data
  1672   001DEE  EC0D  F00F         	call	_lcd_4bit_send_char_data	;wreg free
  1673   001DF2  6E5F               	movwf	lcd_4bit_send_string_pos@ret^0,c
  1674   001DF4  4A5D               	infsnz	lcd_4bit_send_string_pos@str^0,f,c
  1675   001DF6  2A5E               	incf	(lcd_4bit_send_string_pos@str+1)^0,f,c
  1676   001DF8                     l6758:
  1677                           
  1678                           ;ECU_Layer/Chr_LCD/ecu_chr_lcd.c: 183:         while(*str){
  1679   001DF8  C05D  FFF6         	movff	lcd_4bit_send_string_pos@str,tblptrl
  1680   001DFC  C05E  FFF7         	movff	lcd_4bit_send_string_pos@str+1,tblptrh
  1681   001E00                     	if	1	;Program memory is < 0x10000, tblptru is always zero
  1682   001E00  6AF8               	clrf	tblptru,c
  1683   001E02                     	endif
  1684   001E02                     	if	0	;tblptru may be non-zero
  1685   001E02                     	endif
  1686   001E02  0008               	tblrd		*
  1687   001E04  50F5               	movf	tablat,w,c
  1688   001E06  0900               	iorlw	0
  1689   001E08  A4D8               	btfss	status,2,c
  1690   001E0A  EF09  F00F         	goto	u5071
  1691   001E0E  EF0B  F00F         	goto	u5070
  1692   001E12                     u5071:
  1693   001E12  EFEB  F00E         	goto	l6754
  1694   001E16                     u5070:
  1695   001E16                     l6760:
  1696                           
  1697                           ;ECU_Layer/Chr_LCD/ecu_chr_lcd.c: 187:     return ret;
  1698   001E16  505F               	movf	lcd_4bit_send_string_pos@ret^0,w,c
  1699   001E18  0012               	return		;funcret
  1700   001E1A                     __end_of_lcd_4bit_send_string_pos:
  1701                           	callstack 0
  1702                           
  1703 ;; *************** function _lcd_4bit_set_cursor *****************
  1704 ;; Defined at:
  1705 ;;		line 548 in file "ECU_Layer/Chr_LCD/ecu_chr_lcd.c"
  1706 ;; Parameters:    Size  Location     Type
  1707 ;;  lcd             2   19[COMRAM] PTR const struct .
  1708 ;;		 -> lcd1(6), 
  1709 ;;  row             1   21[COMRAM] unsigned char 
  1710 ;;  coulmn          1   22[COMRAM] unsigned char 
  1711 ;; Auto vars:     Size  Location     Type
  1712 ;;  ret             1   25[COMRAM] unsigned char 
  1713 ;; Return value:  Size  Location     Type
  1714 ;;                  1    wreg      unsigned char 
  1715 ;; Registers used:
  1716 ;;		wreg, fsr2l, fsr2h, status,2, status,0, prodl, prodh, cstack
  1717 ;; Tracked objects:
  1718 ;;		On entry : 0/0
  1719 ;;		On exit  : 0/0
  1720 ;;		Unchanged: 0/0
  1721 ;; Data sizes:     COMRAM   BANK0   BANK1   BANK2   BANK3   BANK4   BANK5   BANK6   BANK7   BANK8   BANK9  BANK10  BANK1
      +1  BANK12  BANK13  BANK14  BANK15
  1722 ;;      Params:         4       0       0       0       0       0       0       0       0       0       0       0       
      +0       0       0       0       0
  1723 ;;      Locals:         1       0       0       0       0       0       0       0       0       0       0       0       
      +0       0       0       0       0
  1724 ;;      Temps:          2       0       0       0       0       0       0       0       0       0       0       0       
      +0       0       0       0       0
  1725 ;;      Totals:         7       0       0       0       0       0       0       0       0       0       0       0       
      +0       0       0       0       0
  1726 ;;Total ram usage:        7 bytes
  1727 ;; Hardware stack levels used: 1
  1728 ;; Hardware stack levels required when called: 5
  1729 ;; This function calls:
  1730 ;;		_lcd_4bit_send_command
  1731 ;; This function is called by:
  1732 ;;		_lcd_4bit_send_char_data_pos
  1733 ;;		_lcd_4bit_send_string_pos
  1734 ;; This function uses a non-reentrant model
  1735 ;;
  1736                           
  1737                           	psect	text7
  1738   001B3A                     __ptext7:
  1739                           	callstack 0
  1740   001B3A                     _lcd_4bit_set_cursor:
  1741                           	callstack 22
  1742   001B3A                     
  1743                           ;ECU_Layer/Chr_LCD/ecu_chr_lcd.c: 549:     Std_ReturnType ret = (Std_ReturnType)0x01;
  1744   001B3A  0E01               	movlw	1
  1745   001B3C  6E58               	movwf	lcd_4bit_set_cursor@ret^0,c
  1746   001B3E                     
  1747                           ;ECU_Layer/Chr_LCD/ecu_chr_lcd.c: 550:     coulmn--;
  1748   001B3E  0655               	decf	lcd_4bit_set_cursor@coulmn^0,f,c
  1749                           
  1750                           ;ECU_Layer/Chr_LCD/ecu_chr_lcd.c: 551:     switch(row){
  1751   001B40  EFD2  F00D         	goto	l6702
  1752   001B44                     l6694:
  1753   001B44  C052  F04E         	movff	lcd_4bit_set_cursor@lcd,lcd_4bit_send_command@lcd
  1754   001B48  C053  F04F         	movff	lcd_4bit_set_cursor@lcd+1,lcd_4bit_send_command@lcd+1
  1755   001B4C  5055               	movf	lcd_4bit_set_cursor@coulmn^0,w,c
  1756   001B4E  0F80               	addlw	128
  1757   001B50  6E50               	movwf	lcd_4bit_send_command@command^0,c
  1758   001B52  EC46  F00F         	call	_lcd_4bit_send_command	;wreg free
  1759   001B56  6E58               	movwf	lcd_4bit_set_cursor@ret^0,c
  1760   001B58  EFEF  F00D         	goto	l6704
  1761   001B5C                     l6696:
  1762   001B5C  C052  F04E         	movff	lcd_4bit_set_cursor@lcd,lcd_4bit_send_command@lcd
  1763   001B60  C053  F04F         	movff	lcd_4bit_set_cursor@lcd+1,lcd_4bit_send_command@lcd+1
  1764   001B64  5055               	movf	lcd_4bit_set_cursor@coulmn^0,w,c
  1765   001B66  0FC0               	addlw	192
  1766   001B68  6E50               	movwf	lcd_4bit_send_command@command^0,c
  1767   001B6A  EC46  F00F         	call	_lcd_4bit_send_command	;wreg free
  1768   001B6E  6E58               	movwf	lcd_4bit_set_cursor@ret^0,c
  1769   001B70  EFEF  F00D         	goto	l6704
  1770   001B74                     l6698:
  1771   001B74  C052  F04E         	movff	lcd_4bit_set_cursor@lcd,lcd_4bit_send_command@lcd
  1772   001B78  C053  F04F         	movff	lcd_4bit_set_cursor@lcd+1,lcd_4bit_send_command@lcd+1
  1773   001B7C  5055               	movf	lcd_4bit_set_cursor@coulmn^0,w,c
  1774   001B7E  0F94               	addlw	148
  1775   001B80  6E50               	movwf	lcd_4bit_send_command@command^0,c
  1776   001B82  EC46  F00F         	call	_lcd_4bit_send_command	;wreg free
  1777   001B86  6E58               	movwf	lcd_4bit_set_cursor@ret^0,c
  1778   001B88  EFEF  F00D         	goto	l6704
  1779   001B8C                     l6700:
  1780   001B8C  C052  F04E         	movff	lcd_4bit_set_cursor@lcd,lcd_4bit_send_command@lcd
  1781   001B90  C053  F04F         	movff	lcd_4bit_set_cursor@lcd+1,lcd_4bit_send_command@lcd+1
  1782   001B94  5055               	movf	lcd_4bit_set_cursor@coulmn^0,w,c
  1783   001B96  0FD4               	addlw	212
  1784   001B98  6E50               	movwf	lcd_4bit_send_command@command^0,c
  1785   001B9A  EC46  F00F         	call	_lcd_4bit_send_command	;wreg free
  1786   001B9E  6E58               	movwf	lcd_4bit_set_cursor@ret^0,c
  1787   001BA0  EFEF  F00D         	goto	l6704
  1788   001BA4                     l6702:
  1789   001BA4  5054               	movf	lcd_4bit_set_cursor@row^0,w,c
  1790   001BA6  6E56               	movwf	??_lcd_4bit_set_cursor^0,c
  1791   001BA8  6A57               	clrf	(??_lcd_4bit_set_cursor+1)^0,c
  1792                           
  1793                           ; Switch on 2 bytes has been partitioned into a top level switch of size 1, and 1 sub-sw
      +                          itches
  1794                           ; Switch size 1, requested type "simple"
  1795                           ; Number of cases is 1, Range of values is 0 to 0
  1796                           ; switch strategies available:
  1797                           ; Name         Instructions Cycles
  1798                           ; simple_byte            4     3 (average)
  1799                           ;	Chosen strategy is simple_byte
  1800   001BAA  5057               	movf	(??_lcd_4bit_set_cursor+1)^0,w,c
  1801   001BAC  0A00               	xorlw	0	; case 0
  1802   001BAE  B4D8               	btfsc	status,2,c
  1803   001BB0  EFDC  F00D         	goto	l7554
  1804   001BB4  EFEF  F00D         	goto	l6704
  1805   001BB8                     l7554:
  1806                           
  1807                           ; Switch size 1, requested type "simple"
  1808                           ; Number of cases is 4, Range of values is 1 to 4
  1809                           ; switch strategies available:
  1810                           ; Name         Instructions Cycles
  1811                           ; simple_byte           13     7 (average)
  1812                           ;	Chosen strategy is simple_byte
  1813   001BB8  5056               	movf	??_lcd_4bit_set_cursor^0,w,c
  1814   001BBA  0A01               	xorlw	1	; case 1
  1815   001BBC  B4D8               	btfsc	status,2,c
  1816   001BBE  EFA2  F00D         	goto	l6694
  1817   001BC2  0A03               	xorlw	3	; case 2
  1818   001BC4  B4D8               	btfsc	status,2,c
  1819   001BC6  EFAE  F00D         	goto	l6696
  1820   001BCA  0A01               	xorlw	1	; case 3
  1821   001BCC  B4D8               	btfsc	status,2,c
  1822   001BCE  EFBA  F00D         	goto	l6698
  1823   001BD2  0A07               	xorlw	7	; case 4
  1824   001BD4  B4D8               	btfsc	status,2,c
  1825   001BD6  EFC6  F00D         	goto	l6700
  1826   001BDA  EFEF  F00D         	goto	l6704
  1827   001BDE                     l6704:
  1828                           
  1829                           ;ECU_Layer/Chr_LCD/ecu_chr_lcd.c: 558:     return ret;
  1830   001BDE  5058               	movf	lcd_4bit_set_cursor@ret^0,w,c
  1831   001BE0  0012               	return		;funcret
  1832   001BE2                     __end_of_lcd_4bit_set_cursor:
  1833                           	callstack 0
  1834                           
  1835 ;; *************** function _lcd_4bit_send_char_data *****************
  1836 ;; Defined at:
  1837 ;;		line 102 in file "ECU_Layer/Chr_LCD/ecu_chr_lcd.c"
  1838 ;; Parameters:    Size  Location     Type
  1839 ;;  lcd             2   15[COMRAM] PTR const struct .
  1840 ;;		 -> lcd1(6), 
  1841 ;;  data            1   17[COMRAM] unsigned char 
  1842 ;; Auto vars:     Size  Location     Type
  1843 ;;  ret             1   18[COMRAM] unsigned char 
  1844 ;; Return value:  Size  Location     Type
  1845 ;;                  1    wreg      unsigned char 
  1846 ;; Registers used:
  1847 ;;		wreg, fsr2l, fsr2h, status,2, status,0, prodl, prodh, cstack
  1848 ;; Tracked objects:
  1849 ;;		On entry : 0/0
  1850 ;;		On exit  : 0/0
  1851 ;;		Unchanged: 0/0
  1852 ;; Data sizes:     COMRAM   BANK0   BANK1   BANK2   BANK3   BANK4   BANK5   BANK6   BANK7   BANK8   BANK9  BANK10  BANK1
      +1  BANK12  BANK13  BANK14  BANK15
  1853 ;;      Params:         3       0       0       0       0       0       0       0       0       0       0       0       
      +0       0       0       0       0
  1854 ;;      Locals:         1       0       0       0       0       0       0       0       0       0       0       0       
      +0       0       0       0       0
  1855 ;;      Temps:          0       0       0       0       0       0       0       0       0       0       0       0       
      +0       0       0       0       0
  1856 ;;      Totals:         4       0       0       0       0       0       0       0       0       0       0       0       
      +0       0       0       0       0
  1857 ;;Total ram usage:        4 bytes
  1858 ;; Hardware stack levels used: 1
  1859 ;; Hardware stack levels required when called: 4
  1860 ;; This function calls:
  1861 ;;		_gpio_pin_write_logic
  1862 ;;		_lcd_4bit_send_enable_signal
  1863 ;;		_lcd_send_4bits
  1864 ;; This function is called by:
  1865 ;;		_lcd_4bit_send_char_data_pos
  1866 ;;		_lcd_4bit_send_string_pos
  1867 ;;		_lcd_4bit_send_string
  1868 ;;		_lcd_4bit_send_custom_char
  1869 ;; This function uses a non-reentrant model
  1870 ;;
  1871                           
  1872                           	psect	text8
  1873   001E1A                     __ptext8:
  1874                           	callstack 0
  1875   001E1A                     _lcd_4bit_send_char_data:
  1876                           	callstack 23
  1877   001E1A                     
  1878                           ;ECU_Layer/Chr_LCD/ecu_chr_lcd.c: 104:     if(((void*)0) == lcd){
  1879   001E1A  504E               	movf	lcd_4bit_send_char_data@lcd^0,w,c
  1880   001E1C  104F               	iorwf	(lcd_4bit_send_char_data@lcd+1)^0,w,c
  1881   001E1E  A4D8               	btfss	status,2,c
  1882   001E20  EF14  F00F         	goto	u5011
  1883   001E24  EF16  F00F         	goto	u5010
  1884   001E28                     u5011:
  1885   001E28  EF1A  F00F         	goto	l6684
  1886   001E2C                     u5010:
  1887   001E2C                     
  1888                           ;ECU_Layer/Chr_LCD/ecu_chr_lcd.c: 105:         ret = (Std_ReturnType)0x00;
  1889   001E2C  0E00               	movlw	0
  1890   001E2E  6E51               	movwf	lcd_4bit_send_char_data@ret^0,c
  1891                           
  1892                           ;ECU_Layer/Chr_LCD/ecu_chr_lcd.c: 106:     }
  1893   001E30  EF44  F00F         	goto	l6686
  1894   001E34                     l6684:
  1895                           
  1896                           ;ECU_Layer/Chr_LCD/ecu_chr_lcd.c: 110:         ret = gpio_pin_write_logic(&(lcd->lcd_rs)
      +                          , GPIO_HIGH);
  1897   001E34  C04E  F040         	movff	lcd_4bit_send_char_data@lcd,gpio_pin_write_logic@_pin_config
  1898   001E38  C04F  F041         	movff	lcd_4bit_send_char_data@lcd+1,gpio_pin_write_logic@_pin_config+1
  1899   001E3C  0E01               	movlw	1
  1900   001E3E  6E42               	movwf	gpio_pin_write_logic@logic^0,c
  1901   001E40  EC18  F00C         	call	_gpio_pin_write_logic	;wreg free
  1902   001E44  6E51               	movwf	lcd_4bit_send_char_data@ret^0,c
  1903                           
  1904                           ;ECU_Layer/Chr_LCD/ecu_chr_lcd.c: 112:         ret = lcd_send_4bits(lcd, data >> 4);
  1905   001E46  C04E  F04A         	movff	lcd_4bit_send_char_data@lcd,lcd_send_4bits@lcd
  1906   001E4A  C04F  F04B         	movff	lcd_4bit_send_char_data@lcd+1,lcd_send_4bits@lcd+1
  1907   001E4E  3850               	swapf	lcd_4bit_send_char_data@data^0,w,c
  1908   001E50  0B0F               	andlw	15
  1909   001E52  6E4C               	movwf	lcd_send_4bits@_data_command^0,c
  1910   001E54  ECB5  F00F         	call	_lcd_send_4bits	;wreg free
  1911   001E58  6E51               	movwf	lcd_4bit_send_char_data@ret^0,c
  1912                           
  1913                           ;ECU_Layer/Chr_LCD/ecu_chr_lcd.c: 114:         ret = lcd_4bit_send_enable_signal(lcd);
  1914   001E5A  C04E  F04A         	movff	lcd_4bit_send_char_data@lcd,lcd_4bit_send_enable_signal@lcd
  1915   001E5E  C04F  F04B         	movff	lcd_4bit_send_char_data@lcd+1,lcd_4bit_send_enable_signal@lcd+1
  1916   001E62  EC3D  F010         	call	_lcd_4bit_send_enable_signal	;wreg free
  1917   001E66  6E51               	movwf	lcd_4bit_send_char_data@ret^0,c
  1918                           
  1919                           ;ECU_Layer/Chr_LCD/ecu_chr_lcd.c: 116:         ret = lcd_send_4bits(lcd, data);
  1920   001E68  C04E  F04A         	movff	lcd_4bit_send_char_data@lcd,lcd_send_4bits@lcd
  1921   001E6C  C04F  F04B         	movff	lcd_4bit_send_char_data@lcd+1,lcd_send_4bits@lcd+1
  1922   001E70  C050  F04C         	movff	lcd_4bit_send_char_data@data,lcd_send_4bits@_data_command
  1923   001E74  ECB5  F00F         	call	_lcd_send_4bits	;wreg free
  1924   001E78  6E51               	movwf	lcd_4bit_send_char_data@ret^0,c
  1925                           
  1926                           ;ECU_Layer/Chr_LCD/ecu_chr_lcd.c: 118:         ret = lcd_4bit_send_enable_signal(lcd);
  1927   001E7A  C04E  F04A         	movff	lcd_4bit_send_char_data@lcd,lcd_4bit_send_enable_signal@lcd
  1928   001E7E  C04F  F04B         	movff	lcd_4bit_send_char_data@lcd+1,lcd_4bit_send_enable_signal@lcd+1
  1929   001E82  EC3D  F010         	call	_lcd_4bit_send_enable_signal	;wreg free
  1930   001E86  6E51               	movwf	lcd_4bit_send_char_data@ret^0,c
  1931   001E88                     l6686:
  1932                           
  1933                           ;ECU_Layer/Chr_LCD/ecu_chr_lcd.c: 120:     return ret;
  1934   001E88  5051               	movf	lcd_4bit_send_char_data@ret^0,w,c
  1935   001E8A  0012               	return		;funcret
  1936   001E8C                     __end_of_lcd_4bit_send_char_data:
  1937                           	callstack 0
  1938                           
  1939 ;; *************** function _lcd_4bit_clear *****************
  1940 ;; Defined at:
  1941 ;;		line 53 in file "ECU_Layer/Chr_LCD/ecu_chr_lcd.c"
  1942 ;; Parameters:    Size  Location     Type
  1943 ;;  lcd             2   19[COMRAM] PTR const struct .
  1944 ;;		 -> lcd1(6), 
  1945 ;; Auto vars:     Size  Location     Type
  1946 ;;  ret             1    0        unsigned char 
  1947 ;; Return value:  Size  Location     Type
  1948 ;;                  1    wreg      unsigned char 
  1949 ;; Registers used:
  1950 ;;		wreg, fsr2l, fsr2h, status,2, status,0, prodl, prodh, cstack
  1951 ;; Tracked objects:
  1952 ;;		On entry : 0/0
  1953 ;;		On exit  : 0/0
  1954 ;;		Unchanged: 0/0
  1955 ;; Data sizes:     COMRAM   BANK0   BANK1   BANK2   BANK3   BANK4   BANK5   BANK6   BANK7   BANK8   BANK9  BANK10  BANK1
      +1  BANK12  BANK13  BANK14  BANK15
  1956 ;;      Params:         2       0       0       0       0       0       0       0       0       0       0       0       
      +0       0       0       0       0
  1957 ;;      Locals:         0       0       0       0       0       0       0       0       0       0       0       0       
      +0       0       0       0       0
  1958 ;;      Temps:          0       0       0       0       0       0       0       0       0       0       0       0       
      +0       0       0       0       0
  1959 ;;      Totals:         2       0       0       0       0       0       0       0       0       0       0       0       
      +0       0       0       0       0
  1960 ;;Total ram usage:        2 bytes
  1961 ;; Hardware stack levels used: 1
  1962 ;; Hardware stack levels required when called: 5
  1963 ;; This function calls:
  1964 ;;		_lcd_4bit_send_command
  1965 ;; This function is called by:
  1966 ;;		_homeUI
  1967 ;;		_settingsUI
  1968 ;;		_passwordUI
  1969 ;; This function uses a non-reentrant model
  1970 ;;
  1971                           
  1972                           	psect	text9
  1973   002102                     __ptext9:
  1974                           	callstack 0
  1975   002102                     _lcd_4bit_clear:
  1976                           	callstack 23
  1977   002102                     
  1978                           ;ECU_Layer/Chr_LCD/ecu_chr_lcd.c: 56:     if(((void*)0) == lcd){
  1979   002102  5052               	movf	lcd_4bit_clear@lcd^0,w,c
  1980   002104  1053               	iorwf	(lcd_4bit_clear@lcd+1)^0,w,c
  1981   002106  A4D8               	btfss	status,2,c
  1982   002108  EF88  F010         	goto	u5041
  1983   00210C  EF8A  F010         	goto	u5040
  1984   002110                     u5041:
  1985   002110  EF8C  F010         	goto	l6732
  1986   002114                     u5040:
  1987   002114                     
  1988                           ;ECU_Layer/Chr_LCD/ecu_chr_lcd.c: 58:     }
  1989   002114  EF94  F010         	goto	l74
  1990   002118                     l6732:
  1991   002118  C052  F04E         	movff	lcd_4bit_clear@lcd,lcd_4bit_send_command@lcd
  1992   00211C  C053  F04F         	movff	lcd_4bit_clear@lcd+1,lcd_4bit_send_command@lcd+1
  1993   002120  0E01               	movlw	1
  1994   002122  6E50               	movwf	lcd_4bit_send_command@command^0,c
  1995   002124  EC46  F00F         	call	_lcd_4bit_send_command	;wreg free
  1996   002128                     l74:
  1997   002128  0012               	return		;funcret
  1998   00212A                     __end_of_lcd_4bit_clear:
  1999                           	callstack 0
  2000                           
  2001 ;; *************** function _keypad_get_value *****************
  2002 ;; Defined at:
  2003 ;;		line 49 in file "ECU_Layer/KeyPad/ecu_keypad.c"
  2004 ;; Parameters:    Size  Location     Type
  2005 ;;  _keypad_obj     2   11[COMRAM] PTR const struct .
  2006 ;;		 -> keypad1(7), 
  2007 ;;  value           2   13[COMRAM] PTR unsigned char 
  2008 ;;		 -> passwordUI@password(4), settingsUI@keypad_val(1), homeUI@keypad_val(1), 
  2009 ;; Auto vars:     Size  Location     Type
  2010 ;;  l_columns_co    1   21[COMRAM] unsigned char 
  2011 ;;  l_rows_count    1   20[COMRAM] unsigned char 
  2012 ;;  l_counter       1   19[COMRAM] unsigned char 
  2013 ;;  ret             1   18[COMRAM] unsigned char 
  2014 ;;  column_logic    1   17[COMRAM] unsigned char 
  2015 ;; Return value:  Size  Location     Type
  2016 ;;                  1    wreg      unsigned char 
  2017 ;; Registers used:
  2018 ;;		wreg, fsr2l, fsr2h, status,2, status,0, tblptrl, tblptrh, tblptru, prodl, prodh, cstack
  2019 ;; Tracked objects:
  2020 ;;		On entry : 0/0
  2021 ;;		On exit  : 0/0
  2022 ;;		Unchanged: 0/0
  2023 ;; Data sizes:     COMRAM   BANK0   BANK1   BANK2   BANK3   BANK4   BANK5   BANK6   BANK7   BANK8   BANK9  BANK10  BANK1
      +1  BANK12  BANK13  BANK14  BANK15
  2024 ;;      Params:         4       0       0       0       0       0       0       0       0       0       0       0       
      +0       0       0       0       0
  2025 ;;      Locals:         5       0       0       0       0       0       0       0       0       0       0       0       
      +0       0       0       0       0
  2026 ;;      Temps:          2       0       0       0       0       0       0       0       0       0       0       0       
      +0       0       0       0       0
  2027 ;;      Totals:        11       0       0       0       0       0       0       0       0       0       0       0       
      +0       0       0       0       0
  2028 ;;Total ram usage:       11 bytes
  2029 ;; Hardware stack levels used: 1
  2030 ;; Hardware stack levels required when called: 3
  2031 ;; This function calls:
  2032 ;;		_gpio_pin_read_logic
  2033 ;;		_gpio_pin_write_logic
  2034 ;; This function is called by:
  2035 ;;		_homeUI
  2036 ;;		_settingsUI
  2037 ;;		_passwordUI
  2038 ;; This function uses a non-reentrant model
  2039 ;;
  2040                           
  2041                           	psect	text10
  2042   00195C                     __ptext10:
  2043                           	callstack 0
  2044   00195C                     _keypad_get_value:
  2045                           	callstack 25
  2046   00195C                     
  2047                           ;ECU_Layer/KeyPad/ecu_keypad.c: 51:     uint8 l_rows_counter = 0, l_columns_counter = 0,
      +                           l_counter = 0;
  2048   00195C  0E00               	movlw	0
  2049   00195E  6E53               	movwf	keypad_get_value@l_rows_counter^0,c
  2050   001960  0E00               	movlw	0
  2051   001962  6E54               	movwf	keypad_get_value@l_columns_counter^0,c
  2052   001964  0E00               	movlw	0
  2053   001966  6E52               	movwf	keypad_get_value@l_counter^0,c
  2054                           
  2055                           ;ECU_Layer/KeyPad/ecu_keypad.c: 52:     uint8 column_logic = 0;
  2056   001968  0E00               	movlw	0
  2057   00196A  6E50               	movwf	keypad_get_value@column_logic^0,c
  2058   00196C                     
  2059                           ;ECU_Layer/KeyPad/ecu_keypad.c: 53:     if((((void*)0) == _keypad_obj) || (((void*)0) ==
      +                           value)){
  2060   00196C  504A               	movf	keypad_get_value@_keypad_obj^0,w,c
  2061   00196E  104B               	iorwf	(keypad_get_value@_keypad_obj+1)^0,w,c
  2062   001970  B4D8               	btfsc	status,2,c
  2063   001972  EFBD  F00C         	goto	u5081
  2064   001976  EFBF  F00C         	goto	u5080
  2065   00197A                     u5081:
  2066   00197A  EFC8  F00C         	goto	l6770
  2067   00197E                     u5080:
  2068   00197E  504C               	movf	keypad_get_value@value^0,w,c
  2069   001980  104D               	iorwf	(keypad_get_value@value+1)^0,w,c
  2070   001982  A4D8               	btfss	status,2,c
  2071   001984  EFC6  F00C         	goto	u5091
  2072   001988  EFC8  F00C         	goto	u5090
  2073   00198C                     u5091:
  2074   00198C  EFCC  F00C         	goto	l6772
  2075   001990                     u5090:
  2076   001990                     l6770:
  2077                           
  2078                           ;ECU_Layer/KeyPad/ecu_keypad.c: 54:         ret = (Std_ReturnType)0x00;
  2079   001990  0E00               	movlw	0
  2080   001992  6E51               	movwf	keypad_get_value@ret^0,c
  2081                           
  2082                           ;ECU_Layer/KeyPad/ecu_keypad.c: 55:     }
  2083   001994  EF29  F00D         	goto	l6806
  2084   001998                     l6772:
  2085                           
  2086                           ;ECU_Layer/KeyPad/ecu_keypad.c: 58:         for(l_rows_counter=0; l_rows_counter<4; l_ro
      +                          ws_counter++){
  2087   001998  0E00               	movlw	0
  2088   00199A  6E53               	movwf	keypad_get_value@l_rows_counter^0,c
  2089   00199C                     l6778:
  2090                           
  2091                           ;ECU_Layer/KeyPad/ecu_keypad.c: 59:             for(l_counter=0; l_counter<4; l_counter+
      +                          +){
  2092   00199C  0E00               	movlw	0
  2093   00199E  6E52               	movwf	keypad_get_value@l_counter^0,c
  2094   0019A0                     l6784:
  2095   0019A0  5052               	movf	keypad_get_value@l_counter^0,w,c
  2096   0019A2  244A               	addwf	keypad_get_value@_keypad_obj^0,w,c
  2097   0019A4  6E40               	movwf	gpio_pin_write_logic@_pin_config^0,c
  2098   0019A6  0E00               	movlw	0
  2099   0019A8  204B               	addwfc	(keypad_get_value@_keypad_obj+1)^0,w,c
  2100   0019AA  6E41               	movwf	(gpio_pin_write_logic@_pin_config+1)^0,c
  2101   0019AC  0E00               	movlw	0
  2102   0019AE  6E42               	movwf	gpio_pin_write_logic@logic^0,c
  2103   0019B0  EC18  F00C         	call	_gpio_pin_write_logic	;wreg free
  2104   0019B4                     
  2105                           ;ECU_Layer/KeyPad/ecu_keypad.c: 61:             }
  2106   0019B4  2A52               	incf	keypad_get_value@l_counter^0,f,c
  2107   0019B6  0E03               	movlw	3
  2108   0019B8  6452               	cpfsgt	keypad_get_value@l_counter^0,c
  2109   0019BA  EFE1  F00C         	goto	u5101
  2110   0019BE  EFE3  F00C         	goto	u5100
  2111   0019C2                     u5101:
  2112   0019C2  EFD0  F00C         	goto	l6784
  2113   0019C6                     u5100:
  2114   0019C6                     
  2115                           ;ECU_Layer/KeyPad/ecu_keypad.c: 62:             gpio_pin_write_logic(&(_keypad_obj->keyp
      +                          ad_row_pins[l_rows_counter]), GPIO_HIGH);
  2116   0019C6  5053               	movf	keypad_get_value@l_rows_counter^0,w,c
  2117   0019C8  244A               	addwf	keypad_get_value@_keypad_obj^0,w,c
  2118   0019CA  6E40               	movwf	gpio_pin_write_logic@_pin_config^0,c
  2119   0019CC  0E00               	movlw	0
  2120   0019CE  204B               	addwfc	(keypad_get_value@_keypad_obj+1)^0,w,c
  2121   0019D0  6E41               	movwf	(gpio_pin_write_logic@_pin_config+1)^0,c
  2122   0019D2  0E01               	movlw	1
  2123   0019D4  6E42               	movwf	gpio_pin_write_logic@logic^0,c
  2124   0019D6  EC18  F00C         	call	_gpio_pin_write_logic	;wreg free
  2125   0019DA                     
  2126                           ;ECU_Layer/KeyPad/ecu_keypad.c: 63:             _delay((unsigned long)((10)*(4000000UL/4
      +                          000.0)));
  2127   0019DA  0E0D               	movlw	13
  2128   0019DC  6E4E               	movwf	??_keypad_get_value^0,c
  2129   0019DE  0EFC               	movlw	252
  2130   0019E0                     u5847:
  2131   0019E0  2EE8               	decfsz	wreg,f,c
  2132   0019E2  D7FE               	bra	u5847
  2133   0019E4  2E4E               	decfsz	??_keypad_get_value^0,f,c
  2134   0019E6  D7FC               	bra	u5847
  2135   0019E8                     
  2136                           ;ECU_Layer/KeyPad/ecu_keypad.c: 66:             for(l_columns_counter=0; l_columns_count
      +                          er<3; l_columns_counter++){
  2137   0019E8  0E00               	movlw	0
  2138   0019EA  6E54               	movwf	keypad_get_value@l_columns_counter^0,c
  2139   0019EC                     l6800:
  2140                           
  2141                           ;ECU_Layer/KeyPad/ecu_keypad.c: 67:                 ret = gpio_pin_read_logic(&(_keypad_
      +                          obj->keypad_columns_pins[l_columns_counter]), &column_logic);
  2142   0019EC  5054               	movf	keypad_get_value@l_columns_counter^0,w,c
  2143   0019EE  244A               	addwf	keypad_get_value@_keypad_obj^0,w,c
  2144   0019F0  6E4E               	movwf	??_keypad_get_value^0,c
  2145   0019F2  0E00               	movlw	0
  2146   0019F4  204B               	addwfc	(keypad_get_value@_keypad_obj+1)^0,w,c
  2147   0019F6  6E4F               	movwf	(??_keypad_get_value+1)^0,c
  2148   0019F8  0E04               	movlw	4
  2149   0019FA  244E               	addwf	??_keypad_get_value^0,w,c
  2150   0019FC  6E40               	movwf	gpio_pin_read_logic@_pin_config^0,c
  2151   0019FE  0E00               	movlw	0
  2152   001A00  204F               	addwfc	(??_keypad_get_value+1)^0,w,c
  2153   001A02  6E41               	movwf	(gpio_pin_read_logic@_pin_config+1)^0,c
  2154   001A04  0E50               	movlw	low keypad_get_value@column_logic
  2155   001A06  6E42               	movwf	gpio_pin_read_logic@logic^0,c
  2156   001A08  0E00               	movlw	high keypad_get_value@column_logic
  2157   001A0A  6E43               	movwf	(gpio_pin_read_logic@logic+1)^0,c
  2158   001A0C  EC41  F00D         	call	_gpio_pin_read_logic	;wreg free
  2159   001A10  6E51               	movwf	keypad_get_value@ret^0,c
  2160   001A12                     
  2161                           ;ECU_Layer/KeyPad/ecu_keypad.c: 68:                 if(GPIO_HIGH == column_logic){
  2162   001A12  0450               	decf	keypad_get_value@column_logic^0,w,c
  2163   001A14  A4D8               	btfss	status,2,c
  2164   001A16  EF0F  F00D         	goto	u5111
  2165   001A1A  EF11  F00D         	goto	u5110
  2166   001A1E                     u5111:
  2167   001A1E  EF2C  F00D         	goto	l6810
  2168   001A22                     u5110:
  2169   001A22                     
  2170                           ;ECU_Layer/KeyPad/ecu_keypad.c: 69:                     *value = btn_values[l_rows_count
      +                          er][l_columns_counter];
  2171   001A22  5053               	movf	keypad_get_value@l_rows_counter^0,w,c
  2172   001A24  0D03               	mullw	3
  2173   001A26  0E01               	movlw	low _btn_values
  2174   001A28  24F3               	addwf	243,w,c
  2175   001A2A  6E4E               	movwf	??_keypad_get_value^0,c
  2176   001A2C  0E10               	movlw	high _btn_values
  2177   001A2E  20F4               	addwfc	prodh,w,c
  2178   001A30  6E4F               	movwf	(??_keypad_get_value+1)^0,c
  2179   001A32  5054               	movf	keypad_get_value@l_columns_counter^0,w,c
  2180   001A34  264E               	addwf	??_keypad_get_value^0,f,c
  2181   001A36  0E00               	movlw	0
  2182   001A38  224F               	addwfc	(??_keypad_get_value+1)^0,f,c
  2183   001A3A  C04E  FFF6         	movff	??_keypad_get_value,tblptrl
  2184   001A3E  C04F  FFF7         	movff	??_keypad_get_value+1,tblptrh
  2185   001A42                     	if	1	;Program memory is < 0x10000, tblptru is always zero
  2186   001A42  6AF8               	clrf	tblptru,c
  2187   001A44                     	endif
  2188   001A44                     	if	0	;tblptru may be non-zero
  2189   001A44                     	endif
  2190   001A44  C04C  FFD9         	movff	keypad_get_value@value,fsr2l
  2191   001A48  C04D  FFDA         	movff	keypad_get_value@value+1,fsr2h
  2192   001A4C  0008               	tblrd		*
  2193   001A4E  CFF5 FFDF          	movff	tablat,indf2
  2194   001A52                     l6806:
  2195                           
  2196                           ;ECU_Layer/KeyPad/ecu_keypad.c: 70:                     return ret;
  2197   001A52  5051               	movf	keypad_get_value@ret^0,w,c
  2198   001A54  EF40  F00D         	goto	l267
  2199   001A58                     l6810:
  2200                           
  2201                           ;ECU_Layer/KeyPad/ecu_keypad.c: 72:             }
  2202   001A58  2A54               	incf	keypad_get_value@l_columns_counter^0,f,c
  2203   001A5A  0E02               	movlw	2
  2204   001A5C  6454               	cpfsgt	keypad_get_value@l_columns_counter^0,c
  2205   001A5E  EF33  F00D         	goto	u5121
  2206   001A62  EF35  F00D         	goto	u5120
  2207   001A66                     u5121:
  2208   001A66  EFF6  F00C         	goto	l6800
  2209   001A6A                     u5120:
  2210   001A6A                     
  2211                           ;ECU_Layer/KeyPad/ecu_keypad.c: 75:         }
  2212   001A6A  2A53               	incf	keypad_get_value@l_rows_counter^0,f,c
  2213   001A6C  0E03               	movlw	3
  2214   001A6E  6453               	cpfsgt	keypad_get_value@l_rows_counter^0,c
  2215   001A70  EF3C  F00D         	goto	u5131
  2216   001A74  EF3E  F00D         	goto	u5130
  2217   001A78                     u5131:
  2218   001A78  EFCE  F00C         	goto	l6778
  2219   001A7C                     u5130:
  2220   001A7C  EFCC  F00C         	goto	l6772
  2221   001A80                     l267:
  2222   001A80  0012               	return		;funcret
  2223   001A82                     __end_of_keypad_get_value:
  2224                           	callstack 0
  2225                           
  2226 ;; *************** function _gpio_pin_read_logic *****************
  2227 ;; Defined at:
  2228 ;;		line 104 in file "MCAL_Layer/GPIO/hal_gpio.c"
  2229 ;; Parameters:    Size  Location     Type
  2230 ;;  _pin_config     2    1[COMRAM] PTR const struct .
  2231 ;;		 -> keypad1.keypad_columns_pins(3), keypad1(7), 
  2232 ;;  logic           2    3[COMRAM] PTR enum E2936
  2233 ;;		 -> Ultrasonic_Calculate_Distance@EchoPinLogic(1), keypad_get_value@column_logic(1), button_read_state@Pin_Logic_Sta
      +tus(1), 
  2234 ;; Auto vars:     Size  Location     Type
  2235 ;;  ret             1   10[COMRAM] unsigned char 
  2236 ;; Return value:  Size  Location     Type
  2237 ;;                  1    wreg      unsigned char 
  2238 ;; Registers used:
  2239 ;;		wreg, fsr2l, fsr2h, status,2, status,0, prodl, prodh
  2240 ;; Tracked objects:
  2241 ;;		On entry : 0/0
  2242 ;;		On exit  : 0/0
  2243 ;;		Unchanged: 0/0
  2244 ;; Data sizes:     COMRAM   BANK0   BANK1   BANK2   BANK3   BANK4   BANK5   BANK6   BANK7   BANK8   BANK9  BANK10  BANK1
      +1  BANK12  BANK13  BANK14  BANK15
  2245 ;;      Params:         4       0       0       0       0       0       0       0       0       0       0       0       
      +0       0       0       0       0
  2246 ;;      Locals:         1       0       0       0       0       0       0       0       0       0       0       0       
      +0       0       0       0       0
  2247 ;;      Temps:          5       0       0       0       0       0       0       0       0       0       0       0       
      +0       0       0       0       0
  2248 ;;      Totals:        10       0       0       0       0       0       0       0       0       0       0       0       
      +0       0       0       0       0
  2249 ;;Total ram usage:       10 bytes
  2250 ;; Hardware stack levels used: 1
  2251 ;; Hardware stack levels required when called: 2
  2252 ;; This function calls:
  2253 ;;		Nothing
  2254 ;; This function is called by:
  2255 ;;		_keypad_get_value
  2256 ;;		_button_read_state
  2257 ;;		_Ultrasonic_Calculate_Distance
  2258 ;; This function uses a non-reentrant model
  2259 ;;
  2260                           
  2261                           	psect	text11
  2262   001A82                     __ptext11:
  2263                           	callstack 0
  2264   001A82                     _gpio_pin_read_logic:
  2265                           	callstack 25
  2266   001A82                     
  2267                           ;MCAL_Layer/GPIO/hal_gpio.c: 105:     Std_ReturnType ret = (Std_ReturnType)0x01;
  2268   001A82  0E01               	movlw	1
  2269   001A84  6E49               	movwf	gpio_pin_read_logic@ret^0,c
  2270   001A86                     
  2271                           ;MCAL_Layer/GPIO/hal_gpio.c: 106:     if(((void*)0) == _pin_config || ((void*)0) == logi
      +                          c || _pin_config->pin > 8 -1){
  2272   001A86  5040               	movf	gpio_pin_read_logic@_pin_config^0,w,c
  2273   001A88  1041               	iorwf	(gpio_pin_read_logic@_pin_config+1)^0,w,c
  2274   001A8A  B4D8               	btfsc	status,2,c
  2275   001A8C  EF4A  F00D         	goto	u4971
  2276   001A90  EF4C  F00D         	goto	u4970
  2277   001A94                     u4971:
  2278   001A94  EF66  F00D         	goto	l6670
  2279   001A98                     u4970:
  2280   001A98  5042               	movf	gpio_pin_read_logic@logic^0,w,c
  2281   001A9A  1043               	iorwf	(gpio_pin_read_logic@logic+1)^0,w,c
  2282   001A9C  B4D8               	btfsc	status,2,c
  2283   001A9E  EF53  F00D         	goto	u4981
  2284   001AA2  EF55  F00D         	goto	u4980
  2285   001AA6                     u4981:
  2286   001AA6  EF66  F00D         	goto	l6670
  2287   001AAA                     u4980:
  2288   001AAA  C040  FFD9         	movff	gpio_pin_read_logic@_pin_config,fsr2l
  2289   001AAE  C041  FFDA         	movff	gpio_pin_read_logic@_pin_config+1,fsr2h
  2290   001AB2  30DF               	rrcf	223,w,c
  2291   001AB4  32E8               	rrcf	wreg,f,c
  2292   001AB6  32E8               	rrcf	wreg,f,c
  2293   001AB8  0B07               	andlw	7
  2294   001ABA  6E44               	movwf	??_gpio_pin_read_logic^0,c
  2295   001ABC  0E07               	movlw	7
  2296   001ABE  6444               	cpfsgt	??_gpio_pin_read_logic^0,c
  2297   001AC0  EF64  F00D         	goto	u4991
  2298   001AC4  EF66  F00D         	goto	u4990
  2299   001AC8                     u4991:
  2300   001AC8  EF6A  F00D         	goto	l6672
  2301   001ACC                     u4990:
  2302   001ACC                     l6670:
  2303                           
  2304                           ;MCAL_Layer/GPIO/hal_gpio.c: 107:         ret = (Std_ReturnType)0x00;
  2305   001ACC  0E00               	movlw	0
  2306   001ACE  6E49               	movwf	gpio_pin_read_logic@ret^0,c
  2307                           
  2308                           ;MCAL_Layer/GPIO/hal_gpio.c: 108:     }
  2309   001AD0  EF9B  F00D         	goto	l6674
  2310   001AD4                     l6672:
  2311                           
  2312                           ;MCAL_Layer/GPIO/hal_gpio.c: 110:         *logic = ((*port_registers[_pin_config->port] 
      +                          >> _pin_config->pin) & (uint8)1);
  2313   001AD4  C040  FFD9         	movff	gpio_pin_read_logic@_pin_config,fsr2l
  2314   001AD8  C041  FFDA         	movff	gpio_pin_read_logic@_pin_config+1,fsr2h
  2315   001ADC  30DF               	rrcf	223,w,c
  2316   001ADE  32E8               	rrcf	wreg,f,c
  2317   001AE0  32E8               	rrcf	wreg,f,c
  2318   001AE2  0B07               	andlw	7
  2319   001AE4  6E44               	movwf	??_gpio_pin_read_logic^0,c
  2320   001AE6  C040  FFD9         	movff	gpio_pin_read_logic@_pin_config,fsr2l
  2321   001AEA  C041  FFDA         	movff	gpio_pin_read_logic@_pin_config+1,fsr2h
  2322   001AEE  50DF               	movf	223,w,c
  2323   001AF0  0B07               	andlw	7
  2324   001AF2  6E45               	movwf	(??_gpio_pin_read_logic+1)^0,c
  2325   001AF4  5045               	movf	(??_gpio_pin_read_logic+1)^0,w,c
  2326   001AF6  0D02               	mullw	2
  2327   001AF8  0E80               	movlw	low _port_registers
  2328   001AFA  24F3               	addwf	243,w,c
  2329   001AFC  6ED9               	movwf	fsr2l,c
  2330   001AFE  0E00               	movlw	high _port_registers
  2331   001B00  20F4               	addwfc	prodh,w,c
  2332   001B02  6EDA               	movwf	fsr2h,c
  2333   001B04  CFDE F046          	movff	postinc2,??_gpio_pin_read_logic+2
  2334   001B08  CFDD F047          	movff	postdec2,??_gpio_pin_read_logic+3
  2335   001B0C  C046  FFD9         	movff	??_gpio_pin_read_logic+2,fsr2l
  2336   001B10  C047  FFDA         	movff	??_gpio_pin_read_logic+3,fsr2h
  2337   001B14  50DF               	movf	indf2,w,c
  2338   001B16  6E48               	movwf	(??_gpio_pin_read_logic+4)^0,c
  2339   001B18  2A44               	incf	??_gpio_pin_read_logic^0,f,c
  2340   001B1A  EF91  F00D         	goto	u5004
  2341   001B1E                     u5005:
  2342   001B1E  90D8               	bcf	status,0,c
  2343   001B20  3248               	rrcf	(??_gpio_pin_read_logic+4)^0,f,c
  2344   001B22                     u5004:
  2345   001B22  2E44               	decfsz	??_gpio_pin_read_logic^0,f,c
  2346   001B24  EF8F  F00D         	goto	u5005
  2347   001B28  5048               	movf	(??_gpio_pin_read_logic+4)^0,w,c
  2348   001B2A  0B01               	andlw	1
  2349   001B2C  C042  FFD9         	movff	gpio_pin_read_logic@logic,fsr2l
  2350   001B30  C043  FFDA         	movff	gpio_pin_read_logic@logic+1,fsr2h
  2351   001B34  6EDF               	movwf	indf2,c
  2352   001B36                     l6674:
  2353                           
  2354                           ;MCAL_Layer/GPIO/hal_gpio.c: 112:     return ret;
  2355   001B36  5049               	movf	gpio_pin_read_logic@ret^0,w,c
  2356   001B38  0012               	return		;funcret
  2357   001B3A                     __end_of_gpio_pin_read_logic:
  2358                           	callstack 0
  2359                           
  2360 ;; *************** function _ecu_layer_intialize *****************
  2361 ;; Defined at:
  2362 ;;		line 71 in file "ECU_Layer/ecu_layer_init.c"
  2363 ;; Parameters:    Size  Location     Type
  2364 ;;		None
  2365 ;; Auto vars:     Size  Location     Type
  2366 ;;  ret             1    0        unsigned char 
  2367 ;; Return value:  Size  Location     Type
  2368 ;;                  1    wreg      void 
  2369 ;; Registers used:
  2370 ;;		wreg, fsr2l, fsr2h, status,2, status,0, prodl, prodh, cstack
  2371 ;; Tracked objects:
  2372 ;;		On entry : 0/0
  2373 ;;		On exit  : 0/0
  2374 ;;		Unchanged: 0/0
  2375 ;; Data sizes:     COMRAM   BANK0   BANK1   BANK2   BANK3   BANK4   BANK5   BANK6   BANK7   BANK8   BANK9  BANK10  BANK1
      +1  BANK12  BANK13  BANK14  BANK15
  2376 ;;      Params:         0       0       0       0       0       0       0       0       0       0       0       0       
      +0       0       0       0       0
  2377 ;;      Locals:         0       0       0       0       0       0       0       0       0       0       0       0       
      +0       0       0       0       0
  2378 ;;      Temps:          0       0       0       0       0       0       0       0       0       0       0       0       
      +0       0       0       0       0
  2379 ;;      Totals:         0       0       0       0       0       0       0       0       0       0       0       0       
      +0       0       0       0       0
  2380 ;;Total ram usage:        0 bytes
  2381 ;; Hardware stack levels used: 1
  2382 ;; Hardware stack levels required when called: 6
  2383 ;; This function calls:
  2384 ;;		_keypad_initialize
  2385 ;;		_lcd_4bit_intialize
  2386 ;; This function is called by:
  2387 ;;		_main
  2388 ;; This function uses a non-reentrant model
  2389 ;;
  2390                           
  2391                           	psect	text12
  2392   00212A                     __ptext12:
  2393                           	callstack 0
  2394   00212A                     _ecu_layer_intialize:
  2395                           	callstack 24
  2396   00212A  0E6E               	movlw	low _lcd1
  2397   00212C  6E52               	movwf	lcd_4bit_intialize@lcd^0,c
  2398   00212E  0E00               	movlw	high _lcd1
  2399   002130  6E53               	movwf	(lcd_4bit_intialize@lcd+1)^0,c
  2400   002132  EC82  F00B         	call	_lcd_4bit_intialize	;wreg free
  2401   002136  0EA2               	movlw	low _keypad1
  2402   002138  6E4E               	movwf	keypad_initialize@_keypad_obj^0,c
  2403   00213A  0E00               	movlw	high _keypad1
  2404   00213C  6E4F               	movwf	(keypad_initialize@_keypad_obj+1)^0,c
  2405   00213E  EC91  F00E         	call	_keypad_initialize	;wreg free
  2406   002142  0012               	return		;funcret
  2407   002144                     __end_of_ecu_layer_intialize:
  2408                           	callstack 0
  2409                           
  2410 ;; *************** function _lcd_4bit_intialize *****************
  2411 ;; Defined at:
  2412 ;;		line 23 in file "ECU_Layer/Chr_LCD/ecu_chr_lcd.c"
  2413 ;; Parameters:    Size  Location     Type
  2414 ;;  lcd             2   19[COMRAM] PTR const struct .
  2415 ;;		 -> lcd1(6), 
  2416 ;; Auto vars:     Size  Location     Type
  2417 ;;  ret             1   24[COMRAM] unsigned char 
  2418 ;;  l_data_pins_    1   23[COMRAM] unsigned char 
  2419 ;; Return value:  Size  Location     Type
  2420 ;;                  1    wreg      unsigned char 
  2421 ;; Registers used:
  2422 ;;		wreg, fsr2l, fsr2h, status,2, status,0, prodl, prodh, cstack
  2423 ;; Tracked objects:
  2424 ;;		On entry : 0/0
  2425 ;;		On exit  : 0/0
  2426 ;;		Unchanged: 0/0
  2427 ;; Data sizes:     COMRAM   BANK0   BANK1   BANK2   BANK3   BANK4   BANK5   BANK6   BANK7   BANK8   BANK9  BANK10  BANK1
      +1  BANK12  BANK13  BANK14  BANK15
  2428 ;;      Params:         2       0       0       0       0       0       0       0       0       0       0       0       
      +0       0       0       0       0
  2429 ;;      Locals:         2       0       0       0       0       0       0       0       0       0       0       0       
      +0       0       0       0       0
  2430 ;;      Temps:          2       0       0       0       0       0       0       0       0       0       0       0       
      +0       0       0       0       0
  2431 ;;      Totals:         6       0       0       0       0       0       0       0       0       0       0       0       
      +0       0       0       0       0
  2432 ;;Total ram usage:        6 bytes
  2433 ;; Hardware stack levels used: 1
  2434 ;; Hardware stack levels required when called: 5
  2435 ;; This function calls:
  2436 ;;		_gpio_pin_intialize
  2437 ;;		_lcd_4bit_send_command
  2438 ;; This function is called by:
  2439 ;;		_ecu_layer_intialize
  2440 ;; This function uses a non-reentrant model
  2441 ;;
  2442                           
  2443                           	psect	text13
  2444   001704                     __ptext13:
  2445                           	callstack 0
  2446   001704                     _lcd_4bit_intialize:
  2447                           	callstack 24
  2448   001704                     
  2449                           ;ECU_Layer/Chr_LCD/ecu_chr_lcd.c: 25:     uint8 l_data_pins_counter = 0;
  2450   001704  0E00               	movlw	0
  2451   001706  6E56               	movwf	lcd_4bit_intialize@l_data_pins_counter^0,c
  2452   001708                     
  2453                           ;ECU_Layer/Chr_LCD/ecu_chr_lcd.c: 26:     if(((void*)0) == lcd){
  2454   001708  5052               	movf	lcd_4bit_intialize@lcd^0,w,c
  2455   00170A  1053               	iorwf	(lcd_4bit_intialize@lcd+1)^0,w,c
  2456   00170C  A4D8               	btfss	status,2,c
  2457   00170E  EF8B  F00B         	goto	u5141
  2458   001712  EF8D  F00B         	goto	u5140
  2459   001716                     u5141:
  2460   001716  EF91  F00B         	goto	l6828
  2461   00171A                     u5140:
  2462   00171A                     
  2463                           ;ECU_Layer/Chr_LCD/ecu_chr_lcd.c: 27:         ret = (Std_ReturnType)0x00;
  2464   00171A  0E00               	movlw	0
  2465   00171C  6E57               	movwf	lcd_4bit_intialize@ret^0,c
  2466                           
  2467                           ;ECU_Layer/Chr_LCD/ecu_chr_lcd.c: 28:     }
  2468   00171E  EF16  F00C         	goto	l6864
  2469   001722                     l6828:
  2470                           
  2471                           ;ECU_Layer/Chr_LCD/ecu_chr_lcd.c: 30:         ret = gpio_pin_intialize(&(lcd->lcd_rs));
  2472   001722  C052  F04A         	movff	lcd_4bit_intialize@lcd,gpio_pin_intialize@_pin_config
  2473   001726  C053  F04B         	movff	lcd_4bit_intialize@lcd+1,gpio_pin_intialize@_pin_config+1
  2474   00172A  EC7F  F00F         	call	_gpio_pin_intialize	;wreg free
  2475   00172E  6E57               	movwf	lcd_4bit_intialize@ret^0,c
  2476                           
  2477                           ;ECU_Layer/Chr_LCD/ecu_chr_lcd.c: 31:         ret = gpio_pin_intialize(&(lcd->lcd_en));
  2478   001730  0E01               	movlw	1
  2479   001732  2452               	addwf	lcd_4bit_intialize@lcd^0,w,c
  2480   001734  6E4A               	movwf	gpio_pin_intialize@_pin_config^0,c
  2481   001736  0E00               	movlw	0
  2482   001738  2053               	addwfc	(lcd_4bit_intialize@lcd+1)^0,w,c
  2483   00173A  6E4B               	movwf	(gpio_pin_intialize@_pin_config+1)^0,c
  2484   00173C  EC7F  F00F         	call	_gpio_pin_intialize	;wreg free
  2485   001740  6E57               	movwf	lcd_4bit_intialize@ret^0,c
  2486   001742                     
  2487                           ;ECU_Layer/Chr_LCD/ecu_chr_lcd.c: 32:         for(l_data_pins_counter=0; l_data_pins_cou
      +                          nter<4; l_data_pins_counter++){
  2488   001742  0E00               	movlw	0
  2489   001744  6E56               	movwf	lcd_4bit_intialize@l_data_pins_counter^0,c
  2490   001746                     l6836:
  2491   001746  5056               	movf	lcd_4bit_intialize@l_data_pins_counter^0,w,c
  2492   001748  2452               	addwf	lcd_4bit_intialize@lcd^0,w,c
  2493   00174A  6E54               	movwf	??_lcd_4bit_intialize^0,c
  2494   00174C  0E00               	movlw	0
  2495   00174E  2053               	addwfc	(lcd_4bit_intialize@lcd+1)^0,w,c
  2496   001750  6E55               	movwf	(??_lcd_4bit_intialize+1)^0,c
  2497   001752  0E02               	movlw	2
  2498   001754  2454               	addwf	??_lcd_4bit_intialize^0,w,c
  2499   001756  6E4A               	movwf	gpio_pin_intialize@_pin_config^0,c
  2500   001758  0E00               	movlw	0
  2501   00175A  2055               	addwfc	(??_lcd_4bit_intialize+1)^0,w,c
  2502   00175C  6E4B               	movwf	(gpio_pin_intialize@_pin_config+1)^0,c
  2503   00175E  EC7F  F00F         	call	_gpio_pin_intialize	;wreg free
  2504   001762                     
  2505                           ;ECU_Layer/Chr_LCD/ecu_chr_lcd.c: 34:         }
  2506   001762  2A56               	incf	lcd_4bit_intialize@l_data_pins_counter^0,f,c
  2507   001764  0E03               	movlw	3
  2508   001766  6456               	cpfsgt	lcd_4bit_intialize@l_data_pins_counter^0,c
  2509   001768  EFB8  F00B         	goto	u5151
  2510   00176C  EFBA  F00B         	goto	u5150
  2511   001770                     u5151:
  2512   001770  EFA3  F00B         	goto	l6836
  2513   001774                     u5150:
  2514   001774                     
  2515                           ;ECU_Layer/Chr_LCD/ecu_chr_lcd.c: 35:         _delay((unsigned long)((20)*(4000000UL/400
      +                          0.0)));
  2516   001774  0E1A               	movlw	26
  2517   001776  6E54               	movwf	??_lcd_4bit_intialize^0,c
  2518   001778  0EF8               	movlw	248
  2519   00177A                     u5857:
  2520   00177A  2EE8               	decfsz	wreg,f,c
  2521   00177C  D7FE               	bra	u5857
  2522   00177E  2E54               	decfsz	??_lcd_4bit_intialize^0,f,c
  2523   001780  D7FC               	bra	u5857
  2524   001782  D000               	nop2	
  2525   001784  C052  F04E         	movff	lcd_4bit_intialize@lcd,lcd_4bit_send_command@lcd
  2526   001788  C053  F04F         	movff	lcd_4bit_intialize@lcd+1,lcd_4bit_send_command@lcd+1
  2527   00178C  0E38               	movlw	56
  2528   00178E  6E50               	movwf	lcd_4bit_send_command@command^0,c
  2529   001790  EC46  F00F         	call	_lcd_4bit_send_command	;wreg free
  2530   001794                     
  2531                           ;ECU_Layer/Chr_LCD/ecu_chr_lcd.c: 37:         _delay((unsigned long)((5)*(4000000UL/4000
      +                          .0)));
  2532   001794  0E07               	movlw	7
  2533   001796  6E54               	movwf	??_lcd_4bit_intialize^0,c
  2534   001798  0E7D               	movlw	125
  2535   00179A                     u5867:
  2536   00179A  2EE8               	decfsz	wreg,f,c
  2537   00179C  D7FE               	bra	u5867
  2538   00179E  2E54               	decfsz	??_lcd_4bit_intialize^0,f,c
  2539   0017A0  D7FC               	bra	u5867
  2540   0017A2  F000               	nop	
  2541   0017A4  C052  F04E         	movff	lcd_4bit_intialize@lcd,lcd_4bit_send_command@lcd
  2542   0017A8  C053  F04F         	movff	lcd_4bit_intialize@lcd+1,lcd_4bit_send_command@lcd+1
  2543   0017AC  0E38               	movlw	56
  2544   0017AE  6E50               	movwf	lcd_4bit_send_command@command^0,c
  2545   0017B0  EC46  F00F         	call	_lcd_4bit_send_command	;wreg free
  2546   0017B4                     
  2547                           ;ECU_Layer/Chr_LCD/ecu_chr_lcd.c: 39:         _delay((unsigned long)((150)*(4000000UL/40
      +                          00000.0)));
  2548   0017B4  0E32               	movlw	50
  2549   0017B6                     u5877:
  2550   0017B6  2EE8               	decfsz	wreg,f,c
  2551   0017B8  D7FE               	bra	u5877
  2552   0017BA  C052  F04E         	movff	lcd_4bit_intialize@lcd,lcd_4bit_send_command@lcd
  2553   0017BE  C053  F04F         	movff	lcd_4bit_intialize@lcd+1,lcd_4bit_send_command@lcd+1
  2554   0017C2  0E38               	movlw	56
  2555   0017C4  6E50               	movwf	lcd_4bit_send_command@command^0,c
  2556   0017C6  EC46  F00F         	call	_lcd_4bit_send_command	;wreg free
  2557   0017CA  C052  F04E         	movff	lcd_4bit_intialize@lcd,lcd_4bit_send_command@lcd
  2558   0017CE  C053  F04F         	movff	lcd_4bit_intialize@lcd+1,lcd_4bit_send_command@lcd+1
  2559   0017D2  0E01               	movlw	1
  2560   0017D4  6E50               	movwf	lcd_4bit_send_command@command^0,c
  2561   0017D6  EC46  F00F         	call	_lcd_4bit_send_command	;wreg free
  2562   0017DA  C052  F04E         	movff	lcd_4bit_intialize@lcd,lcd_4bit_send_command@lcd
  2563   0017DE  C053  F04F         	movff	lcd_4bit_intialize@lcd+1,lcd_4bit_send_command@lcd+1
  2564   0017E2  0E02               	movlw	2
  2565   0017E4  6E50               	movwf	lcd_4bit_send_command@command^0,c
  2566   0017E6  EC46  F00F         	call	_lcd_4bit_send_command	;wreg free
  2567   0017EA  C052  F04E         	movff	lcd_4bit_intialize@lcd,lcd_4bit_send_command@lcd
  2568   0017EE  C053  F04F         	movff	lcd_4bit_intialize@lcd+1,lcd_4bit_send_command@lcd+1
  2569   0017F2  0E06               	movlw	6
  2570   0017F4  6E50               	movwf	lcd_4bit_send_command@command^0,c
  2571   0017F6  EC46  F00F         	call	_lcd_4bit_send_command	;wreg free
  2572   0017FA  C052  F04E         	movff	lcd_4bit_intialize@lcd,lcd_4bit_send_command@lcd
  2573   0017FE  C053  F04F         	movff	lcd_4bit_intialize@lcd+1,lcd_4bit_send_command@lcd+1
  2574   001802  0E0C               	movlw	12
  2575   001804  6E50               	movwf	lcd_4bit_send_command@command^0,c
  2576   001806  EC46  F00F         	call	_lcd_4bit_send_command	;wreg free
  2577   00180A  C052  F04E         	movff	lcd_4bit_intialize@lcd,lcd_4bit_send_command@lcd
  2578   00180E  C053  F04F         	movff	lcd_4bit_intialize@lcd+1,lcd_4bit_send_command@lcd+1
  2579   001812  0E28               	movlw	40
  2580   001814  6E50               	movwf	lcd_4bit_send_command@command^0,c
  2581   001816  EC46  F00F         	call	_lcd_4bit_send_command	;wreg free
  2582   00181A                     
  2583                           ;ECU_Layer/Chr_LCD/ecu_chr_lcd.c: 47:         ret = lcd_4bit_send_command(lcd, 0x80);
  2584   00181A  C052  F04E         	movff	lcd_4bit_intialize@lcd,lcd_4bit_send_command@lcd
  2585   00181E  C053  F04F         	movff	lcd_4bit_intialize@lcd+1,lcd_4bit_send_command@lcd+1
  2586   001822  0E80               	movlw	128
  2587   001824  6E50               	movwf	lcd_4bit_send_command@command^0,c
  2588   001826  EC46  F00F         	call	_lcd_4bit_send_command	;wreg free
  2589   00182A  6E57               	movwf	lcd_4bit_intialize@ret^0,c
  2590   00182C                     l6864:
  2591                           
  2592                           ;ECU_Layer/Chr_LCD/ecu_chr_lcd.c: 49:     return ret;
  2593   00182C  5057               	movf	lcd_4bit_intialize@ret^0,w,c
  2594   00182E  0012               	return		;funcret
  2595   001830                     __end_of_lcd_4bit_intialize:
  2596                           	callstack 0
  2597                           
  2598 ;; *************** function _lcd_4bit_send_command *****************
  2599 ;; Defined at:
  2600 ;;		line 73 in file "ECU_Layer/Chr_LCD/ecu_chr_lcd.c"
  2601 ;; Parameters:    Size  Location     Type
  2602 ;;  lcd             2   15[COMRAM] PTR const struct .
  2603 ;;		 -> lcd1(6), 
  2604 ;;  command         1   17[COMRAM] unsigned char 
  2605 ;; Auto vars:     Size  Location     Type
  2606 ;;  ret             1   18[COMRAM] unsigned char 
  2607 ;; Return value:  Size  Location     Type
  2608 ;;                  1    wreg      unsigned char 
  2609 ;; Registers used:
  2610 ;;		wreg, fsr2l, fsr2h, status,2, status,0, prodl, prodh, cstack
  2611 ;; Tracked objects:
  2612 ;;		On entry : 0/0
  2613 ;;		On exit  : 0/0
  2614 ;;		Unchanged: 0/0
  2615 ;; Data sizes:     COMRAM   BANK0   BANK1   BANK2   BANK3   BANK4   BANK5   BANK6   BANK7   BANK8   BANK9  BANK10  BANK1
      +1  BANK12  BANK13  BANK14  BANK15
  2616 ;;      Params:         3       0       0       0       0       0       0       0       0       0       0       0       
      +0       0       0       0       0
  2617 ;;      Locals:         1       0       0       0       0       0       0       0       0       0       0       0       
      +0       0       0       0       0
  2618 ;;      Temps:          0       0       0       0       0       0       0       0       0       0       0       0       
      +0       0       0       0       0
  2619 ;;      Totals:         4       0       0       0       0       0       0       0       0       0       0       0       
      +0       0       0       0       0
  2620 ;;Total ram usage:        4 bytes
  2621 ;; Hardware stack levels used: 1
  2622 ;; Hardware stack levels required when called: 4
  2623 ;; This function calls:
  2624 ;;		_gpio_pin_write_logic
  2625 ;;		_lcd_4bit_send_enable_signal
  2626 ;;		_lcd_send_4bits
  2627 ;; This function is called by:
  2628 ;;		_lcd_4bit_intialize
  2629 ;;		_lcd_4bit_clear
  2630 ;;		_lcd_4bit_set_cursor
  2631 ;;		_lcd_4bit_send_custom_char
  2632 ;; This function uses a non-reentrant model
  2633 ;;
  2634                           
  2635                           	psect	text14
  2636   001E8C                     __ptext14:
  2637                           	callstack 0
  2638   001E8C                     _lcd_4bit_send_command:
  2639                           	callstack 22
  2640   001E8C                     
  2641                           ;ECU_Layer/Chr_LCD/ecu_chr_lcd.c: 75:     if(((void*)0) == lcd){
  2642   001E8C  504E               	movf	lcd_4bit_send_command@lcd^0,w,c
  2643   001E8E  104F               	iorwf	(lcd_4bit_send_command@lcd+1)^0,w,c
  2644   001E90  A4D8               	btfss	status,2,c
  2645   001E92  EF4D  F00F         	goto	u4961
  2646   001E96  EF4F  F00F         	goto	u4960
  2647   001E9A                     u4961:
  2648   001E9A  EF53  F00F         	goto	l6656
  2649   001E9E                     u4960:
  2650   001E9E                     
  2651                           ;ECU_Layer/Chr_LCD/ecu_chr_lcd.c: 76:         ret = (Std_ReturnType)0x00;
  2652   001E9E  0E00               	movlw	0
  2653   001EA0  6E51               	movwf	lcd_4bit_send_command@ret^0,c
  2654                           
  2655                           ;ECU_Layer/Chr_LCD/ecu_chr_lcd.c: 77:     }
  2656   001EA2  EF7D  F00F         	goto	l6658
  2657   001EA6                     l6656:
  2658                           
  2659                           ;ECU_Layer/Chr_LCD/ecu_chr_lcd.c: 81:         ret = gpio_pin_write_logic(&(lcd->lcd_rs),
      +                           GPIO_LOW);
  2660   001EA6  C04E  F040         	movff	lcd_4bit_send_command@lcd,gpio_pin_write_logic@_pin_config
  2661   001EAA  C04F  F041         	movff	lcd_4bit_send_command@lcd+1,gpio_pin_write_logic@_pin_config+1
  2662   001EAE  0E00               	movlw	0
  2663   001EB0  6E42               	movwf	gpio_pin_write_logic@logic^0,c
  2664   001EB2  EC18  F00C         	call	_gpio_pin_write_logic	;wreg free
  2665   001EB6  6E51               	movwf	lcd_4bit_send_command@ret^0,c
  2666                           
  2667                           ;ECU_Layer/Chr_LCD/ecu_chr_lcd.c: 83:         ret = lcd_send_4bits(lcd, command >> 4);
  2668   001EB8  C04E  F04A         	movff	lcd_4bit_send_command@lcd,lcd_send_4bits@lcd
  2669   001EBC  C04F  F04B         	movff	lcd_4bit_send_command@lcd+1,lcd_send_4bits@lcd+1
  2670   001EC0  3850               	swapf	lcd_4bit_send_command@command^0,w,c
  2671   001EC2  0B0F               	andlw	15
  2672   001EC4  6E4C               	movwf	lcd_send_4bits@_data_command^0,c
  2673   001EC6  ECB5  F00F         	call	_lcd_send_4bits	;wreg free
  2674   001ECA  6E51               	movwf	lcd_4bit_send_command@ret^0,c
  2675                           
  2676                           ;ECU_Layer/Chr_LCD/ecu_chr_lcd.c: 85:         ret = lcd_4bit_send_enable_signal(lcd);
  2677   001ECC  C04E  F04A         	movff	lcd_4bit_send_command@lcd,lcd_4bit_send_enable_signal@lcd
  2678   001ED0  C04F  F04B         	movff	lcd_4bit_send_command@lcd+1,lcd_4bit_send_enable_signal@lcd+1
  2679   001ED4  EC3D  F010         	call	_lcd_4bit_send_enable_signal	;wreg free
  2680   001ED8  6E51               	movwf	lcd_4bit_send_command@ret^0,c
  2681                           
  2682                           ;ECU_Layer/Chr_LCD/ecu_chr_lcd.c: 87:         ret = lcd_send_4bits(lcd, command);
  2683   001EDA  C04E  F04A         	movff	lcd_4bit_send_command@lcd,lcd_send_4bits@lcd
  2684   001EDE  C04F  F04B         	movff	lcd_4bit_send_command@lcd+1,lcd_send_4bits@lcd+1
  2685   001EE2  C050  F04C         	movff	lcd_4bit_send_command@command,lcd_send_4bits@_data_command
  2686   001EE6  ECB5  F00F         	call	_lcd_send_4bits	;wreg free
  2687   001EEA  6E51               	movwf	lcd_4bit_send_command@ret^0,c
  2688                           
  2689                           ;ECU_Layer/Chr_LCD/ecu_chr_lcd.c: 89:         ret = lcd_4bit_send_enable_signal(lcd);
  2690   001EEC  C04E  F04A         	movff	lcd_4bit_send_command@lcd,lcd_4bit_send_enable_signal@lcd
  2691   001EF0  C04F  F04B         	movff	lcd_4bit_send_command@lcd+1,lcd_4bit_send_enable_signal@lcd+1
  2692   001EF4  EC3D  F010         	call	_lcd_4bit_send_enable_signal	;wreg free
  2693   001EF8  6E51               	movwf	lcd_4bit_send_command@ret^0,c
  2694   001EFA                     l6658:
  2695                           
  2696                           ;ECU_Layer/Chr_LCD/ecu_chr_lcd.c: 91:     return ret;
  2697   001EFA  5051               	movf	lcd_4bit_send_command@ret^0,w,c
  2698   001EFC  0012               	return		;funcret
  2699   001EFE                     __end_of_lcd_4bit_send_command:
  2700                           	callstack 0
  2701                           
  2702 ;; *************** function _lcd_send_4bits *****************
  2703 ;; Defined at:
  2704 ;;		line 478 in file "ECU_Layer/Chr_LCD/ecu_chr_lcd.c"
  2705 ;; Parameters:    Size  Location     Type
  2706 ;;  lcd             2   11[COMRAM] PTR const struct .
  2707 ;;		 -> lcd1(6), 
  2708 ;;  _data_comman    1   13[COMRAM] unsigned char 
  2709 ;; Auto vars:     Size  Location     Type
  2710 ;;  ret             1   14[COMRAM] unsigned char 
  2711 ;; Return value:  Size  Location     Type
  2712 ;;                  1    wreg      unsigned char 
  2713 ;; Registers used:
  2714 ;;		wreg, fsr2l, fsr2h, status,2, status,0, prodl, prodh, cstack
  2715 ;; Tracked objects:
  2716 ;;		On entry : 0/0
  2717 ;;		On exit  : 0/0
  2718 ;;		Unchanged: 0/0
  2719 ;; Data sizes:     COMRAM   BANK0   BANK1   BANK2   BANK3   BANK4   BANK5   BANK6   BANK7   BANK8   BANK9  BANK10  BANK1
      +1  BANK12  BANK13  BANK14  BANK15
  2720 ;;      Params:         3       0       0       0       0       0       0       0       0       0       0       0       
      +0       0       0       0       0
  2721 ;;      Locals:         1       0       0       0       0       0       0       0       0       0       0       0       
      +0       0       0       0       0
  2722 ;;      Temps:          0       0       0       0       0       0       0       0       0       0       0       0       
      +0       0       0       0       0
  2723 ;;      Totals:         4       0       0       0       0       0       0       0       0       0       0       0       
      +0       0       0       0       0
  2724 ;;Total ram usage:        4 bytes
  2725 ;; Hardware stack levels used: 1
  2726 ;; Hardware stack levels required when called: 3
  2727 ;; This function calls:
  2728 ;;		_gpio_pin_write_logic
  2729 ;; This function is called by:
  2730 ;;		_lcd_4bit_send_command
  2731 ;;		_lcd_4bit_send_char_data
  2732 ;; This function uses a non-reentrant model
  2733 ;;
  2734                           
  2735                           	psect	text15
  2736   001F6A                     __ptext15:
  2737                           	callstack 0
  2738   001F6A                     _lcd_send_4bits:
  2739                           	callstack 22
  2740   001F6A  0E02               	movlw	2
  2741   001F6C  244A               	addwf	lcd_send_4bits@lcd^0,w,c
  2742   001F6E  6E40               	movwf	gpio_pin_write_logic@_pin_config^0,c
  2743   001F70  0E00               	movlw	0
  2744   001F72  204B               	addwfc	(lcd_send_4bits@lcd+1)^0,w,c
  2745   001F74  6E41               	movwf	(gpio_pin_write_logic@_pin_config+1)^0,c
  2746   001F76  504C               	movf	lcd_send_4bits@_data_command^0,w,c
  2747   001F78  0B01               	andlw	1
  2748   001F7A  6E42               	movwf	gpio_pin_write_logic@logic^0,c
  2749   001F7C  EC18  F00C         	call	_gpio_pin_write_logic	;wreg free
  2750   001F80  0E03               	movlw	3
  2751   001F82  244A               	addwf	lcd_send_4bits@lcd^0,w,c
  2752   001F84  6E40               	movwf	gpio_pin_write_logic@_pin_config^0,c
  2753   001F86  0E00               	movlw	0
  2754   001F88  204B               	addwfc	(lcd_send_4bits@lcd+1)^0,w,c
  2755   001F8A  6E41               	movwf	(gpio_pin_write_logic@_pin_config+1)^0,c
  2756   001F8C  90D8               	bcf	status,0,c
  2757   001F8E  304C               	rrcf	lcd_send_4bits@_data_command^0,w,c
  2758   001F90  0B01               	andlw	1
  2759   001F92  6E42               	movwf	gpio_pin_write_logic@logic^0,c
  2760   001F94  EC18  F00C         	call	_gpio_pin_write_logic	;wreg free
  2761   001F98  0E04               	movlw	4
  2762   001F9A  244A               	addwf	lcd_send_4bits@lcd^0,w,c
  2763   001F9C  6E40               	movwf	gpio_pin_write_logic@_pin_config^0,c
  2764   001F9E  0E00               	movlw	0
  2765   001FA0  204B               	addwfc	(lcd_send_4bits@lcd+1)^0,w,c
  2766   001FA2  6E41               	movwf	(gpio_pin_write_logic@_pin_config+1)^0,c
  2767   001FA4  404C               	rrncf	lcd_send_4bits@_data_command^0,w,c
  2768   001FA6  42E8               	rrncf	wreg,f,c
  2769   001FA8  0B3F               	andlw	63
  2770   001FAA  0B01               	andlw	1
  2771   001FAC  6E42               	movwf	gpio_pin_write_logic@logic^0,c
  2772   001FAE  EC18  F00C         	call	_gpio_pin_write_logic	;wreg free
  2773   001FB2                     
  2774                           ;ECU_Layer/Chr_LCD/ecu_chr_lcd.c: 483:     ret = gpio_pin_write_logic(&(lcd->lcd_data[3]
      +                          ), (_data_command >> 3) & (uint8)0x01);
  2775   001FB2  0E05               	movlw	5
  2776   001FB4  244A               	addwf	lcd_send_4bits@lcd^0,w,c
  2777   001FB6  6E40               	movwf	gpio_pin_write_logic@_pin_config^0,c
  2778   001FB8  0E00               	movlw	0
  2779   001FBA  204B               	addwfc	(lcd_send_4bits@lcd+1)^0,w,c
  2780   001FBC  6E41               	movwf	(gpio_pin_write_logic@_pin_config+1)^0,c
  2781   001FBE  384C               	swapf	lcd_send_4bits@_data_command^0,w,c
  2782   001FC0  46E8               	rlncf	wreg,f,c
  2783   001FC2  0B1F               	andlw	31
  2784   001FC4  0B01               	andlw	1
  2785   001FC6  6E42               	movwf	gpio_pin_write_logic@logic^0,c
  2786   001FC8  EC18  F00C         	call	_gpio_pin_write_logic	;wreg free
  2787   001FCC  6E4D               	movwf	lcd_send_4bits@ret^0,c
  2788                           
  2789                           ;ECU_Layer/Chr_LCD/ecu_chr_lcd.c: 484:     return ret;
  2790   001FCE  504D               	movf	lcd_send_4bits@ret^0,w,c
  2791   001FD0  0012               	return		;funcret
  2792   001FD2                     __end_of_lcd_send_4bits:
  2793                           	callstack 0
  2794                           
  2795 ;; *************** function _lcd_4bit_send_enable_signal *****************
  2796 ;; Defined at:
  2797 ;;		line 494 in file "ECU_Layer/Chr_LCD/ecu_chr_lcd.c"
  2798 ;; Parameters:    Size  Location     Type
  2799 ;;  lcd             2   11[COMRAM] PTR const struct .
  2800 ;;		 -> lcd1(6), 
  2801 ;; Auto vars:     Size  Location     Type
  2802 ;;  ret             1   13[COMRAM] unsigned char 
  2803 ;; Return value:  Size  Location     Type
  2804 ;;                  1    wreg      unsigned char 
  2805 ;; Registers used:
  2806 ;;		wreg, fsr2l, fsr2h, status,2, status,0, prodl, prodh, cstack
  2807 ;; Tracked objects:
  2808 ;;		On entry : 0/0
  2809 ;;		On exit  : 0/0
  2810 ;;		Unchanged: 0/0
  2811 ;; Data sizes:     COMRAM   BANK0   BANK1   BANK2   BANK3   BANK4   BANK5   BANK6   BANK7   BANK8   BANK9  BANK10  BANK1
      +1  BANK12  BANK13  BANK14  BANK15
  2812 ;;      Params:         2       0       0       0       0       0       0       0       0       0       0       0       
      +0       0       0       0       0
  2813 ;;      Locals:         1       0       0       0       0       0       0       0       0       0       0       0       
      +0       0       0       0       0
  2814 ;;      Temps:          0       0       0       0       0       0       0       0       0       0       0       0       
      +0       0       0       0       0
  2815 ;;      Totals:         3       0       0       0       0       0       0       0       0       0       0       0       
      +0       0       0       0       0
  2816 ;;Total ram usage:        3 bytes
  2817 ;; Hardware stack levels used: 1
  2818 ;; Hardware stack levels required when called: 3
  2819 ;; This function calls:
  2820 ;;		_gpio_pin_write_logic
  2821 ;; This function is called by:
  2822 ;;		_lcd_4bit_send_command
  2823 ;;		_lcd_4bit_send_char_data
  2824 ;; This function uses a non-reentrant model
  2825 ;;
  2826                           
  2827                           	psect	text16
  2828   00207A                     __ptext16:
  2829                           	callstack 0
  2830   00207A                     _lcd_4bit_send_enable_signal:
  2831                           	callstack 22
  2832   00207A  0E01               	movlw	1
  2833   00207C  244A               	addwf	lcd_4bit_send_enable_signal@lcd^0,w,c
  2834   00207E  6E40               	movwf	gpio_pin_write_logic@_pin_config^0,c
  2835   002080  0E00               	movlw	0
  2836   002082  204B               	addwfc	(lcd_4bit_send_enable_signal@lcd+1)^0,w,c
  2837   002084  6E41               	movwf	(gpio_pin_write_logic@_pin_config+1)^0,c
  2838   002086  0E01               	movlw	1
  2839   002088  6E42               	movwf	gpio_pin_write_logic@logic^0,c
  2840   00208A  EC18  F00C         	call	_gpio_pin_write_logic	;wreg free
  2841   00208E                     
  2842                           ;ECU_Layer/Chr_LCD/ecu_chr_lcd.c: 497:     _delay((unsigned long)((5)*(4000000UL/4000000
      +                          .0)));
  2843   00208E  D000               	nop2		;2 cycle nop
  2844   002090  D000               	nop2		;2 cycle nop
  2845   002092  F000               	nop	
  2846   002094                     
  2847                           ;ECU_Layer/Chr_LCD/ecu_chr_lcd.c: 498:     ret = gpio_pin_write_logic(&(lcd->lcd_en), GP
      +                          IO_LOW);
  2848   002094  0E01               	movlw	1
  2849   002096  244A               	addwf	lcd_4bit_send_enable_signal@lcd^0,w,c
  2850   002098  6E40               	movwf	gpio_pin_write_logic@_pin_config^0,c
  2851   00209A  0E00               	movlw	0
  2852   00209C  204B               	addwfc	(lcd_4bit_send_enable_signal@lcd+1)^0,w,c
  2853   00209E  6E41               	movwf	(gpio_pin_write_logic@_pin_config+1)^0,c
  2854   0020A0  0E00               	movlw	0
  2855   0020A2  6E42               	movwf	gpio_pin_write_logic@logic^0,c
  2856   0020A4  EC18  F00C         	call	_gpio_pin_write_logic	;wreg free
  2857   0020A8  6E4C               	movwf	lcd_4bit_send_enable_signal@ret^0,c
  2858                           
  2859                           ;ECU_Layer/Chr_LCD/ecu_chr_lcd.c: 499:     return ret;
  2860   0020AA  504C               	movf	lcd_4bit_send_enable_signal@ret^0,w,c
  2861   0020AC  0012               	return		;funcret
  2862   0020AE                     __end_of_lcd_4bit_send_enable_signal:
  2863                           	callstack 0
  2864                           
  2865 ;; *************** function _keypad_initialize *****************
  2866 ;; Defined at:
  2867 ;;		line 24 in file "ECU_Layer/KeyPad/ecu_keypad.c"
  2868 ;; Parameters:    Size  Location     Type
  2869 ;;  _keypad_obj     2   15[COMRAM] PTR const struct .
  2870 ;;		 -> keypad1(7), 
  2871 ;; Auto vars:     Size  Location     Type
  2872 ;;  columns_coun    1   21[COMRAM] unsigned char 
  2873 ;;  rows_counter    1   20[COMRAM] unsigned char 
  2874 ;;  ret             1   19[COMRAM] unsigned char 
  2875 ;; Return value:  Size  Location     Type
  2876 ;;                  1    wreg      unsigned char 
  2877 ;; Registers used:
  2878 ;;		wreg, fsr2l, fsr2h, status,2, status,0, prodl, prodh, cstack
  2879 ;; Tracked objects:
  2880 ;;		On entry : 0/0
  2881 ;;		On exit  : 0/0
  2882 ;;		Unchanged: 0/0
  2883 ;; Data sizes:     COMRAM   BANK0   BANK1   BANK2   BANK3   BANK4   BANK5   BANK6   BANK7   BANK8   BANK9  BANK10  BANK1
      +1  BANK12  BANK13  BANK14  BANK15
  2884 ;;      Params:         2       0       0       0       0       0       0       0       0       0       0       0       
      +0       0       0       0       0
  2885 ;;      Locals:         3       0       0       0       0       0       0       0       0       0       0       0       
      +0       0       0       0       0
  2886 ;;      Temps:          2       0       0       0       0       0       0       0       0       0       0       0       
      +0       0       0       0       0
  2887 ;;      Totals:         7       0       0       0       0       0       0       0       0       0       0       0       
      +0       0       0       0       0
  2888 ;;Total ram usage:        7 bytes
  2889 ;; Hardware stack levels used: 1
  2890 ;; Hardware stack levels required when called: 4
  2891 ;; This function calls:
  2892 ;;		_gpio_pin_direction_intialize
  2893 ;;		_gpio_pin_intialize
  2894 ;; This function is called by:
  2895 ;;		_ecu_layer_intialize
  2896 ;; This function uses a non-reentrant model
  2897 ;;
  2898                           
  2899                           	psect	text17
  2900   001D22                     __ptext17:
  2901                           	callstack 0
  2902   001D22                     _keypad_initialize:
  2903                           	callstack 25
  2904   001D22                     
  2905                           ;ECU_Layer/KeyPad/ecu_keypad.c: 26:     uint8 rows_counter = 0, columns_counter = 0;
  2906   001D22  0E00               	movlw	0
  2907   001D24  6E53               	movwf	keypad_initialize@rows_counter^0,c
  2908   001D26  0E00               	movlw	0
  2909   001D28  6E54               	movwf	keypad_initialize@columns_counter^0,c
  2910   001D2A                     
  2911                           ;ECU_Layer/KeyPad/ecu_keypad.c: 27:     if(((void*)0) == _keypad_obj){
  2912   001D2A  504E               	movf	keypad_initialize@_keypad_obj^0,w,c
  2913   001D2C  104F               	iorwf	(keypad_initialize@_keypad_obj+1)^0,w,c
  2914   001D2E  A4D8               	btfss	status,2,c
  2915   001D30  EF9C  F00E         	goto	u5191
  2916   001D34  EF9E  F00E         	goto	u5190
  2917   001D38                     u5191:
  2918   001D38  EFA2  F00E         	goto	l6910
  2919   001D3C                     u5190:
  2920   001D3C                     
  2921                           ;ECU_Layer/KeyPad/ecu_keypad.c: 28:         ret = (Std_ReturnType)0x00;
  2922   001D3C  0E00               	movlw	0
  2923   001D3E  6E52               	movwf	keypad_initialize@ret^0,c
  2924                           
  2925                           ;ECU_Layer/KeyPad/ecu_keypad.c: 29:     }
  2926   001D40  EFCF  F00E         	goto	l6934
  2927   001D44                     l6910:
  2928                           
  2929                           ;ECU_Layer/KeyPad/ecu_keypad.c: 31:         for(rows_counter=0; rows_counter<4; rows_cou
      +                          nter++){
  2930   001D44  0E00               	movlw	0
  2931   001D46  6E53               	movwf	keypad_initialize@rows_counter^0,c
  2932   001D48                     l6916:
  2933   001D48  5053               	movf	keypad_initialize@rows_counter^0,w,c
  2934   001D4A  244E               	addwf	keypad_initialize@_keypad_obj^0,w,c
  2935   001D4C  6E4A               	movwf	gpio_pin_intialize@_pin_config^0,c
  2936   001D4E  0E00               	movlw	0
  2937   001D50  204F               	addwfc	(keypad_initialize@_keypad_obj+1)^0,w,c
  2938   001D52  6E4B               	movwf	(gpio_pin_intialize@_pin_config+1)^0,c
  2939   001D54  EC7F  F00F         	call	_gpio_pin_intialize	;wreg free
  2940   001D58                     
  2941                           ;ECU_Layer/KeyPad/ecu_keypad.c: 33:         }
  2942   001D58  2A53               	incf	keypad_initialize@rows_counter^0,f,c
  2943   001D5A  0E03               	movlw	3
  2944   001D5C  6453               	cpfsgt	keypad_initialize@rows_counter^0,c
  2945   001D5E  EFB3  F00E         	goto	u5201
  2946   001D62  EFB5  F00E         	goto	u5200
  2947   001D66                     u5201:
  2948   001D66  EFA4  F00E         	goto	l6916
  2949   001D6A                     u5200:
  2950   001D6A                     
  2951                           ;ECU_Layer/KeyPad/ecu_keypad.c: 34:         for(columns_counter=0; columns_counter<3; co
      +                          lumns_counter++){
  2952   001D6A  0E00               	movlw	0
  2953   001D6C  6E54               	movwf	keypad_initialize@columns_counter^0,c
  2954   001D6E                     l6928:
  2955                           
  2956                           ;ECU_Layer/KeyPad/ecu_keypad.c: 35:             ret = gpio_pin_direction_intialize(&(_ke
      +                          ypad_obj->keypad_columns_pins[columns_counter]));
  2957   001D6E  5054               	movf	keypad_initialize@columns_counter^0,w,c
  2958   001D70  244E               	addwf	keypad_initialize@_keypad_obj^0,w,c
  2959   001D72  6E50               	movwf	??_keypad_initialize^0,c
  2960   001D74  0E00               	movlw	0
  2961   001D76  204F               	addwfc	(keypad_initialize@_keypad_obj+1)^0,w,c
  2962   001D78  6E51               	movwf	(??_keypad_initialize+1)^0,c
  2963   001D7A  0E04               	movlw	4
  2964   001D7C  2450               	addwf	??_keypad_initialize^0,w,c
  2965   001D7E  6E40               	movwf	gpio_pin_direction_intialize@_pin_config^0,c
  2966   001D80  0E00               	movlw	0
  2967   001D82  2051               	addwfc	(??_keypad_initialize+1)^0,w,c
  2968   001D84  6E41               	movwf	(gpio_pin_direction_intialize@_pin_config+1)^0,c
  2969   001D86  ECE0  F00A         	call	_gpio_pin_direction_intialize	;wreg free
  2970   001D8A  6E52               	movwf	keypad_initialize@ret^0,c
  2971   001D8C                     
  2972                           ;ECU_Layer/KeyPad/ecu_keypad.c: 36:         }
  2973   001D8C  2A54               	incf	keypad_initialize@columns_counter^0,f,c
  2974   001D8E  0E02               	movlw	2
  2975   001D90  6454               	cpfsgt	keypad_initialize@columns_counter^0,c
  2976   001D92  EFCD  F00E         	goto	u5211
  2977   001D96  EFCF  F00E         	goto	u5210
  2978   001D9A                     u5211:
  2979   001D9A  EFB7  F00E         	goto	l6928
  2980   001D9E                     u5210:
  2981   001D9E                     l6934:
  2982                           
  2983                           ;ECU_Layer/KeyPad/ecu_keypad.c: 38:     return ret;
  2984   001D9E  5052               	movf	keypad_initialize@ret^0,w,c
  2985   001DA0  0012               	return		;funcret
  2986   001DA2                     __end_of_keypad_initialize:
  2987                           	callstack 0
  2988                           
  2989 ;; *************** function _gpio_pin_intialize *****************
  2990 ;; Defined at:
  2991 ;;		line 144 in file "MCAL_Layer/GPIO/hal_gpio.c"
  2992 ;; Parameters:    Size  Location     Type
  2993 ;;  _pin_config     2   11[COMRAM] PTR const struct .
  2994 ;;		 -> keypad1.keypad_row_pins(4), keypad1(7), lcd1.lcd_data(4), lcd1(6), 
  2995 ;;		 -> relay_initialize@pin_obj(1), led_initialize@pin_obj(1), 
  2996 ;; Auto vars:     Size  Location     Type
  2997 ;;  ret             1   14[COMRAM] unsigned char 
  2998 ;; Return value:  Size  Location     Type
  2999 ;;                  1    wreg      unsigned char 
  3000 ;; Registers used:
  3001 ;;		wreg, fsr2l, fsr2h, status,2, status,0, prodl, prodh, cstack
  3002 ;; Tracked objects:
  3003 ;;		On entry : 0/0
  3004 ;;		On exit  : 0/0
  3005 ;;		Unchanged: 0/0
  3006 ;; Data sizes:     COMRAM   BANK0   BANK1   BANK2   BANK3   BANK4   BANK5   BANK6   BANK7   BANK8   BANK9  BANK10  BANK1
      +1  BANK12  BANK13  BANK14  BANK15
  3007 ;;      Params:         2       0       0       0       0       0       0       0       0       0       0       0       
      +0       0       0       0       0
  3008 ;;      Locals:         1       0       0       0       0       0       0       0       0       0       0       0       
      +0       0       0       0       0
  3009 ;;      Temps:          1       0       0       0       0       0       0       0       0       0       0       0       
      +0       0       0       0       0
  3010 ;;      Totals:         4       0       0       0       0       0       0       0       0       0       0       0       
      +0       0       0       0       0
  3011 ;;Total ram usage:        4 bytes
  3012 ;; Hardware stack levels used: 1
  3013 ;; Hardware stack levels required when called: 3
  3014 ;; This function calls:
  3015 ;;		_gpio_pin_direction_intialize
  3016 ;;		_gpio_pin_write_logic
  3017 ;; This function is called by:
  3018 ;;		_lcd_4bit_intialize
  3019 ;;		_keypad_initialize
  3020 ;;		_seven_segement_intialize
  3021 ;;		_lcd_8bit_intialize
  3022 ;;		_dc_motor_initialize
  3023 ;;		_led_initialize
  3024 ;;		_relay_initialize
  3025 ;;		_Ultrasonic_Init
  3026 ;;		_CCP_Init
  3027 ;; This function uses a non-reentrant model
  3028 ;;
  3029                           
  3030                           	psect	text18
  3031   001EFE                     __ptext18:
  3032                           	callstack 0
  3033   001EFE                     _gpio_pin_intialize:
  3034                           	callstack 25
  3035   001EFE                     
  3036                           ;MCAL_Layer/GPIO/hal_gpio.c: 146:     if(((void*)0) == _pin_config || _pin_config->pin >
      +                           8 -1){
  3037   001EFE  504A               	movf	gpio_pin_intialize@_pin_config^0,w,c
  3038   001F00  104B               	iorwf	(gpio_pin_intialize@_pin_config+1)^0,w,c
  3039   001F02  B4D8               	btfsc	status,2,c
  3040   001F04  EF86  F00F         	goto	u5021
  3041   001F08  EF88  F00F         	goto	u5020
  3042   001F0C                     u5021:
  3043   001F0C  EF99  F00F         	goto	l6718
  3044   001F10                     u5020:
  3045   001F10  C04A  FFD9         	movff	gpio_pin_intialize@_pin_config,fsr2l
  3046   001F14  C04B  FFDA         	movff	gpio_pin_intialize@_pin_config+1,fsr2h
  3047   001F18  30DF               	rrcf	223,w,c
  3048   001F1A  32E8               	rrcf	wreg,f,c
  3049   001F1C  32E8               	rrcf	wreg,f,c
  3050   001F1E  0B07               	andlw	7
  3051   001F20  6E4C               	movwf	??_gpio_pin_intialize^0,c
  3052   001F22  0E07               	movlw	7
  3053   001F24  644C               	cpfsgt	??_gpio_pin_intialize^0,c
  3054   001F26  EF97  F00F         	goto	u5031
  3055   001F2A  EF99  F00F         	goto	u5030
  3056   001F2E                     u5031:
  3057   001F2E  EF9D  F00F         	goto	l6720
  3058   001F32                     u5030:
  3059   001F32                     l6718:
  3060                           
  3061                           ;MCAL_Layer/GPIO/hal_gpio.c: 147:         ret = (Std_ReturnType)0x00;
  3062   001F32  0E00               	movlw	0
  3063   001F34  6E4D               	movwf	gpio_pin_intialize@ret^0,c
  3064                           
  3065                           ;MCAL_Layer/GPIO/hal_gpio.c: 148:     }
  3066   001F36  EFB3  F00F         	goto	l6722
  3067   001F3A                     l6720:
  3068                           
  3069                           ;MCAL_Layer/GPIO/hal_gpio.c: 150:         ret = gpio_pin_direction_intialize(_pin_config
      +                          );
  3070   001F3A  C04A  F040         	movff	gpio_pin_intialize@_pin_config,gpio_pin_direction_intialize@_pin_config
  3071   001F3E  C04B  F041         	movff	gpio_pin_intialize@_pin_config+1,gpio_pin_direction_intialize@_pin_config+1
  3072   001F42  ECE0  F00A         	call	_gpio_pin_direction_intialize	;wreg free
  3073   001F46  6E4D               	movwf	gpio_pin_intialize@ret^0,c
  3074                           
  3075                           ;MCAL_Layer/GPIO/hal_gpio.c: 151:         ret = gpio_pin_write_logic(_pin_config, _pin_c
      +                          onfig->logic);
  3076   001F48  C04A  F040         	movff	gpio_pin_intialize@_pin_config,gpio_pin_write_logic@_pin_config
  3077   001F4C  C04B  F041         	movff	gpio_pin_intialize@_pin_config+1,gpio_pin_write_logic@_pin_config+1
  3078   001F50  C04A  FFD9         	movff	gpio_pin_intialize@_pin_config,fsr2l
  3079   001F54  C04B  FFDA         	movff	gpio_pin_intialize@_pin_config+1,fsr2h
  3080   001F58  0E00               	movlw	0
  3081   001F5A  BEDF               	btfsc	indf2,7,c
  3082   001F5C  0E01               	movlw	1
  3083   001F5E  6E42               	movwf	gpio_pin_write_logic@logic^0,c
  3084   001F60  EC18  F00C         	call	_gpio_pin_write_logic	;wreg free
  3085   001F64  6E4D               	movwf	gpio_pin_intialize@ret^0,c
  3086   001F66                     l6722:
  3087                           
  3088                           ;MCAL_Layer/GPIO/hal_gpio.c: 153:     return ret;
  3089   001F66  504D               	movf	gpio_pin_intialize@ret^0,w,c
  3090   001F68  0012               	return		;funcret
  3091   001F6A                     __end_of_gpio_pin_intialize:
  3092                           	callstack 0
  3093                           
  3094 ;; *************** function _gpio_pin_write_logic *****************
  3095 ;; Defined at:
  3096 ;;		line 75 in file "MCAL_Layer/GPIO/hal_gpio.c"
  3097 ;; Parameters:    Size  Location     Type
  3098 ;;  _pin_config     2    1[COMRAM] PTR const struct .
  3099 ;;		 -> keypad1.keypad_row_pins(4), keypad1(7), lcd1.lcd_data(4), lcd1(6), 
  3100 ;;		 -> relay_turn_off@pin_obj(1), relay_turn_on@pin_obj(1), relay_initialize@pin_obj(1), led_turn_off@pin_obj(1), 
  3101 ;;		 -> led_turn_on@pin_obj(1), led_initialize@pin_obj(1), 
  3102 ;;  logic           1    3[COMRAM] enum E2936
  3103 ;; Auto vars:     Size  Location     Type
  3104 ;;  ret             1   10[COMRAM] unsigned char 
  3105 ;; Return value:  Size  Location     Type
  3106 ;;                  1    wreg      unsigned char 
  3107 ;; Registers used:
  3108 ;;		wreg, fsr2l, fsr2h, status,2, status,0, prodl, prodh
  3109 ;; Tracked objects:
  3110 ;;		On entry : 0/0
  3111 ;;		On exit  : 0/0
  3112 ;;		Unchanged: 0/0
  3113 ;; Data sizes:     COMRAM   BANK0   BANK1   BANK2   BANK3   BANK4   BANK5   BANK6   BANK7   BANK8   BANK9  BANK10  BANK1
      +1  BANK12  BANK13  BANK14  BANK15
  3114 ;;      Params:         3       0       0       0       0       0       0       0       0       0       0       0       
      +0       0       0       0       0
  3115 ;;      Locals:         1       0       0       0       0       0       0       0       0       0       0       0       
      +0       0       0       0       0
  3116 ;;      Temps:          6       0       0       0       0       0       0       0       0       0       0       0       
      +0       0       0       0       0
  3117 ;;      Totals:        10       0       0       0       0       0       0       0       0       0       0       0       
      +0       0       0       0       0
  3118 ;;Total ram usage:       10 bytes
  3119 ;; Hardware stack levels used: 1
  3120 ;; Hardware stack levels required when called: 2
  3121 ;; This function calls:
  3122 ;;		Nothing
  3123 ;; This function is called by:
  3124 ;;		_lcd_4bit_send_command
  3125 ;;		_lcd_4bit_send_char_data
  3126 ;;		_lcd_send_4bits
  3127 ;;		_lcd_4bit_send_enable_signal
  3128 ;;		_keypad_get_value
  3129 ;;		_gpio_pin_intialize
  3130 ;;		_seven_segement_write_number
  3131 ;;		_lcd_8bit_send_command
  3132 ;;		_lcd_8bit_send_char_data
  3133 ;;		_lcd_8bit_send_enable_signal
  3134 ;;		_dc_motor_move_right
  3135 ;;		_dc_motor_move_left
  3136 ;;		_dc_motor_stop
  3137 ;;		_led_turn_on
  3138 ;;		_led_turn_off
  3139 ;;		_relay_turn_on
  3140 ;;		_relay_turn_off
  3141 ;;		_Ultrasonic_Calculate_Distance
  3142 ;; This function uses a non-reentrant model
  3143 ;;
  3144                           
  3145                           	psect	text19
  3146   001830                     __ptext19:
  3147                           	callstack 0
  3148   001830                     _gpio_pin_write_logic:
  3149                           	callstack 22
  3150   001830                     
  3151                           ;MCAL_Layer/GPIO/hal_gpio.c: 76:     Std_ReturnType ret = (Std_ReturnType)0x01;
  3152   001830  0E01               	movlw	1
  3153   001832  6E49               	movwf	gpio_pin_write_logic@ret^0,c
  3154   001834                     
  3155                           ;MCAL_Layer/GPIO/hal_gpio.c: 77:     if(((void*)0) == _pin_config || _pin_config->pin > 
      +                          8 -1){
  3156   001834  5040               	movf	gpio_pin_write_logic@_pin_config^0,w,c
  3157   001836  1041               	iorwf	(gpio_pin_write_logic@_pin_config+1)^0,w,c
  3158   001838  B4D8               	btfsc	status,2,c
  3159   00183A  EF21  F00C         	goto	u4921
  3160   00183E  EF23  F00C         	goto	u4920
  3161   001842                     u4921:
  3162   001842  EF34  F00C         	goto	l6610
  3163   001846                     u4920:
  3164   001846  C040  FFD9         	movff	gpio_pin_write_logic@_pin_config,fsr2l
  3165   00184A  C041  FFDA         	movff	gpio_pin_write_logic@_pin_config+1,fsr2h
  3166   00184E  30DF               	rrcf	223,w,c
  3167   001850  32E8               	rrcf	wreg,f,c
  3168   001852  32E8               	rrcf	wreg,f,c
  3169   001854  0B07               	andlw	7
  3170   001856  6E43               	movwf	??_gpio_pin_write_logic^0,c
  3171   001858  0E07               	movlw	7
  3172   00185A  6443               	cpfsgt	??_gpio_pin_write_logic^0,c
  3173   00185C  EF32  F00C         	goto	u4931
  3174   001860  EF34  F00C         	goto	u4930
  3175   001864                     u4931:
  3176   001864  EF97  F00C         	goto	l6618
  3177   001868                     u4930:
  3178   001868                     l6610:
  3179                           
  3180                           ;MCAL_Layer/GPIO/hal_gpio.c: 78:         ret = (Std_ReturnType)0x00;
  3181   001868  0E00               	movlw	0
  3182   00186A  6E49               	movwf	gpio_pin_write_logic@ret^0,c
  3183                           
  3184                           ;MCAL_Layer/GPIO/hal_gpio.c: 79:     }
  3185   00186C  EFAC  F00C         	goto	l6620
  3186   001870                     l6612:
  3187                           
  3188                           ;MCAL_Layer/GPIO/hal_gpio.c: 83:                 (*lat_registers[_pin_config->port] &= ~
      +                          ((uint8)1 << _pin_config->pin));
  3189   001870  C040  FFD9         	movff	gpio_pin_write_logic@_pin_config,fsr2l
  3190   001874  C041  FFDA         	movff	gpio_pin_write_logic@_pin_config+1,fsr2h
  3191   001878  30DF               	rrcf	223,w,c
  3192   00187A  32E8               	rrcf	wreg,f,c
  3193   00187C  32E8               	rrcf	wreg,f,c
  3194   00187E  0B07               	andlw	7
  3195   001880  6E43               	movwf	??_gpio_pin_write_logic^0,c
  3196   001882  0E01               	movlw	1
  3197   001884  6E44               	movwf	(??_gpio_pin_write_logic+1)^0,c
  3198   001886  2A43               	incf	??_gpio_pin_write_logic^0,f,c
  3199   001888  EF48  F00C         	goto	u4944
  3200   00188C                     u4945:
  3201   00188C  90D8               	bcf	status,0,c
  3202   00188E  3644               	rlcf	(??_gpio_pin_write_logic+1)^0,f,c
  3203   001890                     u4944:
  3204   001890  2E43               	decfsz	??_gpio_pin_write_logic^0,f,c
  3205   001892  EF46  F00C         	goto	u4945
  3206   001896  5044               	movf	(??_gpio_pin_write_logic+1)^0,w,c
  3207   001898  0AFF               	xorlw	255
  3208   00189A  6E45               	movwf	(??_gpio_pin_write_logic+2)^0,c
  3209   00189C  C040  FFD9         	movff	gpio_pin_write_logic@_pin_config,fsr2l
  3210   0018A0  C041  FFDA         	movff	gpio_pin_write_logic@_pin_config+1,fsr2h
  3211   0018A4  50DF               	movf	223,w,c
  3212   0018A6  0B07               	andlw	7
  3213   0018A8  6E46               	movwf	(??_gpio_pin_write_logic+3)^0,c
  3214   0018AA  5046               	movf	(??_gpio_pin_write_logic+3)^0,w,c
  3215   0018AC  0D02               	mullw	2
  3216   0018AE  0E8A               	movlw	low _lat_registers
  3217   0018B0  24F3               	addwf	243,w,c
  3218   0018B2  6ED9               	movwf	fsr2l,c
  3219   0018B4  0E00               	movlw	high _lat_registers
  3220   0018B6  20F4               	addwfc	prodh,w,c
  3221   0018B8  6EDA               	movwf	fsr2h,c
  3222   0018BA  CFDE F047          	movff	postinc2,??_gpio_pin_write_logic+4
  3223   0018BE  CFDD F048          	movff	postdec2,??_gpio_pin_write_logic+5
  3224   0018C2  C047  FFD9         	movff	??_gpio_pin_write_logic+4,fsr2l
  3225   0018C6  C048  FFDA         	movff	??_gpio_pin_write_logic+5,fsr2h
  3226   0018CA  5045               	movf	(??_gpio_pin_write_logic+2)^0,w,c
  3227   0018CC  16DF               	andwf	indf2,f,c
  3228                           
  3229                           ;MCAL_Layer/GPIO/hal_gpio.c: 84:                 break;
  3230   0018CE  EFAC  F00C         	goto	l6620
  3231   0018D2                     l6614:
  3232                           
  3233                           ;MCAL_Layer/GPIO/hal_gpio.c: 86:                 (*lat_registers[_pin_config->port] |= (
      +                          (uint8)1 << _pin_config->pin));
  3234   0018D2  C040  FFD9         	movff	gpio_pin_write_logic@_pin_config,fsr2l
  3235   0018D6  C041  FFDA         	movff	gpio_pin_write_logic@_pin_config+1,fsr2h
  3236   0018DA  30DF               	rrcf	223,w,c
  3237   0018DC  32E8               	rrcf	wreg,f,c
  3238   0018DE  32E8               	rrcf	wreg,f,c
  3239   0018E0  0B07               	andlw	7
  3240   0018E2  6E43               	movwf	??_gpio_pin_write_logic^0,c
  3241   0018E4  0E01               	movlw	1
  3242   0018E6  6E44               	movwf	(??_gpio_pin_write_logic+1)^0,c
  3243   0018E8  2A43               	incf	??_gpio_pin_write_logic^0,f,c
  3244   0018EA  EF79  F00C         	goto	u4954
  3245   0018EE                     u4955:
  3246   0018EE  90D8               	bcf	status,0,c
  3247   0018F0  3644               	rlcf	(??_gpio_pin_write_logic+1)^0,f,c
  3248   0018F2                     u4954:
  3249   0018F2  2E43               	decfsz	??_gpio_pin_write_logic^0,f,c
  3250   0018F4  EF77  F00C         	goto	u4955
  3251   0018F8  C040  FFD9         	movff	gpio_pin_write_logic@_pin_config,fsr2l
  3252   0018FC  C041  FFDA         	movff	gpio_pin_write_logic@_pin_config+1,fsr2h
  3253   001900  50DF               	movf	223,w,c
  3254   001902  0B07               	andlw	7
  3255   001904  6E45               	movwf	(??_gpio_pin_write_logic+2)^0,c
  3256   001906  5045               	movf	(??_gpio_pin_write_logic+2)^0,w,c
  3257   001908  0D02               	mullw	2
  3258   00190A  0E8A               	movlw	low _lat_registers
  3259   00190C  24F3               	addwf	243,w,c
  3260   00190E  6ED9               	movwf	fsr2l,c
  3261   001910  0E00               	movlw	high _lat_registers
  3262   001912  20F4               	addwfc	prodh,w,c
  3263   001914  6EDA               	movwf	fsr2h,c
  3264   001916  CFDE F046          	movff	postinc2,??_gpio_pin_write_logic+3
  3265   00191A  CFDD F047          	movff	postdec2,??_gpio_pin_write_logic+4
  3266   00191E  C046  FFD9         	movff	??_gpio_pin_write_logic+3,fsr2l
  3267   001922  C047  FFDA         	movff	??_gpio_pin_write_logic+4,fsr2h
  3268   001926  5044               	movf	(??_gpio_pin_write_logic+1)^0,w,c
  3269   001928  12DF               	iorwf	indf2,f,c
  3270                           
  3271                           ;MCAL_Layer/GPIO/hal_gpio.c: 87:                 break;
  3272   00192A  EFAC  F00C         	goto	l6620
  3273   00192E                     l6618:
  3274   00192E  5042               	movf	gpio_pin_write_logic@logic^0,w,c
  3275   001930  6E43               	movwf	??_gpio_pin_write_logic^0,c
  3276   001932  6A44               	clrf	(??_gpio_pin_write_logic+1)^0,c
  3277                           
  3278                           ; Switch on 2 bytes has been partitioned into a top level switch of size 1, and 1 sub-sw
      +                          itches
  3279                           ; Switch size 1, requested type "simple"
  3280                           ; Number of cases is 1, Range of values is 0 to 0
  3281                           ; switch strategies available:
  3282                           ; Name         Instructions Cycles
  3283                           ; simple_byte            4     3 (average)
  3284                           ;	Chosen strategy is simple_byte
  3285   001934  5044               	movf	(??_gpio_pin_write_logic+1)^0,w,c
  3286   001936  0A00               	xorlw	0	; case 0
  3287   001938  B4D8               	btfsc	status,2,c
  3288   00193A  EFA1  F00C         	goto	l7556
  3289   00193E  EF34  F00C         	goto	l6610
  3290   001942                     l7556:
  3291                           
  3292                           ; Switch size 1, requested type "simple"
  3293                           ; Number of cases is 2, Range of values is 0 to 1
  3294                           ; switch strategies available:
  3295                           ; Name         Instructions Cycles
  3296                           ; simple_byte            7     4 (average)
  3297                           ;	Chosen strategy is simple_byte
  3298   001942  5043               	movf	??_gpio_pin_write_logic^0,w,c
  3299   001944  0A00               	xorlw	0	; case 0
  3300   001946  B4D8               	btfsc	status,2,c
  3301   001948  EF38  F00C         	goto	l6612
  3302   00194C  0A01               	xorlw	1	; case 1
  3303   00194E  B4D8               	btfsc	status,2,c
  3304   001950  EF69  F00C         	goto	l6614
  3305   001954  EF34  F00C         	goto	l6610
  3306   001958                     l6620:
  3307                           
  3308                           ;MCAL_Layer/GPIO/hal_gpio.c: 91:     return ret;
  3309   001958  5049               	movf	gpio_pin_write_logic@ret^0,w,c
  3310   00195A  0012               	return		;funcret
  3311   00195C                     __end_of_gpio_pin_write_logic:
  3312                           	callstack 0
  3313                           
  3314 ;; *************** function _gpio_pin_direction_intialize *****************
  3315 ;; Defined at:
  3316 ;;		line 25 in file "MCAL_Layer/GPIO/hal_gpio.c"
  3317 ;; Parameters:    Size  Location     Type
  3318 ;;  _pin_config     2    1[COMRAM] PTR const struct .
  3319 ;;		 -> MSSP_SPI_Slave_Mode_GPIO_PIN_Configurations@SPI_SS(1), MSSP_SPI_Slave_Mode_GPIO_PIN_Configurations@SPI_CLK(1), M
      +SSP_SPI_Slave_Mode_GPIO_PIN_Configurations@SPI_SDI(1), MSSP_SPI_Slave_Mode_GPIO_PIN_Configurations@SPI_SDO(1), 
  3320 ;;		 -> MSSP_SPI_Msster_Mode_GPIO_PIN_Configurations@SPI_CLK(1), MSSP_SPI_Msster_Mode_GPIO_PIN_Configurations@SPI_SDI(1)
      +, MSSP_SPI_Msster_Mode_GPIO_PIN_Configurations@SPI_SDO(1), keypad1.keypad_columns_pins(3), 
  3321 ;;		 -> keypad1.keypad_row_pins(4), keypad1(7), lcd1.lcd_data(4), lcd1(6), 
  3322 ;;		 -> relay_initialize@pin_obj(1), led_initialize@pin_obj(1), 
  3323 ;; Auto vars:     Size  Location     Type
  3324 ;;  ret             1    9[COMRAM] unsigned char 
  3325 ;; Return value:  Size  Location     Type
  3326 ;;                  1    wreg      unsigned char 
  3327 ;; Registers used:
  3328 ;;		wreg, fsr2l, fsr2h, status,2, status,0, prodl, prodh
  3329 ;; Tracked objects:
  3330 ;;		On entry : 0/0
  3331 ;;		On exit  : 0/0
  3332 ;;		Unchanged: 0/0
  3333 ;; Data sizes:     COMRAM   BANK0   BANK1   BANK2   BANK3   BANK4   BANK5   BANK6   BANK7   BANK8   BANK9  BANK10  BANK1
      +1  BANK12  BANK13  BANK14  BANK15
  3334 ;;      Params:         2       0       0       0       0       0       0       0       0       0       0       0       
      +0       0       0       0       0
  3335 ;;      Locals:         1       0       0       0       0       0       0       0       0       0       0       0       
      +0       0       0       0       0
  3336 ;;      Temps:          6       0       0       0       0       0       0       0       0       0       0       0       
      +0       0       0       0       0
  3337 ;;      Totals:         9       0       0       0       0       0       0       0       0       0       0       0       
      +0       0       0       0       0
  3338 ;;Total ram usage:        9 bytes
  3339 ;; Hardware stack levels used: 1
  3340 ;; Hardware stack levels required when called: 2
  3341 ;; This function calls:
  3342 ;;		Nothing
  3343 ;; This function is called by:
  3344 ;;		_keypad_initialize
  3345 ;;		_gpio_pin_intialize
  3346 ;;		_button_initialize
  3347 ;;		_Interrupt_RBx_Init
  3348 ;;		_Interrupt_INTx_Pin_Init
  3349 ;;		_MSSP_SPI_Msster_Mode_GPIO_PIN_Configurations
  3350 ;;		_MSSP_SPI_Slave_Mode_GPIO_PIN_Configurations
  3351 ;; This function uses a non-reentrant model
  3352 ;;
  3353                           
  3354                           	psect	text20
  3355   0015C0                     __ptext20:
  3356                           	callstack 0
  3357   0015C0                     _gpio_pin_direction_intialize:
  3358                           	callstack 25
  3359   0015C0                     
  3360                           ;MCAL_Layer/GPIO/hal_gpio.c: 26:     Std_ReturnType ret = (Std_ReturnType)0x01;
  3361   0015C0  0E01               	movlw	1
  3362   0015C2  6E48               	movwf	gpio_pin_direction_intialize@ret^0,c
  3363   0015C4                     
  3364                           ;MCAL_Layer/GPIO/hal_gpio.c: 27:     if(((void*)0) == _pin_config || _pin_config->pin > 
      +                          8 -1){
  3365   0015C4  5040               	movf	gpio_pin_direction_intialize@_pin_config^0,w,c
  3366   0015C6  1041               	iorwf	(gpio_pin_direction_intialize@_pin_config+1)^0,w,c
  3367   0015C8  B4D8               	btfsc	status,2,c
  3368   0015CA  EFE9  F00A         	goto	u3541
  3369   0015CE  EFEB  F00A         	goto	u3540
  3370   0015D2                     u3541:
  3371   0015D2  EFFC  F00A         	goto	l5308
  3372   0015D6                     u3540:
  3373   0015D6  C040  FFD9         	movff	gpio_pin_direction_intialize@_pin_config,fsr2l
  3374   0015DA  C041  FFDA         	movff	gpio_pin_direction_intialize@_pin_config+1,fsr2h
  3375   0015DE  30DF               	rrcf	223,w,c
  3376   0015E0  32E8               	rrcf	wreg,f,c
  3377   0015E2  32E8               	rrcf	wreg,f,c
  3378   0015E4  0B07               	andlw	7
  3379   0015E6  6E42               	movwf	??_gpio_pin_direction_intialize^0,c
  3380   0015E8  0E07               	movlw	7
  3381   0015EA  6442               	cpfsgt	??_gpio_pin_direction_intialize^0,c
  3382   0015EC  EFFA  F00A         	goto	u3551
  3383   0015F0  EFFC  F00A         	goto	u3550
  3384   0015F4                     u3551:
  3385   0015F4  EF5F  F00B         	goto	l5316
  3386   0015F8                     u3550:
  3387   0015F8                     l5308:
  3388                           
  3389                           ;MCAL_Layer/GPIO/hal_gpio.c: 28:         ret = (Std_ReturnType)0x00;
  3390   0015F8  0E00               	movlw	0
  3391   0015FA  6E48               	movwf	gpio_pin_direction_intialize@ret^0,c
  3392                           
  3393                           ;MCAL_Layer/GPIO/hal_gpio.c: 29:     }
  3394   0015FC  EF80  F00B         	goto	l5318
  3395   001600                     l5310:
  3396                           
  3397                           ;MCAL_Layer/GPIO/hal_gpio.c: 33:                 (*tris_registers[_pin_config->port] &= 
      +                          ~((uint8)1 << _pin_config->pin));
  3398   001600  C040  FFD9         	movff	gpio_pin_direction_intialize@_pin_config,fsr2l
  3399   001604  C041  FFDA         	movff	gpio_pin_direction_intialize@_pin_config+1,fsr2h
  3400   001608  30DF               	rrcf	223,w,c
  3401   00160A  32E8               	rrcf	wreg,f,c
  3402   00160C  32E8               	rrcf	wreg,f,c
  3403   00160E  0B07               	andlw	7
  3404   001610  6E42               	movwf	??_gpio_pin_direction_intialize^0,c
  3405   001612  0E01               	movlw	1
  3406   001614  6E43               	movwf	(??_gpio_pin_direction_intialize+1)^0,c
  3407   001616  2A42               	incf	??_gpio_pin_direction_intialize^0,f,c
  3408   001618  EF10  F00B         	goto	u3564
  3409   00161C                     u3565:
  3410   00161C  90D8               	bcf	status,0,c
  3411   00161E  3643               	rlcf	(??_gpio_pin_direction_intialize+1)^0,f,c
  3412   001620                     u3564:
  3413   001620  2E42               	decfsz	??_gpio_pin_direction_intialize^0,f,c
  3414   001622  EF0E  F00B         	goto	u3565
  3415   001626  5043               	movf	(??_gpio_pin_direction_intialize+1)^0,w,c
  3416   001628  0AFF               	xorlw	255
  3417   00162A  6E44               	movwf	(??_gpio_pin_direction_intialize+2)^0,c
  3418   00162C  C040  FFD9         	movff	gpio_pin_direction_intialize@_pin_config,fsr2l
  3419   001630  C041  FFDA         	movff	gpio_pin_direction_intialize@_pin_config+1,fsr2h
  3420   001634  50DF               	movf	223,w,c
  3421   001636  0B07               	andlw	7
  3422   001638  6E45               	movwf	(??_gpio_pin_direction_intialize+3)^0,c
  3423   00163A  5045               	movf	(??_gpio_pin_direction_intialize+3)^0,w,c
  3424   00163C  0D02               	mullw	2
  3425   00163E  0E94               	movlw	low _tris_registers
  3426   001640  24F3               	addwf	243,w,c
  3427   001642  6ED9               	movwf	fsr2l,c
  3428   001644  0E00               	movlw	high _tris_registers
  3429   001646  20F4               	addwfc	prodh,w,c
  3430   001648  6EDA               	movwf	fsr2h,c
  3431   00164A  CFDE F046          	movff	postinc2,??_gpio_pin_direction_intialize+4
  3432   00164E  CFDD F047          	movff	postdec2,??_gpio_pin_direction_intialize+5
  3433   001652  C046  FFD9         	movff	??_gpio_pin_direction_intialize+4,fsr2l
  3434   001656  C047  FFDA         	movff	??_gpio_pin_direction_intialize+5,fsr2h
  3435   00165A  5044               	movf	(??_gpio_pin_direction_intialize+2)^0,w,c
  3436   00165C  16DF               	andwf	indf2,f,c
  3437                           
  3438                           ;MCAL_Layer/GPIO/hal_gpio.c: 34:                 break;
  3439   00165E  EF80  F00B         	goto	l5318
  3440   001662                     l5312:
  3441                           
  3442                           ;MCAL_Layer/GPIO/hal_gpio.c: 36:                 (*tris_registers[_pin_config->port] |= 
      +                          ((uint8)1 << _pin_config->pin));
  3443   001662  C040  FFD9         	movff	gpio_pin_direction_intialize@_pin_config,fsr2l
  3444   001666  C041  FFDA         	movff	gpio_pin_direction_intialize@_pin_config+1,fsr2h
  3445   00166A  30DF               	rrcf	223,w,c
  3446   00166C  32E8               	rrcf	wreg,f,c
  3447   00166E  32E8               	rrcf	wreg,f,c
  3448   001670  0B07               	andlw	7
  3449   001672  6E42               	movwf	??_gpio_pin_direction_intialize^0,c
  3450   001674  0E01               	movlw	1
  3451   001676  6E43               	movwf	(??_gpio_pin_direction_intialize+1)^0,c
  3452   001678  2A42               	incf	??_gpio_pin_direction_intialize^0,f,c
  3453   00167A  EF41  F00B         	goto	u3574
  3454   00167E                     u3575:
  3455   00167E  90D8               	bcf	status,0,c
  3456   001680  3643               	rlcf	(??_gpio_pin_direction_intialize+1)^0,f,c
  3457   001682                     u3574:
  3458   001682  2E42               	decfsz	??_gpio_pin_direction_intialize^0,f,c
  3459   001684  EF3F  F00B         	goto	u3575
  3460   001688  C040  FFD9         	movff	gpio_pin_direction_intialize@_pin_config,fsr2l
  3461   00168C  C041  FFDA         	movff	gpio_pin_direction_intialize@_pin_config+1,fsr2h
  3462   001690  50DF               	movf	223,w,c
  3463   001692  0B07               	andlw	7
  3464   001694  6E44               	movwf	(??_gpio_pin_direction_intialize+2)^0,c
  3465   001696  5044               	movf	(??_gpio_pin_direction_intialize+2)^0,w,c
  3466   001698  0D02               	mullw	2
  3467   00169A  0E94               	movlw	low _tris_registers
  3468   00169C  24F3               	addwf	243,w,c
  3469   00169E  6ED9               	movwf	fsr2l,c
  3470   0016A0  0E00               	movlw	high _tris_registers
  3471   0016A2  20F4               	addwfc	prodh,w,c
  3472   0016A4  6EDA               	movwf	fsr2h,c
  3473   0016A6  CFDE F045          	movff	postinc2,??_gpio_pin_direction_intialize+3
  3474   0016AA  CFDD F046          	movff	postdec2,??_gpio_pin_direction_intialize+4
  3475   0016AE  C045  FFD9         	movff	??_gpio_pin_direction_intialize+3,fsr2l
  3476   0016B2  C046  FFDA         	movff	??_gpio_pin_direction_intialize+4,fsr2h
  3477   0016B6  5043               	movf	(??_gpio_pin_direction_intialize+1)^0,w,c
  3478   0016B8  12DF               	iorwf	indf2,f,c
  3479                           
  3480                           ;MCAL_Layer/GPIO/hal_gpio.c: 37:                 break;
  3481   0016BA  EF80  F00B         	goto	l5318
  3482   0016BE                     l5316:
  3483   0016BE  C040  FFD9         	movff	gpio_pin_direction_intialize@_pin_config,fsr2l
  3484   0016C2  C041  FFDA         	movff	gpio_pin_direction_intialize@_pin_config+1,fsr2h
  3485   0016C6  BCDF               	btfsc	indf2,6,c
  3486   0016C8  EF68  F00B         	goto	u3581
  3487   0016CC  EF6B  F00B         	goto	u3580
  3488   0016D0                     u3581:
  3489   0016D0  0E01               	movlw	1
  3490   0016D2  EF6C  F00B         	goto	u3590
  3491   0016D6                     u3580:
  3492   0016D6  0E00               	movlw	0
  3493   0016D8                     u3590:
  3494   0016D8  6E42               	movwf	??_gpio_pin_direction_intialize^0,c
  3495   0016DA  6A43               	clrf	(??_gpio_pin_direction_intialize+1)^0,c
  3496                           
  3497                           ; Switch on 2 bytes has been partitioned into a top level switch of size 1, and 1 sub-sw
      +                          itches
  3498                           ; Switch size 1, requested type "simple"
  3499                           ; Number of cases is 1, Range of values is 0 to 0
  3500                           ; switch strategies available:
  3501                           ; Name         Instructions Cycles
  3502                           ; simple_byte            4     3 (average)
  3503                           ;	Chosen strategy is simple_byte
  3504   0016DC  5043               	movf	(??_gpio_pin_direction_intialize+1)^0,w,c
  3505   0016DE  0A00               	xorlw	0	; case 0
  3506   0016E0  B4D8               	btfsc	status,2,c
  3507   0016E2  EF75  F00B         	goto	l7558
  3508   0016E6  EFFC  F00A         	goto	l5308
  3509   0016EA                     l7558:
  3510                           
  3511                           ; Switch size 1, requested type "simple"
  3512                           ; Number of cases is 2, Range of values is 0 to 1
  3513                           ; switch strategies available:
  3514                           ; Name         Instructions Cycles
  3515                           ; simple_byte            7     4 (average)
  3516                           ;	Chosen strategy is simple_byte
  3517   0016EA  5042               	movf	??_gpio_pin_direction_intialize^0,w,c
  3518   0016EC  0A00               	xorlw	0	; case 0
  3519   0016EE  B4D8               	btfsc	status,2,c
  3520   0016F0  EF00  F00B         	goto	l5310
  3521   0016F4  0A01               	xorlw	1	; case 1
  3522   0016F6  B4D8               	btfsc	status,2,c
  3523   0016F8  EF31  F00B         	goto	l5312
  3524   0016FC  EFFC  F00A         	goto	l5308
  3525   001700                     l5318:
  3526                           
  3527                           ;MCAL_Layer/GPIO/hal_gpio.c: 41:     return ret;
  3528   001700  5048               	movf	gpio_pin_direction_intialize@ret^0,w,c
  3529   001702  0012               	return		;funcret
  3530   001704                     __end_of_gpio_pin_direction_intialize:
  3531                           	callstack 0
  3532                           
  3533 ;; *************** function _InterruptManager *****************
  3534 ;; Defined at:
  3535 ;;		line 32 in file "MCAL_Layer/Interrupt/mcal_interrupt_manager.c"
  3536 ;; Parameters:    Size  Location     Type
  3537 ;;		None
  3538 ;; Auto vars:     Size  Location     Type
  3539 ;;		None
  3540 ;; Return value:  Size  Location     Type
  3541 ;;                  1    wreg      void 
  3542 ;; Registers used:
  3543 ;;		wreg, status,2, status,0, cstack
  3544 ;; Tracked objects:
  3545 ;;		On entry : 0/0
  3546 ;;		On exit  : 0/0
  3547 ;;		Unchanged: 0/0
  3548 ;; Data sizes:     COMRAM   BANK0   BANK1   BANK2   BANK3   BANK4   BANK5   BANK6   BANK7   BANK8   BANK9  BANK10  BANK1
      +1  BANK12  BANK13  BANK14  BANK15
  3549 ;;      Params:         0       0       0       0       0       0       0       0       0       0       0       0       
      +0       0       0       0       0
  3550 ;;      Locals:         0       0       0       0       0       0       0       0       0       0       0       0       
      +0       0       0       0       0
  3551 ;;      Temps:          0       0       0       0       0       0       0       0       0       0       0       0       
      +0       0       0       0       0
  3552 ;;      Totals:         0       0       0       0       0       0       0       0       0       0       0       0       
      +0       0       0       0       0
  3553 ;;Total ram usage:        0 bytes
  3554 ;; Hardware stack levels used: 1
  3555 ;; Hardware stack levels required when called: 1
  3556 ;; This function calls:
  3557 ;;		_ADC_ISR
  3558 ;;		_CCP1_ISR
  3559 ;;		_CCP2_ISR
  3560 ;;		_EUSART_RX_ISR
  3561 ;;		_EUSART_TX_ISR
  3562 ;;		_INT0_ISR
  3563 ;;		_INT1_ISR
  3564 ;;		_INT2_ISR
  3565 ;;		_MSSP_I2C_BC_ISR
  3566 ;;		_MSSP_I2C_ISR
  3567 ;;		_MSSP_SPI_ISR
  3568 ;;		_RB4_ISR
  3569 ;;		_RB5_ISR
  3570 ;;		_RB6_ISR
  3571 ;;		_RB7_ISR
  3572 ;;		_TMR0_ISR
  3573 ;;		_TMR1_ISR
  3574 ;;		_TMR2_ISR
  3575 ;;		_TMR3_ISR
  3576 ;; This function is called by:
  3577 ;;		Interrupt level 2
  3578 ;; This function uses a non-reentrant model
  3579 ;;
  3580                           
  3581                           	psect	intcode
  3582   000008                     __pintcode:
  3583                           	callstack 0
  3584   000008                     _InterruptManager:
  3585                           	callstack 22
  3586                           
  3587                           ;incstack = 0
  3588   000008  8274               	bsf	int$flags,1,c	;set compiler interrupt flag (level 2)
  3589   00000A  ED2C  F008         	call	int_func,f	;refresh shadow registers
  3590                           
  3591                           	psect	intcode_body
  3592   001058                     __pintcode_body:
  3593                           	callstack 22
  3594   001058                     int_func:
  3595                           	callstack 22
  3596   001058  0006               	pop		; remove dummy address from shadow register refresh
  3597   00105A                     
  3598                           ;MCAL_Layer/Interrupt/mcal_interrupt_manager.c: 34:     if((1 == INTCONbits.INT0IE) && (
      +                          1 == INTCONbits.INT0IF)){
  3599   00105A  A8F2               	btfss	242,4,c	;volatile
  3600   00105C  EF32  F008         	goto	i2u223_41
  3601   001060  EF34  F008         	goto	i2u223_40
  3602   001064                     i2u223_41:
  3603   001064  EF3D  F008         	goto	i2l1232
  3604   001068                     i2u223_40:
  3605   001068  A2F2               	btfss	242,1,c	;volatile
  3606   00106A  EF39  F008         	goto	i2u224_41
  3607   00106E  EF3B  F008         	goto	i2u224_40
  3608   001072                     i2u224_41:
  3609   001072  EF3D  F008         	goto	i2l1232
  3610   001076                     i2u224_40:
  3611   001076                     
  3612                           ;MCAL_Layer/Interrupt/mcal_interrupt_manager.c: 35:         INT0_ISR();
  3613   001076  EC03  F011         	call	_INT0_ISR	;wreg free
  3614   00107A                     i2l1232:
  3615                           
  3616                           ;MCAL_Layer/Interrupt/mcal_interrupt_manager.c: 38:     if((1 == INTCON3bits.INT1E) && (
      +                          1 == INTCON3bits.INT1F)){
  3617   00107A  A6F0               	btfss	240,3,c	;volatile
  3618   00107C  EF42  F008         	goto	i2u225_41
  3619   001080  EF44  F008         	goto	i2u225_40
  3620   001084                     i2u225_41:
  3621   001084  EF4D  F008         	goto	i2l1234
  3622   001088                     i2u225_40:
  3623   001088  A0F0               	btfss	240,0,c	;volatile
  3624   00108A  EF49  F008         	goto	i2u226_41
  3625   00108E  EF4B  F008         	goto	i2u226_40
  3626   001092                     i2u226_41:
  3627   001092  EF4D  F008         	goto	i2l1234
  3628   001096                     i2u226_40:
  3629   001096                     
  3630                           ;MCAL_Layer/Interrupt/mcal_interrupt_manager.c: 39:         INT1_ISR();
  3631   001096  EC01  F011         	call	_INT1_ISR	;wreg free
  3632   00109A                     i2l1234:
  3633                           
  3634                           ;MCAL_Layer/Interrupt/mcal_interrupt_manager.c: 42:     if((1 == INTCON3bits.INT2IE) && 
      +                          (1 == INTCON3bits.INT2IF)){
  3635   00109A  A8F0               	btfss	240,4,c	;volatile
  3636   00109C  EF52  F008         	goto	i2u227_41
  3637   0010A0  EF54  F008         	goto	i2u227_40
  3638   0010A4                     i2u227_41:
  3639   0010A4  EF5D  F008         	goto	i2l1236
  3640   0010A8                     i2u227_40:
  3641   0010A8  A2F0               	btfss	240,1,c	;volatile
  3642   0010AA  EF59  F008         	goto	i2u228_41
  3643   0010AE  EF5B  F008         	goto	i2u228_40
  3644   0010B2                     i2u228_41:
  3645   0010B2  EF5D  F008         	goto	i2l1236
  3646   0010B6                     i2u228_40:
  3647   0010B6                     
  3648                           ;MCAL_Layer/Interrupt/mcal_interrupt_manager.c: 43:         INT2_ISR();
  3649   0010B6  ECFF  F010         	call	_INT2_ISR	;wreg free
  3650   0010BA                     i2l1236:
  3651                           
  3652                           ;MCAL_Layer/Interrupt/mcal_interrupt_manager.c: 49:     if((1 == INTCONbits.RBIE) && (1 
      +                          == INTCONbits.RBIF) &&
  3653   0010BA  A6F2               	btfss	242,3,c	;volatile
  3654   0010BC  EF62  F008         	goto	i2u229_41
  3655   0010C0  EF64  F008         	goto	i2u229_40
  3656   0010C4                     i2u229_41:
  3657   0010C4  EF7F  F008         	goto	i2l1238
  3658   0010C8                     i2u229_40:
  3659   0010C8  A0F2               	btfss	242,0,c	;volatile
  3660   0010CA  EF69  F008         	goto	i2u230_41
  3661   0010CE  EF6B  F008         	goto	i2u230_40
  3662   0010D2                     i2u230_41:
  3663   0010D2  EF7F  F008         	goto	i2l1238
  3664   0010D6                     i2u230_40:
  3665   0010D6  A881               	btfss	129,4,c	;volatile
  3666   0010D8  EF70  F008         	goto	i2u231_41
  3667   0010DC  EF72  F008         	goto	i2u231_40
  3668   0010E0                     i2u231_41:
  3669   0010E0  EF7F  F008         	goto	i2l1238
  3670   0010E4                     i2u231_40:
  3671   0010E4  046D               	decf	_RB4_Flag^0,w,c	;volatile
  3672   0010E6  A4D8               	btfss	status,2,c
  3673   0010E8  EF78  F008         	goto	i2u232_41
  3674   0010EC  EF7A  F008         	goto	i2u232_40
  3675   0010F0                     i2u232_41:
  3676   0010F0  EF7F  F008         	goto	i2l1238
  3677   0010F4                     i2u232_40:
  3678   0010F4                     
  3679                           ;MCAL_Layer/Interrupt/mcal_interrupt_manager.c: 50:        (PORTBbits.RB4 == GPIO_HIGH) 
      +                          && (RB4_Flag == 1)){;MCAL_Layer/Interrupt/mcal_interrupt_manager.c: 51:         RB4_Flag
      +                           = 0;
  3680   0010F4  0E00               	movlw	0
  3681   0010F6  6E6D               	movwf	_RB4_Flag^0,c	;volatile
  3682   0010F8                     
  3683                           ;MCAL_Layer/Interrupt/mcal_interrupt_manager.c: 52:         RB4_ISR(0);
  3684   0010F8  0E00               	movlw	0
  3685   0010FA  ECC9  F010         	call	_RB4_ISR
  3686   0010FE                     i2l1238:
  3687                           
  3688                           ;MCAL_Layer/Interrupt/mcal_interrupt_manager.c: 55:     if((1 == INTCONbits.RBIE) && (1 
      +                          == INTCONbits.RBIF) &&
  3689   0010FE  A6F2               	btfss	242,3,c	;volatile
  3690   001100  EF84  F008         	goto	i2u233_41
  3691   001104  EF86  F008         	goto	i2u233_40
  3692   001108                     i2u233_41:
  3693   001108  EFA1  F008         	goto	i2l1240
  3694   00110C                     i2u233_40:
  3695   00110C  A0F2               	btfss	242,0,c	;volatile
  3696   00110E  EF8B  F008         	goto	i2u234_41
  3697   001112  EF8D  F008         	goto	i2u234_40
  3698   001116                     i2u234_41:
  3699   001116  EFA1  F008         	goto	i2l1240
  3700   00111A                     i2u234_40:
  3701   00111A  B881               	btfsc	129,4,c	;volatile
  3702   00111C  EF92  F008         	goto	i2u235_41
  3703   001120  EF94  F008         	goto	i2u235_40
  3704   001124                     i2u235_41:
  3705   001124  EFA1  F008         	goto	i2l1240
  3706   001128                     i2u235_40:
  3707   001128  506D               	movf	_RB4_Flag^0,w,c	;volatile
  3708   00112A  A4D8               	btfss	status,2,c
  3709   00112C  EF9A  F008         	goto	i2u236_41
  3710   001130  EF9C  F008         	goto	i2u236_40
  3711   001134                     i2u236_41:
  3712   001134  EFA1  F008         	goto	i2l1240
  3713   001138                     i2u236_40:
  3714   001138                     
  3715                           ;MCAL_Layer/Interrupt/mcal_interrupt_manager.c: 56:        (PORTBbits.RB4 == GPIO_LOW) &
      +                          & (RB4_Flag == 0)){;MCAL_Layer/Interrupt/mcal_interrupt_manager.c: 57:         RB4_Flag 
      +                          = 1;
  3716   001138  0E01               	movlw	1
  3717   00113A  6E6D               	movwf	_RB4_Flag^0,c	;volatile
  3718   00113C                     
  3719                           ;MCAL_Layer/Interrupt/mcal_interrupt_manager.c: 58:         RB4_ISR(1);
  3720   00113C  0E01               	movlw	1
  3721   00113E  ECC9  F010         	call	_RB4_ISR
  3722   001142                     i2l1240:
  3723                           
  3724                           ;MCAL_Layer/Interrupt/mcal_interrupt_manager.c: 61:     if((1 == INTCONbits.RBIE) && (1 
      +                          == INTCONbits.RBIF) &&
  3725   001142  A6F2               	btfss	242,3,c	;volatile
  3726   001144  EFA6  F008         	goto	i2u237_41
  3727   001148  EFA8  F008         	goto	i2u237_40
  3728   00114C                     i2u237_41:
  3729   00114C  EFC3  F008         	goto	i2l1242
  3730   001150                     i2u237_40:
  3731   001150  A0F2               	btfss	242,0,c	;volatile
  3732   001152  EFAD  F008         	goto	i2u238_41
  3733   001156  EFAF  F008         	goto	i2u238_40
  3734   00115A                     i2u238_41:
  3735   00115A  EFC3  F008         	goto	i2l1242
  3736   00115E                     i2u238_40:
  3737   00115E  AA81               	btfss	129,5,c	;volatile
  3738   001160  EFB4  F008         	goto	i2u239_41
  3739   001164  EFB6  F008         	goto	i2u239_40
  3740   001168                     i2u239_41:
  3741   001168  EFC3  F008         	goto	i2l1242
  3742   00116C                     i2u239_40:
  3743   00116C  046C               	decf	_RB5_Flag^0,w,c	;volatile
  3744   00116E  A4D8               	btfss	status,2,c
  3745   001170  EFBC  F008         	goto	i2u240_41
  3746   001174  EFBE  F008         	goto	i2u240_40
  3747   001178                     i2u240_41:
  3748   001178  EFC3  F008         	goto	i2l1242
  3749   00117C                     i2u240_40:
  3750   00117C                     
  3751                           ;MCAL_Layer/Interrupt/mcal_interrupt_manager.c: 62:        (PORTBbits.RB5 == GPIO_HIGH) 
      +                          && (RB5_Flag == 1)){;MCAL_Layer/Interrupt/mcal_interrupt_manager.c: 63:         RB5_Flag
      +                           = 0;
  3752   00117C  0E00               	movlw	0
  3753   00117E  6E6C               	movwf	_RB5_Flag^0,c	;volatile
  3754   001180                     
  3755                           ;MCAL_Layer/Interrupt/mcal_interrupt_manager.c: 64:         RB5_ISR(0);
  3756   001180  0E00               	movlw	0
  3757   001182  ECBC  F010         	call	_RB5_ISR
  3758   001186                     i2l1242:
  3759                           
  3760                           ;MCAL_Layer/Interrupt/mcal_interrupt_manager.c: 67:     if((1 == INTCONbits.RBIE) && (1 
      +                          == INTCONbits.RBIF) &&
  3761   001186  A6F2               	btfss	242,3,c	;volatile
  3762   001188  EFC8  F008         	goto	i2u241_41
  3763   00118C  EFCA  F008         	goto	i2u241_40
  3764   001190                     i2u241_41:
  3765   001190  EFE5  F008         	goto	i2l1244
  3766   001194                     i2u241_40:
  3767   001194  A0F2               	btfss	242,0,c	;volatile
  3768   001196  EFCF  F008         	goto	i2u242_41
  3769   00119A  EFD1  F008         	goto	i2u242_40
  3770   00119E                     i2u242_41:
  3771   00119E  EFE5  F008         	goto	i2l1244
  3772   0011A2                     i2u242_40:
  3773   0011A2  BA81               	btfsc	129,5,c	;volatile
  3774   0011A4  EFD6  F008         	goto	i2u243_41
  3775   0011A8  EFD8  F008         	goto	i2u243_40
  3776   0011AC                     i2u243_41:
  3777   0011AC  EFE5  F008         	goto	i2l1244
  3778   0011B0                     i2u243_40:
  3779   0011B0  506C               	movf	_RB5_Flag^0,w,c	;volatile
  3780   0011B2  A4D8               	btfss	status,2,c
  3781   0011B4  EFDE  F008         	goto	i2u244_41
  3782   0011B8  EFE0  F008         	goto	i2u244_40
  3783   0011BC                     i2u244_41:
  3784   0011BC  EFE5  F008         	goto	i2l1244
  3785   0011C0                     i2u244_40:
  3786   0011C0                     
  3787                           ;MCAL_Layer/Interrupt/mcal_interrupt_manager.c: 68:        (PORTBbits.RB5 == GPIO_LOW) &
      +                          & (RB5_Flag == 0)){;MCAL_Layer/Interrupt/mcal_interrupt_manager.c: 69:         RB5_Flag 
      +                          = 1;
  3788   0011C0  0E01               	movlw	1
  3789   0011C2  6E6C               	movwf	_RB5_Flag^0,c	;volatile
  3790   0011C4                     
  3791                           ;MCAL_Layer/Interrupt/mcal_interrupt_manager.c: 70:         RB5_ISR(1);
  3792   0011C4  0E01               	movlw	1
  3793   0011C6  ECBC  F010         	call	_RB5_ISR
  3794   0011CA                     i2l1244:
  3795                           
  3796                           ;MCAL_Layer/Interrupt/mcal_interrupt_manager.c: 73:     if((1 == INTCONbits.RBIE) && (1 
      +                          == INTCONbits.RBIF) &&
  3797   0011CA  A6F2               	btfss	242,3,c	;volatile
  3798   0011CC  EFEA  F008         	goto	i2u245_41
  3799   0011D0  EFEC  F008         	goto	i2u245_40
  3800   0011D4                     i2u245_41:
  3801   0011D4  EF07  F009         	goto	i2l1246
  3802   0011D8                     i2u245_40:
  3803   0011D8  A0F2               	btfss	242,0,c	;volatile
  3804   0011DA  EFF1  F008         	goto	i2u246_41
  3805   0011DE  EFF3  F008         	goto	i2u246_40
  3806   0011E2                     i2u246_41:
  3807   0011E2  EF07  F009         	goto	i2l1246
  3808   0011E6                     i2u246_40:
  3809   0011E6  AC81               	btfss	129,6,c	;volatile
  3810   0011E8  EFF8  F008         	goto	i2u247_41
  3811   0011EC  EFFA  F008         	goto	i2u247_40
  3812   0011F0                     i2u247_41:
  3813   0011F0  EF07  F009         	goto	i2l1246
  3814   0011F4                     i2u247_40:
  3815   0011F4  046B               	decf	_RB6_Flag^0,w,c	;volatile
  3816   0011F6  A4D8               	btfss	status,2,c
  3817   0011F8  EF00  F009         	goto	i2u248_41
  3818   0011FC  EF02  F009         	goto	i2u248_40
  3819   001200                     i2u248_41:
  3820   001200  EF07  F009         	goto	i2l1246
  3821   001204                     i2u248_40:
  3822   001204                     
  3823                           ;MCAL_Layer/Interrupt/mcal_interrupt_manager.c: 74:        (PORTBbits.RB6 == GPIO_HIGH) 
      +                          && (RB6_Flag == 1)){;MCAL_Layer/Interrupt/mcal_interrupt_manager.c: 75:         RB6_Flag
      +                           = 0;
  3824   001204  0E00               	movlw	0
  3825   001206  6E6B               	movwf	_RB6_Flag^0,c	;volatile
  3826   001208                     
  3827                           ;MCAL_Layer/Interrupt/mcal_interrupt_manager.c: 76:         RB6_ISR(0);
  3828   001208  0E00               	movlw	0
  3829   00120A  ECAF  F010         	call	_RB6_ISR
  3830   00120E                     i2l1246:
  3831                           
  3832                           ;MCAL_Layer/Interrupt/mcal_interrupt_manager.c: 79:     if((1 == INTCONbits.RBIE) && (1 
      +                          == INTCONbits.RBIF) &&
  3833   00120E  A6F2               	btfss	242,3,c	;volatile
  3834   001210  EF0C  F009         	goto	i2u249_41
  3835   001214  EF0E  F009         	goto	i2u249_40
  3836   001218                     i2u249_41:
  3837   001218  EF29  F009         	goto	i2l1248
  3838   00121C                     i2u249_40:
  3839   00121C  A0F2               	btfss	242,0,c	;volatile
  3840   00121E  EF13  F009         	goto	i2u250_41
  3841   001222  EF15  F009         	goto	i2u250_40
  3842   001226                     i2u250_41:
  3843   001226  EF29  F009         	goto	i2l1248
  3844   00122A                     i2u250_40:
  3845   00122A  BC81               	btfsc	129,6,c	;volatile
  3846   00122C  EF1A  F009         	goto	i2u251_41
  3847   001230  EF1C  F009         	goto	i2u251_40
  3848   001234                     i2u251_41:
  3849   001234  EF29  F009         	goto	i2l1248
  3850   001238                     i2u251_40:
  3851   001238  506B               	movf	_RB6_Flag^0,w,c	;volatile
  3852   00123A  A4D8               	btfss	status,2,c
  3853   00123C  EF22  F009         	goto	i2u252_41
  3854   001240  EF24  F009         	goto	i2u252_40
  3855   001244                     i2u252_41:
  3856   001244  EF29  F009         	goto	i2l1248
  3857   001248                     i2u252_40:
  3858   001248                     
  3859                           ;MCAL_Layer/Interrupt/mcal_interrupt_manager.c: 80:        (PORTBbits.RB6 == GPIO_LOW) &
      +                          & (RB6_Flag == 0)){;MCAL_Layer/Interrupt/mcal_interrupt_manager.c: 81:         RB6_Flag 
      +                          = 1;
  3860   001248  0E01               	movlw	1
  3861   00124A  6E6B               	movwf	_RB6_Flag^0,c	;volatile
  3862   00124C                     
  3863                           ;MCAL_Layer/Interrupt/mcal_interrupt_manager.c: 82:         RB6_ISR(1);
  3864   00124C  0E01               	movlw	1
  3865   00124E  ECAF  F010         	call	_RB6_ISR
  3866   001252                     i2l1248:
  3867                           
  3868                           ;MCAL_Layer/Interrupt/mcal_interrupt_manager.c: 85:     if((1 == INTCONbits.RBIE) && (1 
      +                          == INTCONbits.RBIF) &&
  3869   001252  A6F2               	btfss	242,3,c	;volatile
  3870   001254  EF2E  F009         	goto	i2u253_41
  3871   001258  EF30  F009         	goto	i2u253_40
  3872   00125C                     i2u253_41:
  3873   00125C  EF4B  F009         	goto	i2l1250
  3874   001260                     i2u253_40:
  3875   001260  A0F2               	btfss	242,0,c	;volatile
  3876   001262  EF35  F009         	goto	i2u254_41
  3877   001266  EF37  F009         	goto	i2u254_40
  3878   00126A                     i2u254_41:
  3879   00126A  EF4B  F009         	goto	i2l1250
  3880   00126E                     i2u254_40:
  3881   00126E  AE81               	btfss	129,7,c	;volatile
  3882   001270  EF3C  F009         	goto	i2u255_41
  3883   001274  EF3E  F009         	goto	i2u255_40
  3884   001278                     i2u255_41:
  3885   001278  EF4B  F009         	goto	i2l1250
  3886   00127C                     i2u255_40:
  3887   00127C  046A               	decf	_RB7_Flag^0,w,c	;volatile
  3888   00127E  A4D8               	btfss	status,2,c
  3889   001280  EF44  F009         	goto	i2u256_41
  3890   001284  EF46  F009         	goto	i2u256_40
  3891   001288                     i2u256_41:
  3892   001288  EF4B  F009         	goto	i2l1250
  3893   00128C                     i2u256_40:
  3894   00128C                     
  3895                           ;MCAL_Layer/Interrupt/mcal_interrupt_manager.c: 86:        (PORTBbits.RB7 == GPIO_HIGH) 
      +                          && (RB7_Flag == 1)){;MCAL_Layer/Interrupt/mcal_interrupt_manager.c: 87:         RB7_Flag
      +                           = 0;
  3896   00128C  0E00               	movlw	0
  3897   00128E  6E6A               	movwf	_RB7_Flag^0,c	;volatile
  3898   001290                     
  3899                           ;MCAL_Layer/Interrupt/mcal_interrupt_manager.c: 88:         RB7_ISR(0);
  3900   001290  0E00               	movlw	0
  3901   001292  ECA2  F010         	call	_RB7_ISR
  3902   001296                     i2l1250:
  3903                           
  3904                           ;MCAL_Layer/Interrupt/mcal_interrupt_manager.c: 91:     if((1 == INTCONbits.RBIE) && (1 
      +                          == INTCONbits.RBIF) &&
  3905   001296  A6F2               	btfss	242,3,c	;volatile
  3906   001298  EF50  F009         	goto	i2u257_41
  3907   00129C  EF52  F009         	goto	i2u257_40
  3908   0012A0                     i2u257_41:
  3909   0012A0  EF6D  F009         	goto	i2l1252
  3910   0012A4                     i2u257_40:
  3911   0012A4  A0F2               	btfss	242,0,c	;volatile
  3912   0012A6  EF57  F009         	goto	i2u258_41
  3913   0012AA  EF59  F009         	goto	i2u258_40
  3914   0012AE                     i2u258_41:
  3915   0012AE  EF6D  F009         	goto	i2l1252
  3916   0012B2                     i2u258_40:
  3917   0012B2  BE81               	btfsc	129,7,c	;volatile
  3918   0012B4  EF5E  F009         	goto	i2u259_41
  3919   0012B8  EF60  F009         	goto	i2u259_40
  3920   0012BC                     i2u259_41:
  3921   0012BC  EF6D  F009         	goto	i2l1252
  3922   0012C0                     i2u259_40:
  3923   0012C0  506A               	movf	_RB7_Flag^0,w,c	;volatile
  3924   0012C2  A4D8               	btfss	status,2,c
  3925   0012C4  EF66  F009         	goto	i2u260_41
  3926   0012C8  EF68  F009         	goto	i2u260_40
  3927   0012CC                     i2u260_41:
  3928   0012CC  EF6D  F009         	goto	i2l1252
  3929   0012D0                     i2u260_40:
  3930   0012D0                     
  3931                           ;MCAL_Layer/Interrupt/mcal_interrupt_manager.c: 92:        (PORTBbits.RB7 == GPIO_LOW) &
      +                          & (RB7_Flag == 0)){;MCAL_Layer/Interrupt/mcal_interrupt_manager.c: 93:         RB7_Flag 
      +                          = 1;
  3932   0012D0  0E01               	movlw	1
  3933   0012D2  6E6A               	movwf	_RB7_Flag^0,c	;volatile
  3934   0012D4                     
  3935                           ;MCAL_Layer/Interrupt/mcal_interrupt_manager.c: 94:         RB7_ISR(1);
  3936   0012D4  0E01               	movlw	1
  3937   0012D6  ECA2  F010         	call	_RB7_ISR
  3938   0012DA                     i2l1252:
  3939                           
  3940                           ;MCAL_Layer/Interrupt/mcal_interrupt_manager.c: 99:     if((1 == PIE1bits.ADIE) && (1 ==
      +                           PIR1bits.ADIF)){
  3941   0012DA  AC9D               	btfss	157,6,c	;volatile
  3942   0012DC  EF72  F009         	goto	i2u261_41
  3943   0012E0  EF74  F009         	goto	i2u261_40
  3944   0012E4                     i2u261_41:
  3945   0012E4  EF7D  F009         	goto	i2l1254
  3946   0012E8                     i2u261_40:
  3947   0012E8  AC9E               	btfss	158,6,c	;volatile
  3948   0012EA  EF79  F009         	goto	i2u262_41
  3949   0012EE  EF7B  F009         	goto	i2u262_40
  3950   0012F2                     i2u262_41:
  3951   0012F2  EF7D  F009         	goto	i2l1254
  3952   0012F6                     i2u262_40:
  3953   0012F6                     
  3954                           ;MCAL_Layer/Interrupt/mcal_interrupt_manager.c: 100:         ADC_ISR();
  3955   0012F6  EC0B  F011         	call	_ADC_ISR	;wreg free
  3956   0012FA                     i2l1254:
  3957                           
  3958                           ;MCAL_Layer/Interrupt/mcal_interrupt_manager.c: 104:     if((1 == INTCONbits.TMR0IE) && 
      +                          (1 == INTCONbits.TMR0IF)){
  3959   0012FA  AAF2               	btfss	242,5,c	;volatile
  3960   0012FC  EF82  F009         	goto	i2u263_41
  3961   001300  EF84  F009         	goto	i2u263_40
  3962   001304                     i2u263_41:
  3963   001304  EF8D  F009         	goto	i2l1256
  3964   001308                     i2u263_40:
  3965   001308  A4F2               	btfss	242,2,c	;volatile
  3966   00130A  EF89  F009         	goto	i2u264_41
  3967   00130E  EF8B  F009         	goto	i2u264_40
  3968   001312                     i2u264_41:
  3969   001312  EF8D  F009         	goto	i2l1256
  3970   001316                     i2u264_40:
  3971   001316                     
  3972                           ;MCAL_Layer/Interrupt/mcal_interrupt_manager.c: 105:         TMR0_ISR();
  3973   001316  ECF1  F010         	call	_TMR0_ISR	;wreg free
  3974   00131A                     i2l1256:
  3975                           
  3976                           ;MCAL_Layer/Interrupt/mcal_interrupt_manager.c: 108:     if((1 == PIE1bits.TMR1IE) && (1
      +                           == PIR1bits.TMR1IF)){
  3977   00131A  A09D               	btfss	157,0,c	;volatile
  3978   00131C  EF92  F009         	goto	i2u265_41
  3979   001320  EF94  F009         	goto	i2u265_40
  3980   001324                     i2u265_41:
  3981   001324  EF9D  F009         	goto	i2l1258
  3982   001328                     i2u265_40:
  3983   001328  A09E               	btfss	158,0,c	;volatile
  3984   00132A  EF99  F009         	goto	i2u266_41
  3985   00132E  EF9B  F009         	goto	i2u266_40
  3986   001332                     i2u266_41:
  3987   001332  EF9D  F009         	goto	i2l1258
  3988   001336                     i2u266_40:
  3989   001336                     
  3990                           ;MCAL_Layer/Interrupt/mcal_interrupt_manager.c: 109:         TMR1_ISR();
  3991   001336  ECEB  F010         	call	_TMR1_ISR	;wreg free
  3992   00133A                     i2l1258:
  3993                           
  3994                           ;MCAL_Layer/Interrupt/mcal_interrupt_manager.c: 112:     if((1 == PIE1bits.TMR2IE) && (1
      +                           == PIR1bits.TMR2IF)){
  3995   00133A  A29D               	btfss	157,1,c	;volatile
  3996   00133C  EFA2  F009         	goto	i2u267_41
  3997   001340  EFA4  F009         	goto	i2u267_40
  3998   001344                     i2u267_41:
  3999   001344  EFAD  F009         	goto	i2l1260
  4000   001348                     i2u267_40:
  4001   001348  A29E               	btfss	158,1,c	;volatile
  4002   00134A  EFA9  F009         	goto	i2u268_41
  4003   00134E  EFAB  F009         	goto	i2u268_40
  4004   001352                     i2u268_41:
  4005   001352  EFAD  F009         	goto	i2l1260
  4006   001356                     i2u268_40:
  4007   001356                     
  4008                           ;MCAL_Layer/Interrupt/mcal_interrupt_manager.c: 113:         TMR2_ISR();
  4009   001356  ECF7  F010         	call	_TMR2_ISR	;wreg free
  4010   00135A                     i2l1260:
  4011                           
  4012                           ;MCAL_Layer/Interrupt/mcal_interrupt_manager.c: 116:     if((1 == PIE2bits.TMR3IE) && (1
      +                           == PIR2bits.TMR3IF)){
  4013   00135A  A2A0               	btfss	160,1,c	;volatile
  4014   00135C  EFB2  F009         	goto	i2u269_41
  4015   001360  EFB4  F009         	goto	i2u269_40
  4016   001364                     i2u269_41:
  4017   001364  EFBD  F009         	goto	i2l1262
  4018   001368                     i2u269_40:
  4019   001368  A2A1               	btfss	161,1,c	;volatile
  4020   00136A  EFB9  F009         	goto	i2u270_41
  4021   00136E  EFBB  F009         	goto	i2u270_40
  4022   001372                     i2u270_41:
  4023   001372  EFBD  F009         	goto	i2l1262
  4024   001376                     i2u270_40:
  4025   001376                     
  4026                           ;MCAL_Layer/Interrupt/mcal_interrupt_manager.c: 117:         TMR3_ISR();
  4027   001376  ECE5  F010         	call	_TMR3_ISR	;wreg free
  4028   00137A                     i2l1262:
  4029                           
  4030                           ;MCAL_Layer/Interrupt/mcal_interrupt_manager.c: 121:     if((1 == PIE1bits.TXIE) && (1 =
      +                          = PIR1bits.TXIF)){
  4031   00137A  A89D               	btfss	157,4,c	;volatile
  4032   00137C  EFC2  F009         	goto	i2u271_41
  4033   001380  EFC4  F009         	goto	i2u271_40
  4034   001384                     i2u271_41:
  4035   001384  EFCD  F009         	goto	i2l1264
  4036   001388                     i2u271_40:
  4037   001388  A89E               	btfss	158,4,c	;volatile
  4038   00138A  EFC9  F009         	goto	i2u272_41
  4039   00138E  EFCB  F009         	goto	i2u272_40
  4040   001392                     i2u272_41:
  4041   001392  EFCD  F009         	goto	i2l1264
  4042   001396                     i2u272_40:
  4043   001396                     
  4044                           ;MCAL_Layer/Interrupt/mcal_interrupt_manager.c: 122:         EUSART_TX_ISR();
  4045   001396  EC05  F011         	call	_EUSART_TX_ISR	;wreg free
  4046   00139A                     i2l1264:
  4047                           
  4048                           ;MCAL_Layer/Interrupt/mcal_interrupt_manager.c: 125:     if((1 == PIE1bits.RCIE) && (1 =
      +                          = PIR1bits.RCIF)){
  4049   00139A  AA9D               	btfss	157,5,c	;volatile
  4050   00139C  EFD2  F009         	goto	i2u273_41
  4051   0013A0  EFD4  F009         	goto	i2u273_40
  4052   0013A4                     i2u273_41:
  4053   0013A4  EFDD  F009         	goto	i2l1266
  4054   0013A8                     i2u273_40:
  4055   0013A8  AA9E               	btfss	158,5,c	;volatile
  4056   0013AA  EFD9  F009         	goto	i2u274_41
  4057   0013AE  EFDB  F009         	goto	i2u274_40
  4058   0013B2                     i2u274_41:
  4059   0013B2  EFDD  F009         	goto	i2l1266
  4060   0013B6                     i2u274_40:
  4061   0013B6                     
  4062                           ;MCAL_Layer/Interrupt/mcal_interrupt_manager.c: 126:         EUSART_RX_ISR();
  4063   0013B6  EC0E  F011         	call	_EUSART_RX_ISR	;wreg free
  4064   0013BA                     i2l1266:
  4065                           
  4066                           ;MCAL_Layer/Interrupt/mcal_interrupt_manager.c: 131:     if((1 == PIE1bits.SSPIE) && (1 
      +                          == PIR1bits.SSPIF)){
  4067   0013BA  A69D               	btfss	157,3,c	;volatile
  4068   0013BC  EFE2  F009         	goto	i2u275_41
  4069   0013C0  EFE4  F009         	goto	i2u275_40
  4070   0013C4                     i2u275_41:
  4071   0013C4  EFED  F009         	goto	i2l1268
  4072   0013C8                     i2u275_40:
  4073   0013C8  A69E               	btfss	158,3,c	;volatile
  4074   0013CA  EFE9  F009         	goto	i2u276_41
  4075   0013CE  EFEB  F009         	goto	i2u276_40
  4076   0013D2                     i2u276_41:
  4077   0013D2  EFED  F009         	goto	i2l1268
  4078   0013D6                     i2u276_40:
  4079   0013D6                     
  4080                           ;MCAL_Layer/Interrupt/mcal_interrupt_manager.c: 132:         MSSP_I2C_ISR();
  4081   0013D6  ECFB  F010         	call	_MSSP_I2C_ISR	;wreg free
  4082   0013DA                     i2l1268:
  4083                           
  4084                           ;MCAL_Layer/Interrupt/mcal_interrupt_manager.c: 135:     if((1 == PIE2bits.BCLIE) && (1 
      +                          == PIR2bits.BCLIF)){
  4085   0013DA  A6A0               	btfss	160,3,c	;volatile
  4086   0013DC  EFF2  F009         	goto	i2u277_41
  4087   0013E0  EFF4  F009         	goto	i2u277_40
  4088   0013E4                     i2u277_41:
  4089   0013E4  EFFD  F009         	goto	i2l1270
  4090   0013E8                     i2u277_40:
  4091   0013E8  A6A1               	btfss	161,3,c	;volatile
  4092   0013EA  EFF9  F009         	goto	i2u278_41
  4093   0013EE  EFFB  F009         	goto	i2u278_40
  4094   0013F2                     i2u278_41:
  4095   0013F2  EFFD  F009         	goto	i2l1270
  4096   0013F6                     i2u278_40:
  4097   0013F6                     
  4098                           ;MCAL_Layer/Interrupt/mcal_interrupt_manager.c: 136:         MSSP_I2C_BC_ISR();
  4099   0013F6  ECFD  F010         	call	_MSSP_I2C_BC_ISR	;wreg free
  4100   0013FA                     i2l1270:
  4101                           
  4102                           ;MCAL_Layer/Interrupt/mcal_interrupt_manager.c: 139:     if((1 == PIE1bits.SSPIE) && (1 
      +                          == PIR1bits.SSPIF)){
  4103   0013FA  A69D               	btfss	157,3,c	;volatile
  4104   0013FC  EF02  F00A         	goto	i2u279_41
  4105   001400  EF04  F00A         	goto	i2u279_40
  4106   001404                     i2u279_41:
  4107   001404  EF0D  F00A         	goto	i2l1272
  4108   001408                     i2u279_40:
  4109   001408  A69E               	btfss	158,3,c	;volatile
  4110   00140A  EF09  F00A         	goto	i2u280_41
  4111   00140E  EF0B  F00A         	goto	i2u280_40
  4112   001412                     i2u280_41:
  4113   001412  EF0D  F00A         	goto	i2l1272
  4114   001416                     i2u280_40:
  4115   001416                     
  4116                           ;MCAL_Layer/Interrupt/mcal_interrupt_manager.c: 140:         MSSP_SPI_ISR();
  4117   001416  EC0D  F011         	call	_MSSP_SPI_ISR	;wreg free
  4118   00141A                     i2l1272:
  4119                           
  4120                           ;MCAL_Layer/Interrupt/mcal_interrupt_manager.c: 145:     if((1 == PIE1bits.CCP1IE) && (1
      +                           == PIR1bits.CCP1IF)){
  4121   00141A  A49D               	btfss	157,2,c	;volatile
  4122   00141C  EF12  F00A         	goto	i2u281_41
  4123   001420  EF14  F00A         	goto	i2u281_40
  4124   001424                     i2u281_41:
  4125   001424  EF1D  F00A         	goto	i2l1274
  4126   001428                     i2u281_40:
  4127   001428  A49E               	btfss	158,2,c	;volatile
  4128   00142A  EF19  F00A         	goto	i2u282_41
  4129   00142E  EF1B  F00A         	goto	i2u282_40
  4130   001432                     i2u282_41:
  4131   001432  EF1D  F00A         	goto	i2l1274
  4132   001436                     i2u282_40:
  4133   001436                     
  4134                           ;MCAL_Layer/Interrupt/mcal_interrupt_manager.c: 146:         CCP1_ISR();
  4135   001436  EC09  F011         	call	_CCP1_ISR	;wreg free
  4136   00143A                     i2l1274:
  4137                           
  4138                           ;MCAL_Layer/Interrupt/mcal_interrupt_manager.c: 149:     if((1 == PIE2bits.CCP2IE) && (1
      +                           == PIR2bits.CCP2IF)){
  4139   00143A  A0A0               	btfss	160,0,c	;volatile
  4140   00143C  EF22  F00A         	goto	i2u283_41
  4141   001440  EF24  F00A         	goto	i2u283_40
  4142   001444                     i2u283_41:
  4143   001444  EF2D  F00A         	goto	i2l1277
  4144   001448                     i2u283_40:
  4145   001448  A0A1               	btfss	161,0,c	;volatile
  4146   00144A  EF29  F00A         	goto	i2u284_41
  4147   00144E  EF2B  F00A         	goto	i2u284_40
  4148   001452                     i2u284_41:
  4149   001452  EF2D  F00A         	goto	i2l1277
  4150   001456                     i2u284_40:
  4151   001456                     
  4152                           ;MCAL_Layer/Interrupt/mcal_interrupt_manager.c: 150:         CCP2_ISR();
  4153   001456  EC07  F011         	call	_CCP2_ISR	;wreg free
  4154   00145A                     i2l1277:
  4155   00145A  9274               	bcf	int$flags,1,c	;clear compiler interrupt flag (level 2)
  4156   00145C  0011               	retfie		f
  4157   00145E                     __end_of_InterruptManager:
  4158                           	callstack 0
  4159                           
  4160 ;; *************** function _TMR3_ISR *****************
  4161 ;; Defined at:
  4162 ;;		line 102 in file "MCAL_Layer/Timer3/hal_timr3.c"
  4163 ;; Parameters:    Size  Location     Type
  4164 ;;		None
  4165 ;; Auto vars:     Size  Location     Type
  4166 ;;		None
  4167 ;; Return value:  Size  Location     Type
  4168 ;;                  1    wreg      void 
  4169 ;; Registers used:
  4170 ;;		wreg, status,2
  4171 ;; Tracked objects:
  4172 ;;		On entry : 0/0
  4173 ;;		On exit  : 0/0
  4174 ;;		Unchanged: 0/0
  4175 ;; Data sizes:     COMRAM   BANK0   BANK1   BANK2   BANK3   BANK4   BANK5   BANK6   BANK7   BANK8   BANK9  BANK10  BANK1
      +1  BANK12  BANK13  BANK14  BANK15
  4176 ;;      Params:         0       0       0       0       0       0       0       0       0       0       0       0       
      +0       0       0       0       0
  4177 ;;      Locals:         0       0       0       0       0       0       0       0       0       0       0       0       
      +0       0       0       0       0
  4178 ;;      Temps:          0       0       0       0       0       0       0       0       0       0       0       0       
      +0       0       0       0       0
  4179 ;;      Totals:         0       0       0       0       0       0       0       0       0       0       0       0       
      +0       0       0       0       0
  4180 ;;Total ram usage:        0 bytes
  4181 ;; Hardware stack levels used: 1
  4182 ;; This function calls:
  4183 ;;		Nothing
  4184 ;; This function is called by:
  4185 ;;		_InterruptManager
  4186 ;; This function uses a non-reentrant model
  4187 ;;
  4188                           
  4189                           	psect	text22
  4190   0021CA                     __ptext22:
  4191                           	callstack 0
  4192   0021CA                     _TMR3_ISR:
  4193                           	callstack 22
  4194   0021CA                     
  4195                           ;MCAL_Layer/Timer3/hal_timr3.c: 103:     (PIR2bits.TMR3IF = 0);
  4196   0021CA  92A1               	bcf	161,1,c	;volatile
  4197   0021CC                     
  4198                           ;MCAL_Layer/Timer3/hal_timr3.c: 104:     TMR3H = (timer3_preload) >> 8;
  4199   0021CC  500A               	movf	(_timer3_preload+1)^0,w,c
  4200   0021CE  6EB3               	movwf	179,c	;volatile
  4201   0021D0                     
  4202                           ;MCAL_Layer/Timer3/hal_timr3.c: 105:     TMR3L = (uint8)(timer3_preload);
  4203   0021D0  C009  FFB2         	movff	_timer3_preload,4018	;volatile
  4204   0021D4  0012               	return		;funcret
  4205   0021D6                     __end_of_TMR3_ISR:
  4206                           	callstack 0
  4207                           
  4208 ;; *************** function _TMR2_ISR *****************
  4209 ;; Defined at:
  4210 ;;		line 95 in file "MCAL_Layer/Timer2/hal_timr2.c"
  4211 ;; Parameters:    Size  Location     Type
  4212 ;;		None
  4213 ;; Auto vars:     Size  Location     Type
  4214 ;;		None
  4215 ;; Return value:  Size  Location     Type
  4216 ;;                  1    wreg      void 
  4217 ;; Registers used:
  4218 ;;		None
  4219 ;; Tracked objects:
  4220 ;;		On entry : 0/0
  4221 ;;		On exit  : 0/0
  4222 ;;		Unchanged: 0/0
  4223 ;; Data sizes:     COMRAM   BANK0   BANK1   BANK2   BANK3   BANK4   BANK5   BANK6   BANK7   BANK8   BANK9  BANK10  BANK1
      +1  BANK12  BANK13  BANK14  BANK15
  4224 ;;      Params:         0       0       0       0       0       0       0       0       0       0       0       0       
      +0       0       0       0       0
  4225 ;;      Locals:         0       0       0       0       0       0       0       0       0       0       0       0       
      +0       0       0       0       0
  4226 ;;      Temps:          0       0       0       0       0       0       0       0       0       0       0       0       
      +0       0       0       0       0
  4227 ;;      Totals:         0       0       0       0       0       0       0       0       0       0       0       0       
      +0       0       0       0       0
  4228 ;;Total ram usage:        0 bytes
  4229 ;; Hardware stack levels used: 1
  4230 ;; This function calls:
  4231 ;;		Nothing
  4232 ;; This function is called by:
  4233 ;;		_InterruptManager
  4234 ;; This function uses a non-reentrant model
  4235 ;;
  4236                           
  4237                           	psect	text23
  4238   0021EE                     __ptext23:
  4239                           	callstack 0
  4240   0021EE                     _TMR2_ISR:
  4241                           	callstack 22
  4242   0021EE                     
  4243                           ;MCAL_Layer/Timer2/hal_timr2.c: 96:     (PIR1bits.TMR2IF = 0);
  4244   0021EE  929E               	bcf	158,1,c	;volatile
  4245                           
  4246                           ;MCAL_Layer/Timer2/hal_timr2.c: 97:     TMR2 = timer2_preload;
  4247   0021F0  C037  FFCC         	movff	_timer2_preload,4044	;volatile
  4248   0021F4  0012               	return		;funcret
  4249   0021F6                     __end_of_TMR2_ISR:
  4250                           	callstack 0
  4251                           
  4252 ;; *************** function _TMR1_ISR *****************
  4253 ;; Defined at:
  4254 ;;		line 102 in file "MCAL_Layer/Timer1/hal_timr1.c"
  4255 ;; Parameters:    Size  Location     Type
  4256 ;;		None
  4257 ;; Auto vars:     Size  Location     Type
  4258 ;;		None
  4259 ;; Return value:  Size  Location     Type
  4260 ;;                  1    wreg      void 
  4261 ;; Registers used:
  4262 ;;		wreg, status,2
  4263 ;; Tracked objects:
  4264 ;;		On entry : 0/0
  4265 ;;		On exit  : 0/0
  4266 ;;		Unchanged: 0/0
  4267 ;; Data sizes:     COMRAM   BANK0   BANK1   BANK2   BANK3   BANK4   BANK5   BANK6   BANK7   BANK8   BANK9  BANK10  BANK1
      +1  BANK12  BANK13  BANK14  BANK15
  4268 ;;      Params:         0       0       0       0       0       0       0       0       0       0       0       0       
      +0       0       0       0       0
  4269 ;;      Locals:         0       0       0       0       0       0       0       0       0       0       0       0       
      +0       0       0       0       0
  4270 ;;      Temps:          0       0       0       0       0       0       0       0       0       0       0       0       
      +0       0       0       0       0
  4271 ;;      Totals:         0       0       0       0       0       0       0       0       0       0       0       0       
      +0       0       0       0       0
  4272 ;;Total ram usage:        0 bytes
  4273 ;; Hardware stack levels used: 1
  4274 ;; This function calls:
  4275 ;;		Nothing
  4276 ;; This function is called by:
  4277 ;;		_InterruptManager
  4278 ;; This function uses a non-reentrant model
  4279 ;;
  4280                           
  4281                           	psect	text24
  4282   0021D6                     __ptext24:
  4283                           	callstack 0
  4284   0021D6                     _TMR1_ISR:
  4285                           	callstack 22
  4286   0021D6                     
  4287                           ;MCAL_Layer/Timer1/hal_timr1.c: 103:     (PIR1bits.TMR1IF = 0);
  4288   0021D6  909E               	bcf	158,0,c	;volatile
  4289   0021D8                     
  4290                           ;MCAL_Layer/Timer1/hal_timr1.c: 104:     TMR1H = (timer1_preload) >> 8;
  4291   0021D8  5010               	movf	(_timer1_preload+1)^0,w,c	;volatile
  4292   0021DA  6ECF               	movwf	207,c	;volatile
  4293   0021DC                     
  4294                           ;MCAL_Layer/Timer1/hal_timr1.c: 105:     TMR1L = (uint8)(timer1_preload);
  4295   0021DC  C00F  FFCE         	movff	_timer1_preload,4046	;volatile
  4296   0021E0  0012               	return		;funcret
  4297   0021E2                     __end_of_TMR1_ISR:
  4298                           	callstack 0
  4299                           
  4300 ;; *************** function _TMR0_ISR *****************
  4301 ;; Defined at:
  4302 ;;		line 107 in file "MCAL_Layer/Timer0/hal_timr0.c"
  4303 ;; Parameters:    Size  Location     Type
  4304 ;;		None
  4305 ;; Auto vars:     Size  Location     Type
  4306 ;;		None
  4307 ;; Return value:  Size  Location     Type
  4308 ;;                  1    wreg      void 
  4309 ;; Registers used:
  4310 ;;		wreg, status,2
  4311 ;; Tracked objects:
  4312 ;;		On entry : 0/0
  4313 ;;		On exit  : 0/0
  4314 ;;		Unchanged: 0/0
  4315 ;; Data sizes:     COMRAM   BANK0   BANK1   BANK2   BANK3   BANK4   BANK5   BANK6   BANK7   BANK8   BANK9  BANK10  BANK1
      +1  BANK12  BANK13  BANK14  BANK15
  4316 ;;      Params:         0       0       0       0       0       0       0       0       0       0       0       0       
      +0       0       0       0       0
  4317 ;;      Locals:         0       0       0       0       0       0       0       0       0       0       0       0       
      +0       0       0       0       0
  4318 ;;      Temps:          0       0       0       0       0       0       0       0       0       0       0       0       
      +0       0       0       0       0
  4319 ;;      Totals:         0       0       0       0       0       0       0       0       0       0       0       0       
      +0       0       0       0       0
  4320 ;;Total ram usage:        0 bytes
  4321 ;; Hardware stack levels used: 1
  4322 ;; This function calls:
  4323 ;;		Nothing
  4324 ;; This function is called by:
  4325 ;;		_InterruptManager
  4326 ;; This function uses a non-reentrant model
  4327 ;;
  4328                           
  4329                           	psect	text25
  4330   0021E2                     __ptext25:
  4331                           	callstack 0
  4332   0021E2                     _TMR0_ISR:
  4333                           	callstack 22
  4334   0021E2                     
  4335                           ;MCAL_Layer/Timer0/hal_timr0.c: 108:     (INTCONbits.TMR0IF = 0);
  4336   0021E2  94F2               	bcf	242,2,c	;volatile
  4337   0021E4                     
  4338                           ;MCAL_Layer/Timer0/hal_timr0.c: 109:     TMR0H = (timer0_preload) >> 8;
  4339   0021E4  5014               	movf	(_timer0_preload+1)^0,w,c
  4340   0021E6  6ED7               	movwf	215,c	;volatile
  4341   0021E8                     
  4342                           ;MCAL_Layer/Timer0/hal_timr0.c: 110:     TMR0L = (uint8)(timer0_preload);
  4343   0021E8  C013  FFD6         	movff	_timer0_preload,4054	;volatile
  4344   0021EC  0012               	return		;funcret
  4345   0021EE                     __end_of_TMR0_ISR:
  4346                           	callstack 0
  4347                           
  4348 ;; *************** function _RB7_ISR *****************
  4349 ;; Defined at:
  4350 ;;		line 168 in file "MCAL_Layer/Interrupt/mcal_external_interrupt.c"
  4351 ;; Parameters:    Size  Location     Type
  4352 ;;  RB7_Source      1    wreg     unsigned char 
  4353 ;; Auto vars:     Size  Location     Type
  4354 ;;  RB7_Source      1    0[COMRAM] unsigned char 
  4355 ;; Return value:  Size  Location     Type
  4356 ;;                  1    wreg      void 
  4357 ;; Registers used:
  4358 ;;		wreg, status,2, status,0
  4359 ;; Tracked objects:
  4360 ;;		On entry : 0/0
  4361 ;;		On exit  : 0/0
  4362 ;;		Unchanged: 0/0
  4363 ;; Data sizes:     COMRAM   BANK0   BANK1   BANK2   BANK3   BANK4   BANK5   BANK6   BANK7   BANK8   BANK9  BANK10  BANK1
      +1  BANK12  BANK13  BANK14  BANK15
  4364 ;;      Params:         0       0       0       0       0       0       0       0       0       0       0       0       
      +0       0       0       0       0
  4365 ;;      Locals:         1       0       0       0       0       0       0       0       0       0       0       0       
      +0       0       0       0       0
  4366 ;;      Temps:          0       0       0       0       0       0       0       0       0       0       0       0       
      +0       0       0       0       0
  4367 ;;      Totals:         1       0       0       0       0       0       0       0       0       0       0       0       
      +0       0       0       0       0
  4368 ;;Total ram usage:        1 bytes
  4369 ;; Hardware stack levels used: 1
  4370 ;; This function calls:
  4371 ;;		Nothing
  4372 ;; This function is called by:
  4373 ;;		_InterruptManager
  4374 ;; This function uses a non-reentrant model
  4375 ;;
  4376                           
  4377                           	psect	text26
  4378   002144                     __ptext26:
  4379                           	callstack 0
  4380   002144                     _RB7_ISR:
  4381                           	callstack 22
  4382                           
  4383                           ;incstack = 0
  4384                           ;RB7_ISR@RB7_Source stored from wreg
  4385   002144  6E3F               	movwf	RB7_ISR@RB7_Source^0,c
  4386   002146                     
  4387                           ;MCAL_Layer/Interrupt/mcal_external_interrupt.c: 170:     (INTCONbits.RBIF = 0);
  4388   002146  90F2               	bcf	242,0,c	;volatile
  4389   002148                     
  4390                           ;MCAL_Layer/Interrupt/mcal_external_interrupt.c: 173:     if(0 == RB7_Source){
  4391   002148  503F               	movf	RB7_ISR@RB7_Source^0,w,c
  4392   00214A  A4D8               	btfss	status,2,c
  4393   00214C  EFAA  F010         	goto	i2u63_41
  4394   002150  EFAC  F010         	goto	i2u63_40
  4395   002154                     i2u63_41:
  4396   002154  EFAE  F010         	goto	i2l3122
  4397   002158                     i2u63_40:
  4398   002158  EFAE  F010         	goto	i2l1057
  4399   00215C                     i2l3122:
  4400   00215C                     i2l1057:
  4401   00215C  0012               	return		;funcret
  4402   00215E                     __end_of_RB7_ISR:
  4403                           	callstack 0
  4404                           
  4405 ;; *************** function _RB6_ISR *****************
  4406 ;; Defined at:
  4407 ;;		line 149 in file "MCAL_Layer/Interrupt/mcal_external_interrupt.c"
  4408 ;; Parameters:    Size  Location     Type
  4409 ;;  RB6_Source      1    wreg     unsigned char 
  4410 ;; Auto vars:     Size  Location     Type
  4411 ;;  RB6_Source      1    0[COMRAM] unsigned char 
  4412 ;; Return value:  Size  Location     Type
  4413 ;;                  1    wreg      void 
  4414 ;; Registers used:
  4415 ;;		wreg, status,2, status,0
  4416 ;; Tracked objects:
  4417 ;;		On entry : 0/0
  4418 ;;		On exit  : 0/0
  4419 ;;		Unchanged: 0/0
  4420 ;; Data sizes:     COMRAM   BANK0   BANK1   BANK2   BANK3   BANK4   BANK5   BANK6   BANK7   BANK8   BANK9  BANK10  BANK1
      +1  BANK12  BANK13  BANK14  BANK15
  4421 ;;      Params:         0       0       0       0       0       0       0       0       0       0       0       0       
      +0       0       0       0       0
  4422 ;;      Locals:         1       0       0       0       0       0       0       0       0       0       0       0       
      +0       0       0       0       0
  4423 ;;      Temps:          0       0       0       0       0       0       0       0       0       0       0       0       
      +0       0       0       0       0
  4424 ;;      Totals:         1       0       0       0       0       0       0       0       0       0       0       0       
      +0       0       0       0       0
  4425 ;;Total ram usage:        1 bytes
  4426 ;; Hardware stack levels used: 1
  4427 ;; This function calls:
  4428 ;;		Nothing
  4429 ;; This function is called by:
  4430 ;;		_InterruptManager
  4431 ;; This function uses a non-reentrant model
  4432 ;;
  4433                           
  4434                           	psect	text27
  4435   00215E                     __ptext27:
  4436                           	callstack 0
  4437   00215E                     _RB6_ISR:
  4438                           	callstack 22
  4439                           
  4440                           ;incstack = 0
  4441                           ;RB6_ISR@RB6_Source stored from wreg
  4442   00215E  6E3F               	movwf	RB6_ISR@RB6_Source^0,c
  4443   002160                     
  4444                           ;MCAL_Layer/Interrupt/mcal_external_interrupt.c: 151:     (INTCONbits.RBIF = 0);
  4445   002160  90F2               	bcf	242,0,c	;volatile
  4446   002162                     
  4447                           ;MCAL_Layer/Interrupt/mcal_external_interrupt.c: 154:     if(0 == RB6_Source){
  4448   002162  503F               	movf	RB6_ISR@RB6_Source^0,w,c
  4449   002164  A4D8               	btfss	status,2,c
  4450   002166  EFB7  F010         	goto	i2u62_41
  4451   00216A  EFB9  F010         	goto	i2u62_40
  4452   00216E                     i2u62_41:
  4453   00216E  EFBB  F010         	goto	i2l3108
  4454   002172                     i2u62_40:
  4455   002172  EFBB  F010         	goto	i2l1046
  4456   002176                     i2l3108:
  4457   002176                     i2l1046:
  4458   002176  0012               	return		;funcret
  4459   002178                     __end_of_RB6_ISR:
  4460                           	callstack 0
  4461                           
  4462 ;; *************** function _RB5_ISR *****************
  4463 ;; Defined at:
  4464 ;;		line 130 in file "MCAL_Layer/Interrupt/mcal_external_interrupt.c"
  4465 ;; Parameters:    Size  Location     Type
  4466 ;;  RB5_Source      1    wreg     unsigned char 
  4467 ;; Auto vars:     Size  Location     Type
  4468 ;;  RB5_Source      1    0[COMRAM] unsigned char 
  4469 ;; Return value:  Size  Location     Type
  4470 ;;                  1    wreg      void 
  4471 ;; Registers used:
  4472 ;;		wreg, status,2, status,0
  4473 ;; Tracked objects:
  4474 ;;		On entry : 0/0
  4475 ;;		On exit  : 0/0
  4476 ;;		Unchanged: 0/0
  4477 ;; Data sizes:     COMRAM   BANK0   BANK1   BANK2   BANK3   BANK4   BANK5   BANK6   BANK7   BANK8   BANK9  BANK10  BANK1
      +1  BANK12  BANK13  BANK14  BANK15
  4478 ;;      Params:         0       0       0       0       0       0       0       0       0       0       0       0       
      +0       0       0       0       0
  4479 ;;      Locals:         1       0       0       0       0       0       0       0       0       0       0       0       
      +0       0       0       0       0
  4480 ;;      Temps:          0       0       0       0       0       0       0       0       0       0       0       0       
      +0       0       0       0       0
  4481 ;;      Totals:         1       0       0       0       0       0       0       0       0       0       0       0       
      +0       0       0       0       0
  4482 ;;Total ram usage:        1 bytes
  4483 ;; Hardware stack levels used: 1
  4484 ;; This function calls:
  4485 ;;		Nothing
  4486 ;; This function is called by:
  4487 ;;		_InterruptManager
  4488 ;; This function uses a non-reentrant model
  4489 ;;
  4490                           
  4491                           	psect	text28
  4492   002178                     __ptext28:
  4493                           	callstack 0
  4494   002178                     _RB5_ISR:
  4495                           	callstack 22
  4496                           
  4497                           ;incstack = 0
  4498                           ;RB5_ISR@RB5_Source stored from wreg
  4499   002178  6E3F               	movwf	RB5_ISR@RB5_Source^0,c
  4500   00217A                     
  4501                           ;MCAL_Layer/Interrupt/mcal_external_interrupt.c: 132:     (INTCONbits.RBIF = 0);
  4502   00217A  90F2               	bcf	242,0,c	;volatile
  4503   00217C                     
  4504                           ;MCAL_Layer/Interrupt/mcal_external_interrupt.c: 135:     if(0 == RB5_Source){
  4505   00217C  503F               	movf	RB5_ISR@RB5_Source^0,w,c
  4506   00217E  A4D8               	btfss	status,2,c
  4507   002180  EFC4  F010         	goto	i2u61_41
  4508   002184  EFC6  F010         	goto	i2u61_40
  4509   002188                     i2u61_41:
  4510   002188  EFC8  F010         	goto	i2l3094
  4511   00218C                     i2u61_40:
  4512   00218C  EFC8  F010         	goto	i2l1035
  4513   002190                     i2l3094:
  4514   002190                     i2l1035:
  4515   002190  0012               	return		;funcret
  4516   002192                     __end_of_RB5_ISR:
  4517                           	callstack 0
  4518                           
  4519 ;; *************** function _RB4_ISR *****************
  4520 ;; Defined at:
  4521 ;;		line 111 in file "MCAL_Layer/Interrupt/mcal_external_interrupt.c"
  4522 ;; Parameters:    Size  Location     Type
  4523 ;;  RB4_Source      1    wreg     unsigned char 
  4524 ;; Auto vars:     Size  Location     Type
  4525 ;;  RB4_Source      1    0[COMRAM] unsigned char 
  4526 ;; Return value:  Size  Location     Type
  4527 ;;                  1    wreg      void 
  4528 ;; Registers used:
  4529 ;;		wreg, status,2, status,0
  4530 ;; Tracked objects:
  4531 ;;		On entry : 0/0
  4532 ;;		On exit  : 0/0
  4533 ;;		Unchanged: 0/0
  4534 ;; Data sizes:     COMRAM   BANK0   BANK1   BANK2   BANK3   BANK4   BANK5   BANK6   BANK7   BANK8   BANK9  BANK10  BANK1
      +1  BANK12  BANK13  BANK14  BANK15
  4535 ;;      Params:         0       0       0       0       0       0       0       0       0       0       0       0       
      +0       0       0       0       0
  4536 ;;      Locals:         1       0       0       0       0       0       0       0       0       0       0       0       
      +0       0       0       0       0
  4537 ;;      Temps:          0       0       0       0       0       0       0       0       0       0       0       0       
      +0       0       0       0       0
  4538 ;;      Totals:         1       0       0       0       0       0       0       0       0       0       0       0       
      +0       0       0       0       0
  4539 ;;Total ram usage:        1 bytes
  4540 ;; Hardware stack levels used: 1
  4541 ;; This function calls:
  4542 ;;		Nothing
  4543 ;; This function is called by:
  4544 ;;		_InterruptManager
  4545 ;; This function uses a non-reentrant model
  4546 ;;
  4547                           
  4548                           	psect	text29
  4549   002192                     __ptext29:
  4550                           	callstack 0
  4551   002192                     _RB4_ISR:
  4552                           	callstack 22
  4553                           
  4554                           ;incstack = 0
  4555                           ;RB4_ISR@RB4_Source stored from wreg
  4556   002192  6E3F               	movwf	RB4_ISR@RB4_Source^0,c
  4557   002194                     
  4558                           ;MCAL_Layer/Interrupt/mcal_external_interrupt.c: 113:     (INTCONbits.RBIF = 0);
  4559   002194  90F2               	bcf	242,0,c	;volatile
  4560   002196                     
  4561                           ;MCAL_Layer/Interrupt/mcal_external_interrupt.c: 116:     if(0 == RB4_Source){
  4562   002196  503F               	movf	RB4_ISR@RB4_Source^0,w,c
  4563   002198  A4D8               	btfss	status,2,c
  4564   00219A  EFD1  F010         	goto	i2u60_41
  4565   00219E  EFD3  F010         	goto	i2u60_40
  4566   0021A2                     i2u60_41:
  4567   0021A2  EFD5  F010         	goto	i2l3080
  4568   0021A6                     i2u60_40:
  4569   0021A6  EFD5  F010         	goto	i2l1024
  4570   0021AA                     i2l3080:
  4571   0021AA                     i2l1024:
  4572   0021AA  0012               	return		;funcret
  4573   0021AC                     __end_of_RB4_ISR:
  4574                           	callstack 0
  4575                           
  4576 ;; *************** function _MSSP_SPI_ISR *****************
  4577 ;; Defined at:
  4578 ;;		line 105 in file "MCAL_Layer/SPI/hal_spi.c"
  4579 ;; Parameters:    Size  Location     Type
  4580 ;;		None
  4581 ;; Auto vars:     Size  Location     Type
  4582 ;;		None
  4583 ;; Return value:  Size  Location     Type
  4584 ;;                  1    wreg      void 
  4585 ;; Registers used:
  4586 ;;		None
  4587 ;; Tracked objects:
  4588 ;;		On entry : 0/0
  4589 ;;		On exit  : 0/0
  4590 ;;		Unchanged: 0/0
  4591 ;; Data sizes:     COMRAM   BANK0   BANK1   BANK2   BANK3   BANK4   BANK5   BANK6   BANK7   BANK8   BANK9  BANK10  BANK1
      +1  BANK12  BANK13  BANK14  BANK15
  4592 ;;      Params:         0       0       0       0       0       0       0       0       0       0       0       0       
      +0       0       0       0       0
  4593 ;;      Locals:         0       0       0       0       0       0       0       0       0       0       0       0       
      +0       0       0       0       0
  4594 ;;      Temps:          0       0       0       0       0       0       0       0       0       0       0       0       
      +0       0       0       0       0
  4595 ;;      Totals:         0       0       0       0       0       0       0       0       0       0       0       0       
      +0       0       0       0       0
  4596 ;;Total ram usage:        0 bytes
  4597 ;; Hardware stack levels used: 1
  4598 ;; This function calls:
  4599 ;;		Nothing
  4600 ;; This function is called by:
  4601 ;;		_InterruptManager
  4602 ;; This function uses a non-reentrant model
  4603 ;;
  4604                           
  4605                           	psect	text30
  4606   00221A                     __ptext30:
  4607                           	callstack 0
  4608   00221A                     _MSSP_SPI_ISR:
  4609                           	callstack 22
  4610   00221A  0012               	return		;funcret
  4611   00221C                     __end_of_MSSP_SPI_ISR:
  4612                           	callstack 0
  4613                           
  4614 ;; *************** function _MSSP_I2C_ISR *****************
  4615 ;; Defined at:
  4616 ;;		line 242 in file "MCAL_Layer/I2C/hal_i2c.c"
  4617 ;; Parameters:    Size  Location     Type
  4618 ;;		None
  4619 ;; Auto vars:     Size  Location     Type
  4620 ;;		None
  4621 ;; Return value:  Size  Location     Type
  4622 ;;                  1    wreg      void 
  4623 ;; Registers used:
  4624 ;;		None
  4625 ;; Tracked objects:
  4626 ;;		On entry : 0/0
  4627 ;;		On exit  : 0/0
  4628 ;;		Unchanged: 0/0
  4629 ;; Data sizes:     COMRAM   BANK0   BANK1   BANK2   BANK3   BANK4   BANK5   BANK6   BANK7   BANK8   BANK9  BANK10  BANK1
      +1  BANK12  BANK13  BANK14  BANK15
  4630 ;;      Params:         0       0       0       0       0       0       0       0       0       0       0       0       
      +0       0       0       0       0
  4631 ;;      Locals:         0       0       0       0       0       0       0       0       0       0       0       0       
      +0       0       0       0       0
  4632 ;;      Temps:          0       0       0       0       0       0       0       0       0       0       0       0       
      +0       0       0       0       0
  4633 ;;      Totals:         0       0       0       0       0       0       0       0       0       0       0       0       
      +0       0       0       0       0
  4634 ;;Total ram usage:        0 bytes
  4635 ;; Hardware stack levels used: 1
  4636 ;; This function calls:
  4637 ;;		Nothing
  4638 ;; This function is called by:
  4639 ;;		_InterruptManager
  4640 ;; This function uses a non-reentrant model
  4641 ;;
  4642                           
  4643                           	psect	text31
  4644   0021F6                     __ptext31:
  4645                           	callstack 0
  4646   0021F6                     _MSSP_I2C_ISR:
  4647                           	callstack 22
  4648   0021F6                     
  4649                           ;MCAL_Layer/I2C/hal_i2c.c: 244:     (PIR1bits.SSPIF = 0);
  4650   0021F6  969E               	bcf	158,3,c	;volatile
  4651   0021F8  0012               	return		;funcret
  4652   0021FA                     __end_of_MSSP_I2C_ISR:
  4653                           	callstack 0
  4654                           
  4655 ;; *************** function _MSSP_I2C_BC_ISR *****************
  4656 ;; Defined at:
  4657 ;;		line 251 in file "MCAL_Layer/I2C/hal_i2c.c"
  4658 ;; Parameters:    Size  Location     Type
  4659 ;;		None
  4660 ;; Auto vars:     Size  Location     Type
  4661 ;;		None
  4662 ;; Return value:  Size  Location     Type
  4663 ;;                  1    wreg      void 
  4664 ;; Registers used:
  4665 ;;		None
  4666 ;; Tracked objects:
  4667 ;;		On entry : 0/0
  4668 ;;		On exit  : 0/0
  4669 ;;		Unchanged: 0/0
  4670 ;; Data sizes:     COMRAM   BANK0   BANK1   BANK2   BANK3   BANK4   BANK5   BANK6   BANK7   BANK8   BANK9  BANK10  BANK1
      +1  BANK12  BANK13  BANK14  BANK15
  4671 ;;      Params:         0       0       0       0       0       0       0       0       0       0       0       0       
      +0       0       0       0       0
  4672 ;;      Locals:         0       0       0       0       0       0       0       0       0       0       0       0       
      +0       0       0       0       0
  4673 ;;      Temps:          0       0       0       0       0       0       0       0       0       0       0       0       
      +0       0       0       0       0
  4674 ;;      Totals:         0       0       0       0       0       0       0       0       0       0       0       0       
      +0       0       0       0       0
  4675 ;;Total ram usage:        0 bytes
  4676 ;; Hardware stack levels used: 1
  4677 ;; This function calls:
  4678 ;;		Nothing
  4679 ;; This function is called by:
  4680 ;;		_InterruptManager
  4681 ;; This function uses a non-reentrant model
  4682 ;;
  4683                           
  4684                           	psect	text32
  4685   0021FA                     __ptext32:
  4686                           	callstack 0
  4687   0021FA                     _MSSP_I2C_BC_ISR:
  4688                           	callstack 22
  4689   0021FA                     
  4690                           ;MCAL_Layer/I2C/hal_i2c.c: 253:     (PIR2bits.BCLIF = 0);
  4691   0021FA  96A1               	bcf	161,3,c	;volatile
  4692   0021FC  0012               	return		;funcret
  4693   0021FE                     __end_of_MSSP_I2C_BC_ISR:
  4694                           	callstack 0
  4695                           
  4696 ;; *************** function _INT2_ISR *****************
  4697 ;; Defined at:
  4698 ;;		line 99 in file "MCAL_Layer/Interrupt/mcal_external_interrupt.c"
  4699 ;; Parameters:    Size  Location     Type
  4700 ;;		None
  4701 ;; Auto vars:     Size  Location     Type
  4702 ;;		None
  4703 ;; Return value:  Size  Location     Type
  4704 ;;                  1    wreg      void 
  4705 ;; Registers used:
  4706 ;;		None
  4707 ;; Tracked objects:
  4708 ;;		On entry : 0/0
  4709 ;;		On exit  : 0/0
  4710 ;;		Unchanged: 0/0
  4711 ;; Data sizes:     COMRAM   BANK0   BANK1   BANK2   BANK3   BANK4   BANK5   BANK6   BANK7   BANK8   BANK9  BANK10  BANK1
      +1  BANK12  BANK13  BANK14  BANK15
  4712 ;;      Params:         0       0       0       0       0       0       0       0       0       0       0       0       
      +0       0       0       0       0
  4713 ;;      Locals:         0       0       0       0       0       0       0       0       0       0       0       0       
      +0       0       0       0       0
  4714 ;;      Temps:          0       0       0       0       0       0       0       0       0       0       0       0       
      +0       0       0       0       0
  4715 ;;      Totals:         0       0       0       0       0       0       0       0       0       0       0       0       
      +0       0       0       0       0
  4716 ;;Total ram usage:        0 bytes
  4717 ;; Hardware stack levels used: 1
  4718 ;; This function calls:
  4719 ;;		Nothing
  4720 ;; This function is called by:
  4721 ;;		_InterruptManager
  4722 ;; This function uses a non-reentrant model
  4723 ;;
  4724                           
  4725                           	psect	text33
  4726   0021FE                     __ptext33:
  4727                           	callstack 0
  4728   0021FE                     _INT2_ISR:
  4729                           	callstack 22
  4730   0021FE                     
  4731                           ;MCAL_Layer/Interrupt/mcal_external_interrupt.c: 101:     (INTCON3bits.INT2IF = 0);
  4732   0021FE  92F0               	bcf	240,1,c	;volatile
  4733   002200  0012               	return		;funcret
  4734   002202                     __end_of_INT2_ISR:
  4735                           	callstack 0
  4736                           
  4737 ;; *************** function _INT1_ISR *****************
  4738 ;; Defined at:
  4739 ;;		line 90 in file "MCAL_Layer/Interrupt/mcal_external_interrupt.c"
  4740 ;; Parameters:    Size  Location     Type
  4741 ;;		None
  4742 ;; Auto vars:     Size  Location     Type
  4743 ;;		None
  4744 ;; Return value:  Size  Location     Type
  4745 ;;                  1    wreg      void 
  4746 ;; Registers used:
  4747 ;;		None
  4748 ;; Tracked objects:
  4749 ;;		On entry : 0/0
  4750 ;;		On exit  : 0/0
  4751 ;;		Unchanged: 0/0
  4752 ;; Data sizes:     COMRAM   BANK0   BANK1   BANK2   BANK3   BANK4   BANK5   BANK6   BANK7   BANK8   BANK9  BANK10  BANK1
      +1  BANK12  BANK13  BANK14  BANK15
  4753 ;;      Params:         0       0       0       0       0       0       0       0       0       0       0       0       
      +0       0       0       0       0
  4754 ;;      Locals:         0       0       0       0       0       0       0       0       0       0       0       0       
      +0       0       0       0       0
  4755 ;;      Temps:          0       0       0       0       0       0       0       0       0       0       0       0       
      +0       0       0       0       0
  4756 ;;      Totals:         0       0       0       0       0       0       0       0       0       0       0       0       
      +0       0       0       0       0
  4757 ;;Total ram usage:        0 bytes
  4758 ;; Hardware stack levels used: 1
  4759 ;; This function calls:
  4760 ;;		Nothing
  4761 ;; This function is called by:
  4762 ;;		_InterruptManager
  4763 ;; This function uses a non-reentrant model
  4764 ;;
  4765                           
  4766                           	psect	text34
  4767   002202                     __ptext34:
  4768                           	callstack 0
  4769   002202                     _INT1_ISR:
  4770                           	callstack 22
  4771   002202                     
  4772                           ;MCAL_Layer/Interrupt/mcal_external_interrupt.c: 92:     (INTCON3bits.INT1IF = 0);
  4773   002202  90F0               	bcf	240,0,c	;volatile
  4774   002204  0012               	return		;funcret
  4775   002206                     __end_of_INT1_ISR:
  4776                           	callstack 0
  4777                           
  4778 ;; *************** function _INT0_ISR *****************
  4779 ;; Defined at:
  4780 ;;		line 78 in file "MCAL_Layer/Interrupt/mcal_external_interrupt.c"
  4781 ;; Parameters:    Size  Location     Type
  4782 ;;		None
  4783 ;; Auto vars:     Size  Location     Type
  4784 ;;		None
  4785 ;; Return value:  Size  Location     Type
  4786 ;;                  1    wreg      void 
  4787 ;; Registers used:
  4788 ;;		None
  4789 ;; Tracked objects:
  4790 ;;		On entry : 0/0
  4791 ;;		On exit  : 0/0
  4792 ;;		Unchanged: 0/0
  4793 ;; Data sizes:     COMRAM   BANK0   BANK1   BANK2   BANK3   BANK4   BANK5   BANK6   BANK7   BANK8   BANK9  BANK10  BANK1
      +1  BANK12  BANK13  BANK14  BANK15
  4794 ;;      Params:         0       0       0       0       0       0       0       0       0       0       0       0       
      +0       0       0       0       0
  4795 ;;      Locals:         0       0       0       0       0       0       0       0       0       0       0       0       
      +0       0       0       0       0
  4796 ;;      Temps:          0       0       0       0       0       0       0       0       0       0       0       0       
      +0       0       0       0       0
  4797 ;;      Totals:         0       0       0       0       0       0       0       0       0       0       0       0       
      +0       0       0       0       0
  4798 ;;Total ram usage:        0 bytes
  4799 ;; Hardware stack levels used: 1
  4800 ;; This function calls:
  4801 ;;		Nothing
  4802 ;; This function is called by:
  4803 ;;		_InterruptManager
  4804 ;; This function uses a non-reentrant model
  4805 ;;
  4806                           
  4807                           	psect	text35
  4808   002206                     __ptext35:
  4809                           	callstack 0
  4810   002206                     _INT0_ISR:
  4811                           	callstack 22
  4812   002206                     
  4813                           ;MCAL_Layer/Interrupt/mcal_external_interrupt.c: 80:     (INTCONbits.INT0IF = 0);
  4814   002206  92F2               	bcf	242,1,c	;volatile
  4815   002208  0012               	return		;funcret
  4816   00220A                     __end_of_INT0_ISR:
  4817                           	callstack 0
  4818                           
  4819 ;; *************** function _EUSART_TX_ISR *****************
  4820 ;; Defined at:
  4821 ;;		line 243 in file "MCAL_Layer/usart/hal_usart.c"
  4822 ;; Parameters:    Size  Location     Type
  4823 ;;		None
  4824 ;; Auto vars:     Size  Location     Type
  4825 ;;		None
  4826 ;; Return value:  Size  Location     Type
  4827 ;;                  1    wreg      void 
  4828 ;; Registers used:
  4829 ;;		None
  4830 ;; Tracked objects:
  4831 ;;		On entry : 0/0
  4832 ;;		On exit  : 0/0
  4833 ;;		Unchanged: 0/0
  4834 ;; Data sizes:     COMRAM   BANK0   BANK1   BANK2   BANK3   BANK4   BANK5   BANK6   BANK7   BANK8   BANK9  BANK10  BANK1
      +1  BANK12  BANK13  BANK14  BANK15
  4835 ;;      Params:         0       0       0       0       0       0       0       0       0       0       0       0       
      +0       0       0       0       0
  4836 ;;      Locals:         0       0       0       0       0       0       0       0       0       0       0       0       
      +0       0       0       0       0
  4837 ;;      Temps:          0       0       0       0       0       0       0       0       0       0       0       0       
      +0       0       0       0       0
  4838 ;;      Totals:         0       0       0       0       0       0       0       0       0       0       0       0       
      +0       0       0       0       0
  4839 ;;Total ram usage:        0 bytes
  4840 ;; Hardware stack levels used: 1
  4841 ;; This function calls:
  4842 ;;		Nothing
  4843 ;; This function is called by:
  4844 ;;		_InterruptManager
  4845 ;; This function uses a non-reentrant model
  4846 ;;
  4847                           
  4848                           	psect	text36
  4849   00220A                     __ptext36:
  4850                           	callstack 0
  4851   00220A                     _EUSART_TX_ISR:
  4852                           	callstack 22
  4853   00220A                     
  4854                           ;MCAL_Layer/usart/hal_usart.c: 244:     (PIE1bits.TXIE = 0);
  4855   00220A  989D               	bcf	157,4,c	;volatile
  4856   00220C  0012               	return		;funcret
  4857   00220E                     __end_of_EUSART_TX_ISR:
  4858                           	callstack 0
  4859                           
  4860 ;; *************** function _EUSART_RX_ISR *****************
  4861 ;; Defined at:
  4862 ;;		line 250 in file "MCAL_Layer/usart/hal_usart.c"
  4863 ;; Parameters:    Size  Location     Type
  4864 ;;		None
  4865 ;; Auto vars:     Size  Location     Type
  4866 ;;		None
  4867 ;; Return value:  Size  Location     Type
  4868 ;;                  1    wreg      void 
  4869 ;; Registers used:
  4870 ;;		wreg, status,2, status,0
  4871 ;; Tracked objects:
  4872 ;;		On entry : 0/0
  4873 ;;		On exit  : 0/0
  4874 ;;		Unchanged: 0/0
  4875 ;; Data sizes:     COMRAM   BANK0   BANK1   BANK2   BANK3   BANK4   BANK5   BANK6   BANK7   BANK8   BANK9  BANK10  BANK1
      +1  BANK12  BANK13  BANK14  BANK15
  4876 ;;      Params:         0       0       0       0       0       0       0       0       0       0       0       0       
      +0       0       0       0       0
  4877 ;;      Locals:         0       0       0       0       0       0       0       0       0       0       0       0       
      +0       0       0       0       0
  4878 ;;      Temps:          0       0       0       0       0       0       0       0       0       0       0       0       
      +0       0       0       0       0
  4879 ;;      Totals:         0       0       0       0       0       0       0       0       0       0       0       0       
      +0       0       0       0       0
  4880 ;;Total ram usage:        0 bytes
  4881 ;; Hardware stack levels used: 1
  4882 ;; This function calls:
  4883 ;;		Nothing
  4884 ;; This function is called by:
  4885 ;;		_InterruptManager
  4886 ;; This function uses a non-reentrant model
  4887 ;;
  4888                           
  4889                           	psect	text37
  4890   00221C                     __ptext37:
  4891                           	callstack 0
  4892   00221C                     _EUSART_RX_ISR:
  4893                           	callstack 22
  4894   00221C  0012               	return		;funcret
  4895   00221E                     __end_of_EUSART_RX_ISR:
  4896                           	callstack 0
  4897                           
  4898 ;; *************** function _CCP2_ISR *****************
  4899 ;; Defined at:
  4900 ;;		line 260 in file "MCAL_Layer/CCP/hal_ccp.c"
  4901 ;; Parameters:    Size  Location     Type
  4902 ;;		None
  4903 ;; Auto vars:     Size  Location     Type
  4904 ;;		None
  4905 ;; Return value:  Size  Location     Type
  4906 ;;                  1    wreg      void 
  4907 ;; Registers used:
  4908 ;;		None
  4909 ;; Tracked objects:
  4910 ;;		On entry : 0/0
  4911 ;;		On exit  : 0/0
  4912 ;;		Unchanged: 0/0
  4913 ;; Data sizes:     COMRAM   BANK0   BANK1   BANK2   BANK3   BANK4   BANK5   BANK6   BANK7   BANK8   BANK9  BANK10  BANK1
      +1  BANK12  BANK13  BANK14  BANK15
  4914 ;;      Params:         0       0       0       0       0       0       0       0       0       0       0       0       
      +0       0       0       0       0
  4915 ;;      Locals:         0       0       0       0       0       0       0       0       0       0       0       0       
      +0       0       0       0       0
  4916 ;;      Temps:          0       0       0       0       0       0       0       0       0       0       0       0       
      +0       0       0       0       0
  4917 ;;      Totals:         0       0       0       0       0       0       0       0       0       0       0       0       
      +0       0       0       0       0
  4918 ;;Total ram usage:        0 bytes
  4919 ;; Hardware stack levels used: 1
  4920 ;; This function calls:
  4921 ;;		Nothing
  4922 ;; This function is called by:
  4923 ;;		_InterruptManager
  4924 ;; This function uses a non-reentrant model
  4925 ;;
  4926                           
  4927                           	psect	text38
  4928   00220E                     __ptext38:
  4929                           	callstack 0
  4930   00220E                     _CCP2_ISR:
  4931                           	callstack 22
  4932   00220E                     
  4933                           ;MCAL_Layer/CCP/hal_ccp.c: 261:     (PIR2bits.CCP2IF = 0);
  4934   00220E  90A1               	bcf	161,0,c	;volatile
  4935   002210  0012               	return		;funcret
  4936   002212                     __end_of_CCP2_ISR:
  4937                           	callstack 0
  4938                           
  4939 ;; *************** function _CCP1_ISR *****************
  4940 ;; Defined at:
  4941 ;;		line 252 in file "MCAL_Layer/CCP/hal_ccp.c"
  4942 ;; Parameters:    Size  Location     Type
  4943 ;;		None
  4944 ;; Auto vars:     Size  Location     Type
  4945 ;;		None
  4946 ;; Return value:  Size  Location     Type
  4947 ;;                  1    wreg      void 
  4948 ;; Registers used:
  4949 ;;		None
  4950 ;; Tracked objects:
  4951 ;;		On entry : 0/0
  4952 ;;		On exit  : 0/0
  4953 ;;		Unchanged: 0/0
  4954 ;; Data sizes:     COMRAM   BANK0   BANK1   BANK2   BANK3   BANK4   BANK5   BANK6   BANK7   BANK8   BANK9  BANK10  BANK1
      +1  BANK12  BANK13  BANK14  BANK15
  4955 ;;      Params:         0       0       0       0       0       0       0       0       0       0       0       0       
      +0       0       0       0       0
  4956 ;;      Locals:         0       0       0       0       0       0       0       0       0       0       0       0       
      +0       0       0       0       0
  4957 ;;      Temps:          0       0       0       0       0       0       0       0       0       0       0       0       
      +0       0       0       0       0
  4958 ;;      Totals:         0       0       0       0       0       0       0       0       0       0       0       0       
      +0       0       0       0       0
  4959 ;;Total ram usage:        0 bytes
  4960 ;; Hardware stack levels used: 1
  4961 ;; This function calls:
  4962 ;;		Nothing
  4963 ;; This function is called by:
  4964 ;;		_InterruptManager
  4965 ;; This function uses a non-reentrant model
  4966 ;;
  4967                           
  4968                           	psect	text39
  4969   002212                     __ptext39:
  4970                           	callstack 0
  4971   002212                     _CCP1_ISR:
  4972                           	callstack 22
  4973   002212                     
  4974                           ;MCAL_Layer/CCP/hal_ccp.c: 253:     (PIR1bits.CCP1IF = 0);
  4975   002212  949E               	bcf	158,2,c	;volatile
  4976   002214  0012               	return		;funcret
  4977   002216                     __end_of_CCP1_ISR:
  4978                           	callstack 0
  4979                           
  4980 ;; *************** function _ADC_ISR *****************
  4981 ;; Defined at:
  4982 ;;		line 296 in file "MCAL_Layer/ADC/hal_adc.c"
  4983 ;; Parameters:    Size  Location     Type
  4984 ;;		None
  4985 ;; Auto vars:     Size  Location     Type
  4986 ;;		None
  4987 ;; Return value:  Size  Location     Type
  4988 ;;                  1    wreg      void 
  4989 ;; Registers used:
  4990 ;;		None
  4991 ;; Tracked objects:
  4992 ;;		On entry : 0/0
  4993 ;;		On exit  : 0/0
  4994 ;;		Unchanged: 0/0
  4995 ;; Data sizes:     COMRAM   BANK0   BANK1   BANK2   BANK3   BANK4   BANK5   BANK6   BANK7   BANK8   BANK9  BANK10  BANK1
      +1  BANK12  BANK13  BANK14  BANK15
  4996 ;;      Params:         0       0       0       0       0       0       0       0       0       0       0       0       
      +0       0       0       0       0
  4997 ;;      Locals:         0       0       0       0       0       0       0       0       0       0       0       0       
      +0       0       0       0       0
  4998 ;;      Temps:          0       0       0       0       0       0       0       0       0       0       0       0       
      +0       0       0       0       0
  4999 ;;      Totals:         0       0       0       0       0       0       0       0       0       0       0       0       
      +0       0       0       0       0
  5000 ;;Total ram usage:        0 bytes
  5001 ;; Hardware stack levels used: 1
  5002 ;; This function calls:
  5003 ;;		Nothing
  5004 ;; This function is called by:
  5005 ;;		_InterruptManager
  5006 ;; This function uses a non-reentrant model
  5007 ;;
  5008                           
  5009                           	psect	text40
  5010   002216                     __ptext40:
  5011                           	callstack 0
  5012   002216                     _ADC_ISR:
  5013                           	callstack 22
  5014   002216                     
  5015                           ;MCAL_Layer/ADC/hal_adc.c: 297:     (PIR1bits.ADIF = 0);
  5016   002216  9C9E               	bcf	158,6,c	;volatile
  5017   002218  0012               	return		;funcret
  5018   00221A                     __end_of_ADC_ISR:
  5019                           	callstack 0
  5020                           
  5021                           	psect	text41
  5022   000000                     __ptext41:
  5023                           	callstack 0
  5024   000000                     
  5025                           	psect	rparam
  5026   000000                     
  5027                           	psect	temp
  5028   000074                     btemp:
  5029                           	callstack 0
  5030   000074                     	ds	1
  5031   000000                     int$flags	set	btemp
  5032   000000                     wtemp8	set	btemp+1
  5033   000000                     ttemp5	set	btemp+1
  5034   000000                     ttemp6	set	btemp+4
  5035   000000                     ttemp7	set	btemp+8
  5036                           
  5037                           	psect	idloc
  5038                           
  5039                           ;Config register IDLOC0 @ 0x200000
  5040                           ;	unspecified, using default values
  5041   200000                     	org	2097152
  5042   200000  FF                 	db	255
  5043                           
  5044                           ;Config register IDLOC1 @ 0x200001
  5045                           ;	unspecified, using default values
  5046   200001                     	org	2097153
  5047   200001  FF                 	db	255
  5048                           
  5049                           ;Config register IDLOC2 @ 0x200002
  5050                           ;	unspecified, using default values
  5051   200002                     	org	2097154
  5052   200002  FF                 	db	255
  5053                           
  5054                           ;Config register IDLOC3 @ 0x200003
  5055                           ;	unspecified, using default values
  5056   200003                     	org	2097155
  5057   200003  FF                 	db	255
  5058                           
  5059                           ;Config register IDLOC4 @ 0x200004
  5060                           ;	unspecified, using default values
  5061   200004                     	org	2097156
  5062   200004  FF                 	db	255
  5063                           
  5064                           ;Config register IDLOC5 @ 0x200005
  5065                           ;	unspecified, using default values
  5066   200005                     	org	2097157
  5067   200005  FF                 	db	255
  5068                           
  5069                           ;Config register IDLOC6 @ 0x200006
  5070                           ;	unspecified, using default values
  5071   200006                     	org	2097158
  5072   200006  FF                 	db	255
  5073                           
  5074                           ;Config register IDLOC7 @ 0x200007
  5075                           ;	unspecified, using default values
  5076   200007                     	org	2097159
  5077   200007  FF                 	db	255
  5078                           
  5079                           	psect	config
  5080                           
  5081                           ; Padding undefined space
  5082   300000                     	org	3145728
  5083   300000  FF                 	db	255
  5084                           
  5085                           ;Config register CONFIG1H @ 0x300001
  5086                           ;	Oscillator Selection bits
  5087                           ;	OSC = HS, HS oscillator
  5088                           ;	Fail-Safe Clock Monitor Enable bit
  5089                           ;	FCMEN = OFF, Fail-Safe Clock Monitor disabled
  5090                           ;	Internal/External Oscillator Switchover bit
  5091                           ;	IESO = OFF, Oscillator Switchover mode disabled
  5092   300001                     	org	3145729
  5093   300001  02                 	db	2
  5094                           
  5095                           ;Config register CONFIG2L @ 0x300002
  5096                           ;	Power-up Timer Enable bit
  5097                           ;	PWRT = OFF, PWRT disabled
  5098                           ;	Brown-out Reset Enable bits
  5099                           ;	BOREN = OFF, Brown-out Reset disabled in hardware and software
  5100                           ;	Brown Out Reset Voltage bits
  5101                           ;	BORV = 1, 
  5102   300002                     	org	3145730
  5103   300002  09                 	db	9
  5104                           
  5105                           ;Config register CONFIG2H @ 0x300003
  5106                           ;	Watchdog Timer Enable bit
  5107                           ;	WDT = OFF, WDT disabled (control is placed on the SWDTEN bit)
  5108                           ;	Watchdog Timer Postscale Select bits
  5109                           ;	WDTPS = 512, 1:512
  5110   300003                     	org	3145731
  5111   300003  12                 	db	18
  5112                           
  5113                           ; Padding undefined space
  5114   300004                     	org	3145732
  5115   300004  FF                 	db	255
  5116                           
  5117                           ;Config register CONFIG3H @ 0x300005
  5118                           ;	CCP2 MUX bit
  5119                           ;	CCP2MX = PORTC, CCP2 input/output is multiplexed with RC1
  5120                           ;	PORTB A/D Enable bit
  5121                           ;	PBADEN = OFF, PORTB<4:0> pins are configured as digital I/O on Reset
  5122                           ;	Low-Power Timer1 Oscillator Enable bit
  5123                           ;	LPT1OSC = OFF, Timer1 configured for higher power operation
  5124                           ;	MCLR Pin Enable bit
  5125                           ;	MCLRE = ON, MCLR pin enabled; RE3 input pin disabled
  5126   300005                     	org	3145733
  5127   300005  81                 	db	129
  5128                           
  5129                           ;Config register CONFIG4L @ 0x300006
  5130                           ;	Stack Full/Underflow Reset Enable bit
  5131                           ;	STVREN = ON, Stack full/underflow will cause Reset
  5132                           ;	Single-Supply ICSP Enable bit
  5133                           ;	LVP = OFF, Single-Supply ICSP disabled
  5134                           ;	Extended Instruction Set Enable bit
  5135                           ;	XINST = OFF, Instruction set extension and Indexed Addressing mode disabled (Legacy mo
      +                          de)
  5136                           ;	Background Debugger Enable bit
  5137                           ;	DEBUG = 0x1, unprogrammed default
  5138   300006                     	org	3145734
  5139   300006  81                 	db	129
  5140                           
  5141                           ; Padding undefined space
  5142   300007                     	org	3145735
  5143   300007  FF                 	db	255
  5144                           
  5145                           ;Config register CONFIG5L @ 0x300008
  5146                           ;	Code Protection bit
  5147                           ;	CP0 = OFF, Block 0 (000800-003FFFh) not code-protected
  5148                           ;	Code Protection bit
  5149                           ;	CP1 = OFF, Block 1 (004000-007FFFh) not code-protected
  5150                           ;	Code Protection bit
  5151                           ;	CP2 = OFF, Block 2 (008000-00BFFFh) not code-protected
  5152                           ;	Code Protection bit
  5153                           ;	CP3 = OFF, Block 3 (00C000-00FFFFh) not code-protected
  5154   300008                     	org	3145736
  5155   300008  0F                 	db	15
  5156                           
  5157                           ;Config register CONFIG5H @ 0x300009
  5158                           ;	Boot Block Code Protection bit
  5159                           ;	CPB = OFF, Boot block (000000-0007FFh) not code-protected
  5160                           ;	Data EEPROM Code Protection bit
  5161                           ;	CPD = OFF, Data EEPROM not code-protected
  5162   300009                     	org	3145737
  5163   300009  C0                 	db	192
  5164                           
  5165                           ;Config register CONFIG6L @ 0x30000A
  5166                           ;	Write Protection bit
  5167                           ;	WRT0 = OFF, Block 0 (000800-003FFFh) not write-protected
  5168                           ;	Write Protection bit
  5169                           ;	WRT1 = OFF, Block 1 (004000-007FFFh) not write-protected
  5170                           ;	Write Protection bit
  5171                           ;	WRT2 = OFF, Block 2 (008000-00BFFFh) not write-protected
  5172                           ;	Write Protection bit
  5173                           ;	WRT3 = OFF, Block 3 (00C000-00FFFFh) not write-protected
  5174   30000A                     	org	3145738
  5175   30000A  0F                 	db	15
  5176                           
  5177                           ;Config register CONFIG6H @ 0x30000B
  5178                           ;	Configuration Register Write Protection bit
  5179                           ;	WRTC = OFF, Configuration registers (300000-3000FFh) not write-protected
  5180                           ;	Boot Block Write Protection bit
  5181                           ;	WRTB = OFF, Boot Block (000000-0007FFh) not write-protected
  5182                           ;	Data EEPROM Write Protection bit
  5183                           ;	WRTD = OFF, Data EEPROM not write-protected
  5184   30000B                     	org	3145739
  5185   30000B  E0                 	db	224
  5186                           
  5187                           ;Config register CONFIG7L @ 0x30000C
  5188                           ;	Table Read Protection bit
  5189                           ;	EBTR0 = OFF, Block 0 (000800-003FFFh) not protected from table reads executed in other
      +                           blocks
  5190                           ;	Table Read Protection bit
  5191                           ;	EBTR1 = OFF, Block 1 (004000-007FFFh) not protected from table reads executed in other
      +                           blocks
  5192                           ;	Table Read Protection bit
  5193                           ;	EBTR2 = OFF, Block 2 (008000-00BFFFh) not protected from table reads executed in other
      +                           blocks
  5194                           ;	Table Read Protection bit
  5195                           ;	EBTR3 = OFF, Block 3 (00C000-00FFFFh) not protected from table reads executed in other
      +                           blocks
  5196   30000C                     	org	3145740
  5197   30000C  0F                 	db	15
  5198                           
  5199                           ;Config register CONFIG7H @ 0x30000D
  5200                           ;	Boot Block Table Read Protection bit
  5201                           ;	EBTRB = OFF, Boot Block (000000-0007FFh) not protected from table reads executed in ot
      +                          her blocks
  5202   30000D                     	org	3145741
  5203   30000D  40                 	db	64
  5204                           tosu	equ	0xFFF
  5205                           tosh	equ	0xFFE
  5206                           tosl	equ	0xFFD
  5207                           stkptr	equ	0xFFC
  5208                           pclatu	equ	0xFFB
  5209                           pclath	equ	0xFFA
  5210                           pcl	equ	0xFF9
  5211                           tblptru	equ	0xFF8
  5212                           tblptrh	equ	0xFF7
  5213                           tblptrl	equ	0xFF6
  5214                           tablat	equ	0xFF5
  5215                           prodh	equ	0xFF4
  5216                           prodl	equ	0xFF3
  5217                           indf0	equ	0xFEF
  5218                           postinc0	equ	0xFEE
  5219                           postdec0	equ	0xFED
  5220                           preinc0	equ	0xFEC
  5221                           plusw0	equ	0xFEB
  5222                           fsr0h	equ	0xFEA
  5223                           fsr0l	equ	0xFE9
  5224                           wreg	equ	0xFE8
  5225                           indf1	equ	0xFE7
  5226                           postinc1	equ	0xFE6
  5227                           postdec1	equ	0xFE5
  5228                           preinc1	equ	0xFE4
  5229                           plusw1	equ	0xFE3
  5230                           fsr1h	equ	0xFE2
  5231                           fsr1l	equ	0xFE1
  5232                           bsr	equ	0xFE0
  5233                           indf2	equ	0xFDF
  5234                           postinc2	equ	0xFDE
  5235                           postdec2	equ	0xFDD
  5236                           preinc2	equ	0xFDC
  5237                           plusw2	equ	0xFDB
  5238                           fsr2h	equ	0xFDA
  5239                           fsr2l	equ	0xFD9
  5240                           status	equ	0xFD8

Data Sizes:
    Strings     74
    Constant    12
    Data        59
    BSS         74
    Persistent  2
    Stack       0

Auto Spaces:
    Space          Size  Autos    Used
    COMRAM          126     35     115
    BANK0           128     11      66
    BANK1           256      0       0
    BANK2           256      0       0
    BANK3           256      0       0
    BANK4           256      0       0
    BANK5           256      0       0
    BANK6           256      0       0
    BANK7           256      0       0
    BANK8           256      0       0
    BANK9           256      0       0
    BANK10          256      0       0
    BANK11          256      0       0
    BANK12          256      0       0
    BANK13          256      0       0
    BANK14          256      0       0
    BANK15          128      0       0

Pointer List with Targets:

    vfprintf$2	PTR PTR void  size(2) Largest target is 2
		 -> sprintf@ap(COMRAM[2]), 

    vfprintf$1	PTR const unsigned char  size(2) Largest target is 3
		 -> STR_3(CODE[3]), STR_2(CODE[3]), STR_1(CODE[3]), 

    vfprintf$0	PTR struct _IO_FILE size(2) Largest target is 12
		 -> sprintf@f(COMRAM[12]), 

    S4886$source	PTR const unsigned char  size(2) Largest target is 0

    f...source	PTR const unsigned char  size(2) Largest target is 0

    S4886$buffer	PTR unsigned char  size(2) Largest target is 0

    f...buffer	PTR unsigned char  size(2) Largest target is 0

    interfaceHandler	PTR FTN()void  size(2) Largest target is 1
		 -> settingsUI(), passwordUI(), homeUI(), NULL(), 

    EUSART_OverrunErrorHandler	PTR FTN()void  size(2) Largest target is 1
		 -> NULL(), 

    EUSART_FramingErrorHandler	PTR FTN()void  size(2) Largest target is 1
		 -> NULL(), 

    EUSART_RxInterruptHandler	PTR FTN()void  size(2) Largest target is 1
		 -> NULL(), 

    EUSART_ASYNC_RX_Init@_eusart.EUSART_OverrunErrorHandler	PTR FTN()void  size(2) Largest target is 0

    EUSART_ASYNC_RX_Init@_eusart.EUSART_FramingErrorHandler	PTR FTN()void  size(2) Largest target is 0

    EUSART_ASYNC_RX_Init@_eusart.EUSART_RxDefaultInterruptHandler	PTR FTN()void  size(2) Largest target is 0

    EUSART_ASYNC_RX_Init@_eusart.EUSART_TxDefaultInterruptHandler	PTR FTN()void  size(2) Largest target is 0

    EUSART_TxInterruptHandler	PTR FTN()void  size(2) Largest target is 1
		 -> NULL(), 

    EUSART_ASYNC_TX_Init@_eusart.EUSART_OverrunErrorHandler	PTR FTN()void  size(2) Largest target is 0

    EUSART_ASYNC_TX_Init@_eusart.EUSART_FramingErrorHandler	PTR FTN()void  size(2) Largest target is 0

    EUSART_ASYNC_TX_Init@_eusart.EUSART_RxDefaultInterruptHandler	PTR FTN()void  size(2) Largest target is 0

    EUSART_ASYNC_TX_Init@_eusart.EUSART_TxDefaultInterruptHandler	PTR FTN()void  size(2) Largest target is 0

    S3963$EUSART_OverrunErrorHandler	PTR FTN()void  size(2) Largest target is 0

    EUSART_Baud_Rate_Calculation@_eusart.EUSART_OverrunErrorHandler	PTR FTN()void  size(2) Largest target is 0

    S3963$EUSART_FramingErrorHandler	PTR FTN()void  size(2) Largest target is 0

    EUSART_Baud_Rate_Calculation@_eusart.EUSART_FramingErrorHandler	PTR FTN()void  size(2) Largest target is 0

    S3963$EUSART_RxDefaultInterruptHandler	PTR FTN()void  size(2) Largest target is 0

    EUSART_Baud_Rate_Calculation@_eusart.EUSART_RxDefaultInterruptHandler	PTR FTN()void  size(2) Largest target is 0

    S3963$EUSART_TxDefaultInterruptHandler	PTR FTN()void  size(2) Largest target is 0

    EUSART_Baud_Rate_Calculation@_eusart.EUSART_TxDefaultInterruptHandler	PTR FTN()void  size(2) Largest target is 0

    Timer3_Mode_Select@_timer.TMR3_InterruptHandler	PTR FTN()void  size(2) Largest target is 0

    TMR3_InterruptHandler	PTR FTN()void  size(2) Largest target is 1
		 -> NULL(), 

    S3769$TMR3_InterruptHandler	PTR FTN()void  size(2) Largest target is 0

    Timer3_Init@_timer.TMR3_InterruptHandler	PTR FTN()void  size(2) Largest target is 0

    TMR2_InterruptHandler	PTR FTN()void  size(2) Largest target is 1
		 -> NULL(), 

    S3640$TMR2_InterruptHandler	PTR FTN()void  size(2) Largest target is 0

    Timer2_Init@_timer.TMR2_InterruptHandler	PTR FTN()void  size(2) Largest target is 0

    Timer1_Mode_Select@_timer.TMR1_InterruptHandler	PTR FTN()void  size(2) Largest target is 0

    TMR1_InterruptHandler	PTR FTN()volatile void  size(2) Largest target is 1
		 -> NULL(), 

    S3450$TMR1_InterruptHandler	PTR FTN()void  size(2) Largest target is 0

    Timer1_Init@_timer.TMR1_InterruptHandler	PTR FTN()void  size(2) Largest target is 0

    Timer0_Register_Size_Config@_timer.TMR0_InterruptHandler	PTR FTN()void  size(2) Largest target is 0

    Timer0_Mode_Select@_timer.TMR0_InterruptHandler	PTR FTN()void  size(2) Largest target is 0

    Timer0_Prescaler_Config@_timer.TMR0_InterruptHandler	PTR FTN()void  size(2) Largest target is 0

    TMR0_InterruptHandler	PTR FTN()void  size(2) Largest target is 1
		 -> NULL(), 

    S3285$TMR0_InterruptHandler	PTR FTN()void  size(2) Largest target is 0

    Timer0_Init@_timer.TMR0_InterruptHandler	PTR FTN()void  size(2) Largest target is 0

    Interrupt_INTx_SetInterruptHandler@int_obj.EXT_InterruptHandler	PTR FTN()void  size(2) Largest target is 0

    Interrupt_INTx_Clear_Flag@int_obj.EXT_InterruptHandler	PTR FTN()void  size(2) Largest target is 0

    Interrupt_INTx_Pin_Init@int_obj.EXT_InterruptHandler	PTR FTN()void  size(2) Largest target is 0

    Interrupt_INTx_Edge_Init@int_obj.EXT_InterruptHandler	PTR FTN()void  size(2) Largest target is 0

    Interrupt_INTx_Disable@int_obj.EXT_InterruptHandler	PTR FTN()void  size(2) Largest target is 0

    S2411$EXT_InterruptHandler	PTR FTN()void  size(2) Largest target is 0

    Interrupt_INTx_Enable@int_obj.EXT_InterruptHandler	PTR FTN()void  size(2) Largest target is 0

    S2527$EXT_InterruptHandler_LOW	PTR FTN()void  size(2) Largest target is 0

    Interrupt_RBx_Init@int_obj.EXT_InterruptHandler_LOW	PTR FTN()void  size(2) Largest target is 0

    S2527$EXT_InterruptHandler_HIGH	PTR FTN()void  size(2) Largest target is 0

    Interrupt_RBx_Init@int_obj.EXT_InterruptHandler_HIGH	PTR FTN()void  size(2) Largest target is 0

    RB7_InterruptHandler_LOW	PTR FTN()void  size(2) Largest target is 1
		 -> NULL(), 

    RB7_InterruptHandler_HIGH	PTR FTN()void  size(2) Largest target is 1
		 -> NULL(), 

    RB6_InterruptHandler_LOW	PTR FTN()void  size(2) Largest target is 1
		 -> NULL(), 

    RB6_InterruptHandler_HIGH	PTR FTN()void  size(2) Largest target is 1
		 -> NULL(), 

    RB5_InterruptHandler_LOW	PTR FTN()void  size(2) Largest target is 1
		 -> NULL(), 

    RB5_InterruptHandler_HIGH	PTR FTN()void  size(2) Largest target is 1
		 -> NULL(), 

    RB4_InterruptHandler_LOW	PTR FTN()void  size(2) Largest target is 1
		 -> NULL(), 

    RB4_InterruptHandler_HIGH	PTR FTN()void  size(2) Largest target is 1
		 -> NULL(), 

    INT2_InterruptHandler	PTR FTN()void  size(2) Largest target is 1
		 -> NULL(), 

    INT1_InterruptHandler	PTR FTN()void  size(2) Largest target is 1
		 -> NULL(), 

    INT0_InterruptHandler	PTR FTN()void  size(2) Largest target is 1
		 -> NULL(), 

    I2C_Report_Receive_Overflow_InterruptHandle	PTR FTN()void  size(2) Largest target is 1
		 -> NULL(), 

    MSSP_I2C_Interrupt_Configurations@i2c_obj.I2C_Report_Receive_Overflow	PTR FTN()void  size(2) Largest target is 0

    MSSP_I2C_Interrupt_Configurations@i2c_obj.I2C_DefaultInterruptHandler	PTR FTN()void  size(2) Largest target is 0

    MSSP_I2C_Interrupt_Configurations@i2c_obj.I2C_Report_Write_Collision	PTR FTN()void  size(2) Largest target is 0

    I2C_Slave_Mode_Configurations@i2c_obj.I2C_Report_Receive_Overflow	PTR FTN()void  size(2) Largest target is 0

    I2C_Slave_Mode_Configurations@i2c_obj.I2C_DefaultInterruptHandler	PTR FTN()void  size(2) Largest target is 0

    I2C_Slave_Mode_Configurations@i2c_obj.I2C_Report_Write_Collision	PTR FTN()void  size(2) Largest target is 0

    I2C_Master_Mode_Clock_Configurations@i2c_obj.I2C_Report_Receive_Overflow	PTR FTN()void  size(2) Largest target is 0

    I2C_Master_Mode_Clock_Configurations@i2c_obj.I2C_DefaultInterruptHandler	PTR FTN()void  size(2) Largest target is 0

    I2C_Master_Mode_Clock_Configurations@i2c_obj.I2C_Report_Write_Collision	PTR FTN()void  size(2) Largest target is 0

    I2C_Report_Write_Collision_InterruptHandler	PTR FTN()void  size(2) Largest target is 1
		 -> NULL(), 

    I2C_DefaultInterruptHandle	PTR FTN()void  size(2) Largest target is 1
		 -> NULL(), 

    S1890$I2C_Report_Receive_Overflow	PTR FTN()void  size(2) Largest target is 0

    MSSP_I2C_Init@i2c_obj.I2C_Report_Receive_Overflow	PTR FTN()void  size(2) Largest target is 0

    S1890$I2C_DefaultInterruptHandler	PTR FTN()void  size(2) Largest target is 0

    MSSP_I2C_Init@i2c_obj.I2C_DefaultInterruptHandler	PTR FTN()void  size(2) Largest target is 0

    S1890$I2C_Report_Write_Collision	PTR FTN()void  size(2) Largest target is 0

    MSSP_I2C_Init@i2c_obj.I2C_Report_Write_Collision	PTR FTN()void  size(2) Largest target is 0

    gpio_pin_intialize@_pin_config	PTR const struct . size(2) Largest target is 7
		 -> keypad1.keypad_row_pins(BANK0[4]), keypad1(BANK0[7]), lcd1.lcd_data(COMRAM[4]), lcd1(COMRAM[6]), 
		 -> relay_initialize@pin_obj(COMRAM[1]), led_initialize@pin_obj(COMRAM[1]), 

    gpio_pin_read_logic@logic	PTR enum E2936 size(2) Largest target is 1
		 -> Ultrasonic_Calculate_Distance@EchoPinLogic(COMRAM[1]), keypad_get_value@column_logic(COMRAM[1]), button_read_state@Pin_Logic_Status(COMRAM[1]), 

    gpio_pin_read_logic@_pin_config	PTR const struct . size(2) Largest target is 7
		 -> keypad1.keypad_columns_pins(BANK0[3]), keypad1(BANK0[7]), 

    gpio_pin_write_logic@_pin_config	PTR const struct . size(2) Largest target is 7
		 -> keypad1.keypad_row_pins(BANK0[4]), keypad1(BANK0[7]), lcd1.lcd_data(COMRAM[4]), lcd1(COMRAM[6]), 
		 -> relay_turn_off@pin_obj(COMRAM[1]), relay_turn_on@pin_obj(COMRAM[1]), relay_initialize@pin_obj(COMRAM[1]), led_turn_off@pin_obj(COMRAM[1]), 
		 -> led_turn_on@pin_obj(COMRAM[1]), led_initialize@pin_obj(COMRAM[1]), 

    gpio_pin_direction_intialize@_pin_config	PTR const struct . size(2) Largest target is 7
		 -> MSSP_SPI_Slave_Mode_GPIO_PIN_Configurations@SPI_SS(COMRAM[1]), MSSP_SPI_Slave_Mode_GPIO_PIN_Configurations@SPI_CLK(COMRAM[1]), MSSP_SPI_Slave_Mode_GPIO_PIN_Configurations@SPI_SDI(COMRAM[1]), MSSP_SPI_Slave_Mode_GPIO_PIN_Configurations@SPI_SDO(COMRAM[1]), 
		 -> MSSP_SPI_Msster_Mode_GPIO_PIN_Configurations@SPI_CLK(COMRAM[1]), MSSP_SPI_Msster_Mode_GPIO_PIN_Configurations@SPI_SDI(COMRAM[1]), MSSP_SPI_Msster_Mode_GPIO_PIN_Configurations@SPI_SDO(COMRAM[1]), keypad1.keypad_columns_pins(BANK0[3]), 
		 -> keypad1.keypad_row_pins(BANK0[4]), keypad1(BANK0[7]), lcd1.lcd_data(COMRAM[4]), lcd1(COMRAM[6]), 
		 -> relay_initialize@pin_obj(COMRAM[1]), led_initialize@pin_obj(COMRAM[1]), 

    port_registers	PTR volatile unsigned char [5] size(2) Largest target is 1
		 -> PORTE(BITBIGSFRlllll[1]), PORTD(BITBIGSFRlllll[1]), PORTC(BITBIGSFRlllll[1]), PORTB(BITBIGSFRlllll[1]), 
		 -> PORTA(BITBIGSFRlllll[1]), 

    lat_registers	PTR volatile unsigned char [5] size(2) Largest target is 1
		 -> LATE(BITBIGSFRllllh[1]), LATD(BITBIGSFRllllh[1]), LATC(BITBIGSFRllllh[1]), LATB(BITBIGSFRllllh[1]), 
		 -> LATA(BITBIGSFRlllll[1]), 

    tris_registers	PTR volatile unsigned char [5] size(2) Largest target is 1
		 -> TRISD(ABS[1]), TRISC(ABS[1]), TRISB(ABS[1]), TRISE(ABS[1]), 
		 -> TRISA(BITBIGSFRlllll[1]), 

    CCP_Compare_Mode_Config@_ccp_obj.CCP2_InterruptHandler	PTR FTN()void  size(2) Largest target is 0

    CCP_Compare_Mode_Config@_ccp_obj.CCP1_InterruptHandler	PTR FTN()void  size(2) Largest target is 0

    CCP_Capture_Mode_Config@_ccp_obj.CCP2_InterruptHandler	PTR FTN()void  size(2) Largest target is 0

    CCP_Capture_Mode_Config@_ccp_obj.CCP1_InterruptHandler	PTR FTN()void  size(2) Largest target is 0

    CCP_Mode_Timer_Select@_ccp_obj.CCP2_InterruptHandler	PTR FTN()void  size(2) Largest target is 0

    CCP_Mode_Timer_Select@_ccp_obj.CCP1_InterruptHandler	PTR FTN()void  size(2) Largest target is 0

    CCP_Interrupt_Config@_ccp_obj.CCP2_InterruptHandler	PTR FTN()void  size(2) Largest target is 0

    CCP_Interrupt_Config@_ccp_obj.CCP1_InterruptHandler	PTR FTN()void  size(2) Largest target is 0

    CCP_PWM_Mode_Config@_ccp_obj.CCP2_InterruptHandler	PTR FTN()void  size(2) Largest target is 0

    CCP_PWM_Mode_Config@_ccp_obj.CCP1_InterruptHandler	PTR FTN()void  size(2) Largest target is 0

    CCP2_InterruptHandler	PTR FTN()void  size(2) Largest target is 1
		 -> NULL(), 

    CCP1_InterruptHandler	PTR FTN()void  size(2) Largest target is 1
		 -> NULL(), 

    CCP_PWM_Stop@_ccp_obj.CCP2_InterruptHandler	PTR FTN()void  size(2) Largest target is 0

    CCP_PWM_Stop@_ccp_obj.CCP1_InterruptHandler	PTR FTN()void  size(2) Largest target is 0

    CCP_PWM_Start@_ccp_obj.CCP2_InterruptHandler	PTR FTN()void  size(2) Largest target is 0

    CCP_PWM_Start@_ccp_obj.CCP1_InterruptHandler	PTR FTN()void  size(2) Largest target is 0

    CCP_PWM_Set_Duty@_ccp_obj.CCP2_InterruptHandler	PTR FTN()void  size(2) Largest target is 0

    CCP_PWM_Set_Duty@_ccp_obj.CCP1_InterruptHandler	PTR FTN()void  size(2) Largest target is 0

    CCP_DeInit@_ccp_obj.CCP2_InterruptHandler	PTR FTN()void  size(2) Largest target is 0

    CCP_DeInit@_ccp_obj.CCP1_InterruptHandler	PTR FTN()void  size(2) Largest target is 0

    S1179$CCP2_InterruptHandler	PTR FTN()void  size(2) Largest target is 0

    CCP_Init@_ccp_obj.CCP2_InterruptHandler	PTR FTN()void  size(2) Largest target is 0

    S1179$CCP1_InterruptHandler	PTR FTN()void  size(2) Largest target is 0

    CCP_Init@_ccp_obj.CCP1_InterruptHandler	PTR FTN()void  size(2) Largest target is 0

    configure_voltage_reference@_adc.ADC_InterruptHandler	PTR FTN()void  size(2) Largest target is 0

    select_result_format@_adc.ADC_InterruptHandler	PTR FTN()void  size(2) Largest target is 0

    ADC_GetConversionResult@_adc.ADC_InterruptHandler	PTR FTN()void  size(2) Largest target is 0

    ADC_InterruptHandler	PTR FTN()void  size(2) Largest target is 1
		 -> NULL(), 

    S761$ADC_InterruptHandler	PTR FTN()void  size(2) Largest target is 0

    ADC_Init@_adc.ADC_InterruptHandler	PTR FTN()void  size(2) Largest target is 0

    keypad_get_value@value	PTR unsigned char  size(2) Largest target is 4
		 -> passwordUI@password(BANK0[4]), settingsUI@keypad_val(COMRAM[1]), homeUI@keypad_val(COMRAM[1]), 

    keypad_get_value@_keypad_obj	PTR const struct . size(2) Largest target is 7
		 -> keypad1(BANK0[7]), 

    keypad_initialize@_keypad_obj	PTR const struct . size(2) Largest target is 7
		 -> keypad1(BANK0[7]), 

    lcd_4bit_set_cursor@lcd	PTR const struct . size(2) Largest target is 6
		 -> lcd1(COMRAM[6]), 

    lcd_4bit_send_enable_signal@lcd	PTR const struct . size(2) Largest target is 6
		 -> lcd1(COMRAM[6]), 

    lcd_send_4bits@lcd	PTR const struct . size(2) Largest target is 6
		 -> lcd1(COMRAM[6]), 

    sp__memset	PTR void  size(2) Largest target is 0

    lcd_4bit_send_string_pos@str	PTR unsigned char  size(2) Largest target is 16
		 -> STR_10(CODE[15]), STR_9(CODE[7]), STR_8(CODE[16]), STR_7(CODE[7]), 
		 -> STR_6(CODE[9]), STR_5(CODE[11]), STR_4(CODE[13]), 

    lcd_4bit_send_string_pos@lcd	PTR const struct . size(2) Largest target is 6
		 -> lcd1(COMRAM[6]), 

    lcd_4bit_send_char_data_pos@lcd	PTR const struct . size(2) Largest target is 6
		 -> lcd1(COMRAM[6]), 

    lcd_4bit_send_char_data@lcd	PTR const struct . size(2) Largest target is 6
		 -> lcd1(COMRAM[6]), 

    lcd_4bit_send_command@lcd	PTR const struct . size(2) Largest target is 6
		 -> lcd1(COMRAM[6]), 

    lcd_4bit_clear@lcd	PTR const struct . size(2) Largest target is 6
		 -> lcd1(COMRAM[6]), 

    lcd_4bit_intialize@lcd	PTR const struct . size(2) Largest target is 6
		 -> lcd1(COMRAM[6]), 


Critical Paths under _main in COMRAM

    _mainUI->_passwordUI
    _settingsUI->_lcd_4bit_send_string_pos
    _passwordUI->_lcd_4bit_send_string_pos
    _lcd_4bit_send_char_data_pos->_lcd_4bit_set_cursor
    _homeUI->_lcd_4bit_send_string_pos
    _lcd_4bit_send_string_pos->_lcd_4bit_set_cursor
    _lcd_4bit_set_cursor->_lcd_4bit_send_command
    _lcd_4bit_send_char_data->_lcd_send_4bits
    _lcd_4bit_clear->_lcd_4bit_send_command
    _keypad_get_value->_gpio_pin_read_logic
    _keypad_get_value->_gpio_pin_write_logic
    _ecu_layer_intialize->_lcd_4bit_intialize
    _lcd_4bit_intialize->_lcd_4bit_send_command
    _lcd_4bit_send_command->_lcd_send_4bits
    _lcd_send_4bits->_gpio_pin_write_logic
    _lcd_4bit_send_enable_signal->_gpio_pin_write_logic
    _keypad_initialize->_gpio_pin_intialize
    _gpio_pin_intialize->_gpio_pin_write_logic

Critical Paths under _InterruptManager in COMRAM

    _InterruptManager->_RB4_ISR
    _InterruptManager->_RB5_ISR
    _InterruptManager->_RB6_ISR
    _InterruptManager->_RB7_ISR

Critical Paths under _main in BANK0

    _mainUI->_passwordUI

Critical Paths under _InterruptManager in BANK0

    None.

Critical Paths under _main in BANK1

    None.

Critical Paths under _InterruptManager in BANK1

    None.

Critical Paths under _main in BANK2

    None.

Critical Paths under _InterruptManager in BANK2

    None.

Critical Paths under _main in BANK3

    None.

Critical Paths under _InterruptManager in BANK3

    None.

Critical Paths under _main in BANK4

    None.

Critical Paths under _InterruptManager in BANK4

    None.

Critical Paths under _main in BANK5

    None.

Critical Paths under _InterruptManager in BANK5

    None.

Critical Paths under _main in BANK6

    None.

Critical Paths under _InterruptManager in BANK6

    None.

Critical Paths under _main in BANK7

    None.

Critical Paths under _InterruptManager in BANK7

    None.

Critical Paths under _main in BANK8

    None.

Critical Paths under _InterruptManager in BANK8

    None.

Critical Paths under _main in BANK9

    None.

Critical Paths under _InterruptManager in BANK9

    None.

Critical Paths under _main in BANK10

    None.

Critical Paths under _InterruptManager in BANK10

    None.

Critical Paths under _main in BANK11

    None.

Critical Paths under _InterruptManager in BANK11

    None.

Critical Paths under _main in BANK12

    None.

Critical Paths under _InterruptManager in BANK12

    None.

Critical Paths under _main in BANK13

    None.

Critical Paths under _InterruptManager in BANK13

    None.

Critical Paths under _main in BANK14

    None.

Critical Paths under _InterruptManager in BANK14

    None.

Critical Paths under _main in BANK15

    None.

Critical Paths under _InterruptManager in BANK15

    None.

Call Graph Tables:

 ---------------------------------------------------------------------------------
 (Depth) Function   	        Calls       Base Space   Used Autos Params    Refs
 ---------------------------------------------------------------------------------
 (0) _main                                                 0     0      0  329033
                _ecu_layer_intialize
                             _mainUI
 ---------------------------------------------------------------------------------
 (1) _mainUI                                               0     0      0  285556
                                NULL *
                             _homeUI *
                         _passwordUI *
                         _settingsUI *
 ---------------------------------------------------------------------------------
 (2) _settingsUI                                           2     2      0   79768
                                             33 COMRAM     1     1      0
                   _keypad_get_value
                     _lcd_4bit_clear
           _lcd_4bit_send_string_pos
 ---------------------------------------------------------------------------------
 (2) _passwordUI                                          13    13      0  126020
                                             33 COMRAM     2     2      0
                                              0 BANK0     11    11      0
                   _keypad_get_value
                     _lcd_4bit_clear
        _lcd_4bit_send_char_data_pos
           _lcd_4bit_send_string_pos
 ---------------------------------------------------------------------------------
 (3) _lcd_4bit_send_char_data_pos                          6     1      5   45971
                                             26 COMRAM     6     1      5
            _lcd_4bit_send_char_data
                _lcd_4bit_set_cursor
 ---------------------------------------------------------------------------------
 (2) _homeUI                                               2     2      0   79768
                                             33 COMRAM     1     1      0
                   _keypad_get_value
                     _lcd_4bit_clear
           _lcd_4bit_send_string_pos
 ---------------------------------------------------------------------------------
 (3) _lcd_4bit_send_string_pos                             7     1      6   47805
                                             26 COMRAM     7     1      6
            _lcd_4bit_send_char_data
                _lcd_4bit_set_cursor
 ---------------------------------------------------------------------------------
 (4) _lcd_4bit_set_cursor                                  7     3      4   23935
                                             19 COMRAM     7     3      4
              _lcd_4bit_send_command
 ---------------------------------------------------------------------------------
 (4) _lcd_4bit_send_char_data                              4     1      3   21087
                                             15 COMRAM     4     1      3
               _gpio_pin_write_logic
        _lcd_4bit_send_enable_signal
                     _lcd_send_4bits
 ---------------------------------------------------------------------------------
 (3) _lcd_4bit_clear                                       3     1      2   23498
                                             19 COMRAM     2     0      2
              _lcd_4bit_send_command
 ---------------------------------------------------------------------------------
 (3) _keypad_get_value                                    11     7      4    8379
                                             11 COMRAM    11     7      4
                _gpio_pin_read_logic
               _gpio_pin_write_logic
 ---------------------------------------------------------------------------------
 (4) _gpio_pin_read_logic                                 10     6      4     943
                                              1 COMRAM    10     6      4
 ---------------------------------------------------------------------------------
 (2) NULL(Fake)                                            0     0      0       0
 ---------------------------------------------------------------------------------
 (1) _ecu_layer_intialize                                  1     1      0   43477
                  _keypad_initialize
                 _lcd_4bit_intialize
 ---------------------------------------------------------------------------------
 (2) _lcd_4bit_intialize                                   6     4      2   32841
                                             19 COMRAM     6     4      2
                 _gpio_pin_intialize
              _lcd_4bit_send_command
 ---------------------------------------------------------------------------------
 (5) _lcd_4bit_send_command                                4     1      3   23067
                                             15 COMRAM     4     1      3
               _gpio_pin_write_logic
        _lcd_4bit_send_enable_signal
                     _lcd_send_4bits
 ---------------------------------------------------------------------------------
 (6) _lcd_send_4bits                                       4     1      3    7211
                                             11 COMRAM     4     1      3
               _gpio_pin_write_logic
 ---------------------------------------------------------------------------------
 (6) _lcd_4bit_send_enable_signal                          3     1      2    6659
                                             11 COMRAM     3     1      2
               _gpio_pin_write_logic
 ---------------------------------------------------------------------------------
 (2) _keypad_initialize                                    7     5      2   10627
                                             15 COMRAM     7     5      2
       _gpio_pin_direction_intialize
                 _gpio_pin_intialize
 ---------------------------------------------------------------------------------
 (3) _gpio_pin_intialize                                   4     2      2    9106
                                             11 COMRAM     4     2      2
       _gpio_pin_direction_intialize
               _gpio_pin_write_logic
 ---------------------------------------------------------------------------------
 (7) _gpio_pin_write_logic                                10     7      3    6197
                                              1 COMRAM    10     7      3
 ---------------------------------------------------------------------------------
 (4) _gpio_pin_direction_intialize                         9     7      2    1091
                                              1 COMRAM     9     7      2
 ---------------------------------------------------------------------------------
 Estimated maximum stack depth 7
 ---------------------------------------------------------------------------------
 (Depth) Function   	        Calls       Base Space   Used Autos Params    Refs
 ---------------------------------------------------------------------------------
 (8) _InterruptManager                                     0     0      0     120
                            _ADC_ISR
                           _CCP1_ISR
                           _CCP2_ISR
                      _EUSART_RX_ISR
                      _EUSART_TX_ISR
                           _INT0_ISR
                           _INT1_ISR
                           _INT2_ISR
                    _MSSP_I2C_BC_ISR
                       _MSSP_I2C_ISR
                       _MSSP_SPI_ISR
                            _RB4_ISR
                            _RB5_ISR
                            _RB6_ISR
                            _RB7_ISR
                           _TMR0_ISR
                           _TMR1_ISR
                           _TMR2_ISR
                           _TMR3_ISR
 ---------------------------------------------------------------------------------
 (9) _TMR3_ISR                                             0     0      0       0
 ---------------------------------------------------------------------------------
 (9) _TMR2_ISR                                             0     0      0       0
 ---------------------------------------------------------------------------------
 (9) _TMR1_ISR                                             0     0      0       0
 ---------------------------------------------------------------------------------
 (9) _TMR0_ISR                                             0     0      0       0
 ---------------------------------------------------------------------------------
 (9) _RB7_ISR                                              1     1      0      30
                                              0 COMRAM     1     1      0
 ---------------------------------------------------------------------------------
 (9) _RB6_ISR                                              1     1      0      30
                                              0 COMRAM     1     1      0
 ---------------------------------------------------------------------------------
 (9) _RB5_ISR                                              1     1      0      30
                                              0 COMRAM     1     1      0
 ---------------------------------------------------------------------------------
 (9) _RB4_ISR                                              1     1      0      30
                                              0 COMRAM     1     1      0
 ---------------------------------------------------------------------------------
 (9) _MSSP_SPI_ISR                                         0     0      0       0
 ---------------------------------------------------------------------------------
 (9) _MSSP_I2C_ISR                                         0     0      0       0
 ---------------------------------------------------------------------------------
 (9) _MSSP_I2C_BC_ISR                                      0     0      0       0
 ---------------------------------------------------------------------------------
 (9) _INT2_ISR                                             0     0      0       0
 ---------------------------------------------------------------------------------
 (9) _INT1_ISR                                             0     0      0       0
 ---------------------------------------------------------------------------------
 (9) _INT0_ISR                                             0     0      0       0
 ---------------------------------------------------------------------------------
 (9) _EUSART_TX_ISR                                        0     0      0       0
 ---------------------------------------------------------------------------------
 (9) _EUSART_RX_ISR                                        0     0      0       0
 ---------------------------------------------------------------------------------
 (9) _CCP2_ISR                                             0     0      0       0
 ---------------------------------------------------------------------------------
 (9) _CCP1_ISR                                             0     0      0       0
 ---------------------------------------------------------------------------------
 (9) _ADC_ISR                                              0     0      0       0
 ---------------------------------------------------------------------------------
 Estimated maximum stack depth 9
 ---------------------------------------------------------------------------------

 Call Graph Graphs:

 _main (ROOT)
   _ecu_layer_intialize
     _keypad_initialize
       _gpio_pin_direction_intialize
       _gpio_pin_intialize
         _gpio_pin_direction_intialize
         _gpio_pin_write_logic
     _lcd_4bit_intialize
       _gpio_pin_intialize
       _lcd_4bit_send_command
         _gpio_pin_write_logic
         _lcd_4bit_send_enable_signal
           _gpio_pin_write_logic
         _lcd_send_4bits
           _gpio_pin_write_logic
   _mainUI
     NULL(Fake) *
     _homeUI *
       _keypad_get_value
         _gpio_pin_read_logic
         _gpio_pin_write_logic
       _lcd_4bit_clear
         _lcd_4bit_send_command
       _lcd_4bit_send_string_pos
         _lcd_4bit_send_char_data
           _gpio_pin_write_logic
           _lcd_4bit_send_enable_signal
           _lcd_send_4bits
         _lcd_4bit_set_cursor
           _lcd_4bit_send_command
     _passwordUI *
       _keypad_get_value
       _lcd_4bit_clear
       _lcd_4bit_send_char_data_pos
         _lcd_4bit_send_char_data
         _lcd_4bit_set_cursor
       _lcd_4bit_send_string_pos
     _settingsUI *
       _keypad_get_value
       _lcd_4bit_clear
       _lcd_4bit_send_string_pos

 _InterruptManager (ROOT)
   _ADC_ISR
   _CCP1_ISR
   _CCP2_ISR
   _EUSART_RX_ISR
   _EUSART_TX_ISR
   _INT0_ISR
   _INT1_ISR
   _INT2_ISR
   _MSSP_I2C_BC_ISR
   _MSSP_I2C_ISR
   _MSSP_SPI_ISR
   _RB4_ISR
   _RB5_ISR
   _RB6_ISR
   _RB7_ISR
   _TMR0_ISR
   _TMR1_ISR
   _TMR2_ISR
   _TMR3_ISR

 Address spaces:
Name               Size   Autos  Total    Cost      Usage
BIGRAM             F7F      0       0      49        0.0%
EEDATA             400      0       0       0        0.0%
BITBANK14          100      0       0      33        0.0%
BANK14             100      0       0      34        0.0%
BITBANK13          100      0       0      31        0.0%
BANK13             100      0       0      32        0.0%
BITBANK12          100      0       0      29        0.0%
BANK12             100      0       0      30        0.0%
BITBANK11          100      0       0      27        0.0%
BANK11             100      0       0      28        0.0%
BITBANK10          100      0       0      25        0.0%
BANK10             100      0       0      26        0.0%
BITBANK9           100      0       0      23        0.0%
BANK9              100      0       0      24        0.0%
BITBANK8           100      0       0      21        0.0%
BANK8              100      0       0      22        0.0%
BITBANK7           100      0       0      19        0.0%
BANK7              100      0       0      20        0.0%
BITBANK6           100      0       0      17        0.0%
BANK6              100      0       0      18        0.0%
BITBANK5           100      0       0      15        0.0%
BANK5              100      0       0      16        0.0%
BITBANK4           100      0       0      13        0.0%
BANK4              100      0       0      14        0.0%
BITBANK3           100      0       0      10        0.0%
BANK3              100      0       0      11        0.0%
BITBANK2           100      0       0       8        0.0%
BANK2              100      0       0       9        0.0%
BITBANK1           100      0       0       6        0.0%
BANK1              100      0       0       7        0.0%
BITBANK15           80      0       0      35        0.0%
BANK15              80      0       0      36        0.0%
BITBANK0            80      0       0       4        0.0%
BANK0               80      B      42       5       51.6%
BITCOMRAM           7E      0       0       0        0.0%
COMRAM              7E     23      73       1       91.3%
BITBIGSFRhlhhlh     18      0       0      38        0.0%
BITBIGSFRhh          D      0       0      37        0.0%
BITBIGSFRlllhh       6      0       0      46        0.0%
BITBIGSFRhlhhll      5      0       0      39        0.0%
BITBIGSFRllhllh      4      0       0      43        0.0%
BITBIGSFRllllh       4      0       0      47        0.0%
BITBIGSFRllhllh      4      0       0      44        0.0%
BITBIGSFRlllll       4      0       0      48        0.0%
BITBIGSFRllhllh      1      0       0      42        0.0%
BITBIGSFRllhlh       1      0       0      41        0.0%
BITBIGSFRllhh        1      0       0      40        0.0%
BITBIGSFRllhlll      1      0       0      45        0.0%
BIGSFR               0      0       0     200        0.0%
BITSFR               0      0       0     200        0.0%
SFR                  0      0       0     200        0.0%
STACK                0      0       0       2        0.0%
NULL                 0      0       0       0        0.0%
ABS                  0      0      B5      12        0.0%
DATA                 0      0      B5       3        0.0%
CODE                 0      0       0       0        0.0%


Microchip Technology PIC18 Macro Assembler V2.41 build 20230208172133 
Symbol Table                                                                                   Mon Jul 10 02:13:22 2023

                               ??_InterruptManager 0040                                    ?_lcd_send_4bits 004A  
                                      _SSPSTATbits 0FC7                                                 l74 2128  
                                               l84 1E8A                                                 l69 182E  
                                               l79 1EFC                                                 l89 2078  
                                lcd_4bit_clear@lcd 0052                                                l105 1E18  
                                              l207 1BE0                                                l252 1DA0  
                                              l181 1FD0                                                l184 20AC  
                                              l363 2142                                                l267 1A80  
                                              l730 1702                                                l770 1F68  
                                              l756 1B38                                                l749 195A  
                                              _PR2 0FCB                               keypad_initialize@ret 0052  
                        _RB5_InterruptHandler_HIGH 0021                                    __end_of_ADC_ISR 221A  
              __end_of_lcd_4bit_send_enable_signal 20AE                        _lcd_4bit_send_enable_signal 207A  
                              led_initialize@F3016 003E                                                prod 0FF3  
                            relay_initialize@F3010 003A                                                tosl 0FFD  
                                              wreg 0FE8                        lcd_send_4bits@_data_command 004C  
                                  __end_of_RB4_ISR 21AC                                    __end_of_RB5_ISR 2192  
                                  __end_of_RB6_ISR 2178                                    __end_of_RB7_ISR 215E  
                                             l1717 21C6                                               l1751 1C80  
                                             l1757 1D20                                               l5310 1600  
                                             l5302 15C0                                               l5312 1662  
                                             l5304 15C4                                               l7000 14E2  
                                             l1769 15BE                                               l5306 15D6  
                                             l7010 154A                                               l7002 14FC  
                                             l5316 16BE                                               l5308 15F8  
                                             l7020 15A8                                               l7012 155A  
                                             l7004 1518                                               l5318 1700  
                                             l7014 156A                                               l7022 15B6  
                                             l7006 1544                                               l7016 1576  
                                             l7008 1548                                               l7018 1592  
                                             l7080 212A                                               l6610 1868  
                                             l7082 2136                                               l6612 1870  
                                             l6620 1958                                               l6604 1830  
                                             l6700 1B8C                                               l7084 20AE  
                                             l6614 18D2                                               l6606 1834  
                                             l6630 1F6A                                               l7078 212A  
                                             l6702 1BA4                                               l7086 20B8  
                                             l6608 1846                                               l6720 1F3A  
                                             l6712 1EFE                                               l6640 207A  
                                             l6632 1F80                                               l6800 19EC  
                                             l6704 1BDE                                               l6618 192E  
                                             l6722 1F66                                               l6714 1EFE  
                                             l6642 207A                                               l6634 1F98  
                                             l6650 1E8C                                               l6810 1A58  
                                             l6802 1A12                                               l6730 2114  
                                             l6716 1F10                                               l6644 208E  
                                             l6636 1FB2                                               l6628 1F6A  
                                             l6652 1E8C                                               l6812 1A5A  
                                             l6804 1A22                                               l6732 2118  
                                             l6740 204E                                               l6718 1F32  
                                             l6910 1D44                                               l6646 2094  
                                             l6654 1E9E                                               l6830 1742  
                                             l6822 1704                                               l6670 1ACC  
                                             l6662 1A82                                               l6814 1A6A  
                                             l6806 1A52                                               l6726 2102  
                                             l6750 1DB4                                               l6742 2076  
                                             l6734 2034                                               l6920 1D5A  
                                             l6904 1D22                                               l6656 1EA6  
                                             l6840 1764                                               l6824 1708  
                                             l6672 1AD4                                               l6664 1A86  
                                             l6816 1A6C                                               l6728 2102  
                                             l6680 1E1A                                               l6760 1E16  
                                             l6752 1DBC                                               l6736 2034  
                                             l6930 1D8C                                               l6922 1D6A  
                                             l6906 1D2A                                               l6658 1EFA  
                                             l6850 17BA                                               l6842 1774  
                                             l6826 171A                                               l6674 1B36  
                                             l6666 1A98                                               l6770 1990  
                                             l6682 1E2C                                               l7554 1BB8  
                                             l6690 1B3A                                               l6754 1DD6  
                                             l6746 1DA2                                               l6738 2046  
                                             l7490 21C2                                               l7556 1942  
                                             l6932 1D8E                                               l6916 1D48  
                                             l6908 1D3C                                               l6860 180A  
                                             l6852 17CA                                               l6844 1784  
                                             l6836 1746                                               l6828 1722  
                                             l6668 1AAA                                               l6772 1998  
                                             l6764 195C                                               l6684 1E34  
                                             l6692 1B3E                                               l6756 1DF4  
                                             l6748 1DA2                                               l6940 1BF2  
                                             l7558 16EA                                               l6918 1D58  
                                             l6934 1D9E                                               l6862 181A  
                                             l6854 17DA                                               l6846 1794  
                                             l6838 1762                                               l6790 19C6  
                                             l6766 196C                                               l6686 1E88  
                                             l6678 1E1A                                               l6694 1B44  
                                             l6758 1DF8                                               l6950 1C4E  
                                             l6942 1BFE                                               l6928 1D6E  
                                             l6856 17EA                                               l6848 17B4  
                                             l6864 182C                                               l6792 19DA  
                                             l6784 19A0                                               l6768 197E  
                                             l6696 1B5C                                               l6960 1C82  
                                             l6952 1C60                                               l6944 1C02  
                                             l7488 21BE                                               l6858 17FA  
                                             l6794 19E8                                               l6786 19B4  
                                             l6778 199C                                               l6698 1B74  
                                             l6970 1CDA                                               l6962 1C92  
                                             l6954 1C6A                                               l6946 1C1E  
                                             l6938 1BE2                                               l6788 19B6  
                                             l6980 1D1C                                               l6972 1CEE  
                                             l6964 1C9E                                               l6956 1C72  
                                             l6948 1C3A                                               l6974 1D00  
                                             l6966 1CA2                                               l6958 1C7C  
                                             l6990 14B0                                               l6982 145E  
                                             l6976 1D0A                                               l6968 1CBE  
                                             l6992 14CC                                               l6984 1470  
                                             l6978 1D12                                               l6986 1488  
                                             l6988 1494                                               l6998 14D2  
                                             STR_1 1054                                               STR_4 102C  
                                             STR_5 1039                                               STR_6 1044  
                                             STR_7 104D                                               STR_8 100D  
                                             STR_9 104D                                               _LATA 0F89  
                                             _LATB 0F8A                                               _LATC 0F8B  
                                             _LATD 0F8C                                               _LATE 0F8D  
                                             u5010 1E2C                                               u5011 1E28  
                                             u5020 1F10                                               u5004 1B22  
                                             u5100 19C6                                               u5021 1F0C  
                                             u5005 1B1E                                               u5101 19C2  
                                             u5030 1F32                                               u5110 1A22  
                                             u5031 1F2E                                               u5111 1A1E  
                                             u5200 1D6A                                               u5120 1A6A  
                                             u5040 2114                                               u5201 1D66  
                                             u5121 1A66                                               u5041 2110  
                                             u5210 1D9E                                               u5130 1A7C  
                                             u5050 2046                                               u5211 1D9A  
                                             u5131 1A78                                               u5051 2042  
                                             u3540 15D6                                               u5140 171A  
                                             u5060 1DB4                                               u5220 1BF2  
                                             u3541 15D2                                               u5141 1716  
                                             u5061 1DB0                                               u5221 1BEE  
                                             u3550 15F8                                               u5150 1774  
                                             u5070 1E16                                               u5230 1C60  
                                             u3551 15F4                                               u5151 1770  
                                             u5071 1E12                                               u5231 1C5C  
                                             u5080 197E                                               u5240 1C92  
                                             u5081 197A                                               u5241 1C8E  
                                             u5090 1990                                               u5250 1D00  
                                             u5091 198C                                               u5251 1CFC  
                                             u3580 16D6                                               u3564 1620  
                                             u5260 1544                                               u3581 16D0  
                                             u3565 161C                                               u5261 1540  
                                             u3590 16D8                                               u3574 1682  
                                             u5190 1D3C                                               u5270 155A  
                                             u3575 167E                                               u5191 1D38  
                                             u5271 1556                                               u5280 156A  
                                             u5281 1566                                               u5358 20BE  
                                             u5359 20D2                                               u4920 1846  
                                             u4921 1842                                               u4930 1868  
                                             u4931 1864                                               u4944 1890  
                                             u4960 1E9E                                               u4945 188C  
                                             u4961 1E9A                                               u4954 18F2  
                                             u4970 1A98                                               u4955 18EE  
                                             u4971 1A94                                               u5827 14D8  
                                             u4980 1AAA                                               u4981 1AA6  
                                             u5837 159C                                               u4990 1ACC  
                                             u4991 1AC8                                               u5847 19E0  
                                             u5857 177A                                               u5867 179A  
                                             u5877 17B6                                               _TMR2 0FCC  
                    ??_lcd_4bit_send_enable_signal 004C                           _RB4_InterruptHandler_LOW 0023  
                                             _lcd1 006E                     gpio_pin_read_logic@_pin_config 0040  
                                             _main 21BE                                   __end_of_CCP1_ISR 2216  
                                 __end_of_CCP2_ISR 2212                           _RB7_InterruptHandler_LOW 0017  
                                             fsr2h 0FDA                                               indf2 0FDF  
                                             fsr1l 0FE1                                               fsr2l 0FD9  
                                             btemp 0074                  lcd_4bit_send_char_data_pos@column 005C  
                                             prodl 0FF3                                               start 000E  
                                    fp__passwordUI 0000                                       ___param_bank 0000  
                            _lcd_4bit_send_command 1E8C                               _gpio_pin_write_logic 1830  
                   lcd_4bit_send_string_pos@column 005C                              lcd_4bit_intialize@lcd 0052  
                            lcd_4bit_intialize@ret 0057                                   __end_of_INT0_ISR 220A  
                                 __end_of_INT1_ISR 2206                                   __end_of_INT2_ISR 2202  
                                    _EUSART_RX_ISR 221C                                      _EUSART_TX_ISR 220A  
                                            ?_main 003F                                              _EEADR 0FA9  
                                            STR_10 101D                                              i2l590 2210  
                                            i2l489 2218                                              i2l585 2214  
                                            i2l935 21F8                                              i2l939 21FC  
                                            _RCREG 0FAE                                relay_turn_off@F3020 0038  
                                            _TMR0H 0FD7                                              _TMR1H 0FCF  
                                            _TMR0L 0FD6                                              _TMR1L 0FCE  
                                            _TMR3H 0FB3                                              _TMR3L 0FB2  
                                            _SPBRG 0FAF                                              _PORTA 0F80  
                                            _PORTB 0F81                                              _PORTC 0F82  
                                            _PORTD 0F83                                              _PORTE 0F84  
                                            _TRISA 0F92                                              _TRISB 0F93  
                                            _TRISC 0F94                                              _TRISD 0F95  
                                            _TRISE 0F96                                              _TXREG 0FAD  
                        lcd_4bit_set_cursor@coulmn 0055                           __end_of_keypad_get_value 1A82  
                                 __end_of_TMR0_ISR 21EE                                   __end_of_TMR1_ISR 21E2  
                                 __end_of_TMR2_ISR 21F6                                      fp__settingsUI 0000  
                                 __end_of_TMR3_ISR 21D6                                              pclath 0FFA  
                                            tablat 0FF5                                   homeUI@keypad_val 0060  
                                            ttemp5 0075                                              ttemp6 0078  
                                            ttemp7 007C                                              status 0FD8  
                                            wtemp8 0075                  keypad_get_value@l_columns_counter 0054  
                              passwordUI@rpassword 00B5                                    __initialization 1FD2  
                              keypad_get_value@ret 0051                                       __end_of_main 21CA  
                            ?_gpio_pin_write_logic 0040                                          ??_ADC_ISR 003F  
                                   ?_EUSART_RX_ISR 003F                                     ?_EUSART_TX_ISR 003F  
                         gpio_pin_read_logic@logic 0042                                      _lat_registers 008A  
                                           ??_main 0062                                      __activetblptr 0003  
                            _TMR3_InterruptHandler 000B                                   led_turn_on@F3021 003D  
                                        ??_RB4_ISR 003F                                          ??_RB5_ISR 003F  
                                        ??_RB6_ISR 003F                                          ??_RB7_ISR 003F  
                       _EUSART_OverrunErrorHandler 0001                                             _ADRESH 0FC4  
                                           _EEADRH 0FAA                                             _ADRESL 0FC3  
                                           _EEDATA 0FA8                                             _CCPR1L 0FBE  
                                           _CCPR2L 0FBB                                             _EECON2 0FA7  
                                           i2l1003 2208                                             i2l1013 2200  
                                           i2l1008 2204                                             i2l1024 21AA  
                                           i2l1035 2190                                             i2l1046 2176  
                                           i2l1240 1142                                             i2l1232 107A  
                                           i2l1057 215C                                             i2l1250 1296  
                                           i2l1242 1186                                             i2l1234 109A  
                                           i2l1403 21EC                                             i2l3100 2160  
                                           i2l1260 135A                                             i2l1252 12DA  
                                           i2l1244 11CA                                             i2l1236 10BA  
                                           i2l3022 2212                                             i2l3102 2162  
                                           i2l1270 13FA                                             i2l1262 137A  
                                           i2l1254 12FA                                             i2l1246 120E  
                                           i2l1238 10FE                                             i2l1272 141A  
                                           i2l1264 139A                                             i2l1256 131A  
                                           i2l1248 1252                                             i2l1337 221A  
                                           i2l3018 2216                                             i2l3050 21FA  
                                           i2l3122 215C                                             i2l3114 2146  
                                           i2l1274 143A                                             i2l1266 13BA  
                                           i2l1258 133A                                             i2l1523 21F4  
                                           i2l3028 220E                                             i2l3204 221C  
                                           i2l3060 2202                                             i2l3108 2176  
                                           i2l3116 2148                                             i2l1268 13DA  
                                           i2l1277 145A                                             i2l3054 2206  
                                           i2l3046 21F6                                             i2l3080 21AA  
                                           i2l3072 2194                                             i2l1472 21E0  
                                           i2l3066 21FE                                             i2l3074 2196  
                                           i2l3170 21E2                                             i2l1708 221C  
                                           i2l3172 21E4                                             i2l3180 21D8  
                                           i2l3094 2190                                             i2l3086 217A  
                                           i2l3174 21E8                                             i2l3182 21DC  
                                           i2l3190 21CA                                             i2l1567 21D4  
                                           i2l3088 217C                                             i2l3192 21CC  
                                           i2l3178 21D6                                             i2l3186 21EE  
                                           i2l3194 21D0                                             i2l3198 220A  
                                           i2l4600 11D8                                             i2l4610 121C  
                                           i2l4602 11E6                                             i2l1699 220C  
                                           i2l4620 1260                                             i2l4612 122A  
                                           i2l4604 11F4                                             i2l4630 12A4  
                                           i2l4622 126E                                             i2l4614 1238  
                                           i2l4606 1204                                             i2l4550 1076  
                                           i2l4640 12E8                                             i2l4632 12B2  
                                           i2l4624 127C                                             i2l4616 1248  
                                           i2l4608 1208                                             i2l4560 10C8  
                                           i2l4552 1088                                             i2l4650 1336  
                                           i2l4642 12F6                                             i2l4634 12C0  
                                           i2l4626 128C                                             i2l4618 124C  
                                           i2l4570 110C                                             i2l4562 10D6  
                                           i2l4554 1096                                             i2l4546 105A  
                                           i2l4660 1388                                             i2l4652 1348  
                                           i2l4644 1308                                             i2l4636 12D0  
                                           i2l4628 1290                                             i2l4580 1150  
                                           i2l4572 111A                                             i2l4564 10E4  
                                           i2l4556 10A8                                             i2l4548 1068  
                                           i2l4670 13D6                                             i2l4662 1396  
                                           i2l4654 1356                                             i2l4646 1316  
                                           i2l4638 12D4                                             i2l4590 1194  
                                           i2l4582 115E                                             i2l4574 1128  
                                           i2l4566 10F4                                             i2l4558 10B6  
                                           i2l4680 1428                                             i2l4672 13E8  
                                           i2l4664 13A8                                             i2l4656 1368  
                                           i2l4648 1328                                             i2l4592 11A2  
                                           i2l4584 116C                                             i2l4576 1138  
                                           i2l4568 10F8                                             i2l4682 1436  
                                           i2l4674 13F6                                             i2l4666 13B6  
                                           i2l4658 1376                                             i2l4594 11B0  
                                           i2l4586 117C                                             i2l4578 113C  
                                           i2l4684 1448                                             i2l4676 1408  
                                           i2l4668 13C8                                             i2l4596 11C0  
                                           i2l4588 1180                                             i2l4686 1456  
                                           i2l4678 1416                                             i2l4598 11C4  
                                           _SPBRGH 0FB0                                             _SSPADD 0FC8  
                                           _SSPBUF 0FC9                          keypad_get_value@l_counter 0052  
                 __end_of_lcd_4bit_send_string_pos 1E1A                             ?_lcd_4bit_send_command 004E  
                                           _mainUI 20AE                                             _homeUI 1BE2  
                                           clear_0 2018                                             clear_1 2024  
                                           isa$std 0001            gpio_pin_direction_intialize@_pin_config 0040  
      _I2C_Report_Receive_Overflow_InterruptHandle 00B3                                          ?_CCP1_ISR 003F  
                                     __pdataCOMRAM 0062                                          ?_CCP2_ISR 003F  
                                     __mediumconst 0000                                             tblptrh 0FF7  
                                           tblptrl 0FF6                                             tblptru 0FF8  
                                       __accesstop 0080                            __end_of__initialization 202A  
                                        ?_INT0_ISR 003F                                          ?_INT1_ISR 003F  
                                        ?_INT2_ISR 003F                                      ___rparam_used 0001  
                                 ??_lcd_send_4bits 004D                            _lcd_4bit_send_char_data 1E1A  
                                RB5_ISR@RB5_Source 003F                             ??_gpio_pin_write_logic 0043  
                                   __pcstackCOMRAM 003F                         _I2C_DefaultInterruptHandle 002D  
                                     __pidataBANK0 20D8                                          ?_TMR0_ISR 003F  
                                  ??_EUSART_RX_ISR 003F                                          ?_TMR1_ISR 003F  
                                        ?_TMR2_ISR 003F                                          ?_TMR3_ISR 003F  
                                  ??_EUSART_TX_ISR 003F                           lcd_4bit_send_command@lcd 004E  
                         lcd_4bit_send_command@ret 0051                                         ??_CCP1_ISR 003F  
                                       ??_CCP2_ISR 003F                       ?_lcd_4bit_send_char_data_pos 0059  
                                       __pbssBANK0 00A9                              _INT0_InterruptHandler 002B  
                                       ??_INT0_ISR 003F                                         ??_INT1_ISR 003F  
                                       ??_INT2_ISR 003F                                         ??_TMR0_ISR 003F  
                                       ??_TMR1_ISR 003F                                         ??_TMR2_ISR 003F  
                                       ??_TMR3_ISR 003F                                  led_turn_off@F3026 003C  
                                          ?_mainUI 003F                                            ?_homeUI 003F  
                                          _ADC_ISR 2216                                  RB7_ISR@RB7_Source 003F  
                                   _lcd_4bit_clear 2102                                            _RB4_ISR 2192  
                                          _RB5_ISR 2178                                   _interfaceHandler 00C0  
                                          _RB6_ISR 215E                                            _RB7_ISR 2144  
                        ?_lcd_4bit_send_string_pos 0059                          _RB6_InterruptHandler_HIGH 001D  
                                    ?_MSSP_I2C_ISR 003F                               led_turn_toggle@F3031 003B  
                                          i2u60_40 21A6                                            i2u60_41 21A2  
                                          i2u61_40 218C                                            i2u61_41 2188  
                                          i2u62_40 2172                                            i2u62_41 216E  
                                          i2u63_40 2158                                            i2u63_41 2154  
                                ?_keypad_get_value 004A                                        passwordUI@i 00BF  
                               ??_keypad_get_value 004E                                         _btn_values 1001  
                                   _tris_registers 0094                           _RB6_InterruptHandler_LOW 001B  
                        ??_lcd_4bit_send_char_data 0051                                      ?_MSSP_SPI_ISR 003F  
                                ??_MSSP_I2C_BC_ISR 003F                               _ADC_InterruptHandler 0035  
                                          __Hparam 0000                                            __Lparam 0000  
                              _ecu_layer_intialize 212A                                _gpio_pin_read_logic 1A82  
                 keypad_initialize@columns_counter 0054                                       __psmallconst 1000  
                           __end_of_lcd_4bit_clear 212A                         __end_of_gpio_pin_intialize 1F6A  
                                          __pcinit 1FD2                                            __ramtop 1000  
                                          __ptext0 21BE                                            __ptext1 20AE  
                                          __ptext2 145E                                            __ptext3 1BE2  
                                          __ptext4 1C82                                            __ptext5 2034  
                                          __ptext6 1DA2                                            __ptext7 1B3A  
                                          __ptext8 1E1A                                            __ptext9 2102  
                                        _T0CONbits 0FD5                                          _T1CONbits 0FCD  
                                   ??_MSSP_I2C_ISR 003F                                          _T2CONbits 0FCA  
                                          _keypad1 00A2                                          _T3CONbits 0FB1  
                             ?_ecu_layer_intialize 003F                               ?_gpio_pin_read_logic 0040  
            lcd_4bit_intialize@l_data_pins_counter 0056                                     __pintcode_body 1058  
                             end_of_initialization 202A                                  lcd_send_4bits@lcd 004A  
                                lcd_send_4bits@ret 004D                                         _passwordUI 145E  
                                          int_func 1058                                     ??_MSSP_SPI_ISR 003F  
                       __end_of_lcd_4bit_intialize 1830                            ??_lcd_4bit_send_command 0051  
                            gpio_pin_intialize@ret 004D                                          _RCSTAbits 0FAB  
                                          postdec1 0FE5                                            postdec2 0FDD  
                                          postinc0 0FEE                                            postinc1 0FE6  
                                          postinc2 0FDE                                    ?_lcd_4bit_clear 0052  
                  __end_of_lcd_4bit_send_char_data 1E8C                              _INT1_InterruptHandler 0029  
                                        _PORTBbits 0F81                                      passwordUI@ret 00BE  
                                       _settingsUI 1C82                                   _InterruptManager 0008  
                    gpio_pin_intialize@_pin_config 004A                       keypad_get_value@column_logic 0050  
                       lcd_4bit_send_char_data@lcd 004E                              ??_ecu_layer_intialize 0058  
                       lcd_4bit_send_char_data@ret 0051               __end_of_gpio_pin_direction_intialize 1704  
                     _gpio_pin_direction_intialize 15C0                                          _TRISCbits 0F94  
                            ??_gpio_pin_read_logic 0044                    lcd_4bit_send_char_data_pos@data 005D  
                                      _CCP1CONbits 0FBD                                        _CCP2CONbits 0FBA  
                                        _TXSTAbits 0FAC                                 relay_turn_on@F3015 0039  
                              _lcd_4bit_set_cursor 1B3A                                 passwordUI@errFlage 00BD  
                      lcd_4bit_send_string_pos@lcd 0059                        lcd_4bit_send_string_pos@ret 005F  
                      lcd_4bit_send_string_pos@row 005B                        lcd_4bit_send_string_pos@str 005D  
                            keypad_get_value@value 004C                      convert_uint16_to_string@F3171 00A9  
                                      _BAUDCONbits 0FB8                                      __pidataCOMRAM 21AC  
                                   __end_of_mainUI 20D8                                     _timer0_preload 0013  
                                   __end_of_homeUI 1C82                                     _timer1_preload 000F  
                               passwordUI@password 00B9                                     _timer2_preload 0037  
                              start_initialization 1FD2                                     _timer3_preload 0009  
                     ?_lcd_4bit_send_enable_signal 004A                               ?_lcd_4bit_set_cursor 0052  
MSSP_SPI_Msster_Mode_GPIO_PIN_Configurations@F3060 0068  MSSP_SPI_Msster_Mode_GPIO_PIN_Configurations@F3062 0067  
 MSSP_SPI_Slave_Mode_GPIO_PIN_Configurations@F3071 0064   MSSP_SPI_Slave_Mode_GPIO_PIN_Configurations@F3073 0063  
MSSP_SPI_Msster_Mode_GPIO_PIN_Configurations@F3058 0069   MSSP_SPI_Slave_Mode_GPIO_PIN_Configurations@F3067 0066  
 MSSP_SPI_Slave_Mode_GPIO_PIN_Configurations@F3069 0065                      ?_gpio_pin_direction_intialize 0040  
                                      ?_passwordUI 003F                          _EUSART_RxInterruptHandler 0005  
                             __end_of_MSSP_I2C_ISR 21FA                         _EUSART_FramingErrorHandler 0003  
                                         ??_mainUI 0062                                        __pdataBANK0 0080  
                                         ??_homeUI 0060                                           ?_ADC_ISR 003F  
                            __end_of_EUSART_RX_ISR 221E                              __end_of_EUSART_TX_ISR 220E  
                     lcd_4bit_send_command@command 0050                                        ?_settingsUI 003F  
                             __end_of_MSSP_SPI_ISR 221C                                           ?_RB4_ISR 003F  
                                         ?_RB5_ISR 003F                                           ?_RB6_ISR 003F  
                                         ?_RB7_ISR 003F                                        __pbssCOMRAM 0001  
                            ??_lcd_4bit_set_cursor 0056        _I2C_Report_Write_Collision_InterruptHandler 002F  
                                    __pcstackBANK0 00B5                                    _MSSP_I2C_BC_ISR 21FA  
                            _INT2_InterruptHandler 0027                    gpio_pin_direction_intialize@ret 0048  
                            _TMR0_InterruptHandler 0015                                          __pnvBANK0 00C0  
                    keypad_initialize@rows_counter 0053                                          __pintcode 0008  
                                _samefunctionFlage 0062                    gpio_pin_write_logic@_pin_config 0040  
                        gpio_pin_write_logic@logic 0042                                        __smallconst 1000  
                        _RB4_InterruptHandler_HIGH 0025                                           _CCP1_ISR 2212  
                                         _CCP2_ISR 220E                          _RB7_InterruptHandler_HIGH 0019  
                             settingsUI@keypad_val 0060                                 _gpio_pin_intialize 1EFE  
                   ??_gpio_pin_direction_intialize 0042                           _RB5_InterruptHandler_LOW 001F  
                                         _INT0_ISR 2206                                           _INT1_ISR 2202  
                                         _INT2_ISR 21FE                                           _RB4_Flag 006D  
                                         _RB5_Flag 006C                                           _RB6_Flag 006B  
                                         _RB7_Flag 006A                                  RB4_ISR@RB4_Source 003F  
                              ?_gpio_pin_intialize 004A                           __end_of_InterruptManager 145E  
                                         _PIE1bits 0F9D                                           _PIE2bits 0FA0  
                    __end_of_lcd_4bit_send_command 1EFE                                           i2u230_40 10D6  
                                         i2u230_41 10D2                                           i2u231_40 10E4  
                                         i2u223_40 1068                                           i2u231_41 10E0  
                                         i2u223_41 1064                                           i2u240_40 117C  
                                         i2u232_40 10F4                                           i2u224_40 1076  
                                         i2u240_41 1178                                           i2u232_41 10F0  
                                         i2u224_41 1072                                           i2u241_40 1194  
                                         i2u233_40 110C                                           i2u225_40 1088  
                                         i2u241_41 1190                                           i2u233_41 1108  
                                         i2u225_41 1084                                           i2u250_40 122A  
                                         i2u242_40 11A2                                           i2u234_40 111A  
                                         i2u226_40 1096                                           i2u250_41 1226  
                                         i2u242_41 119E                                           i2u234_41 1116  
                                         i2u226_41 1092                                           i2u251_40 1238  
                                         i2u243_40 11B0                                           i2u235_40 1128  
                                         i2u227_40 10A8                                           i2u251_41 1234  
                                         i2u243_41 11AC                                           i2u235_41 1124  
                                         i2u227_41 10A4                                           i2u260_40 12D0  
                                         i2u252_40 1248                                           i2u244_40 11C0  
                                         i2u236_40 1138                                           i2u228_40 10B6  
                                         i2u260_41 12CC                                           i2u252_41 1244  
                                         i2u244_41 11BC                                           i2u236_41 1134  
                                         i2u228_41 10B2                                           i2u261_40 12E8  
                                         i2u253_40 1260                                           i2u245_40 11D8  
                                         i2u237_40 1150                                           i2u229_40 10C8  
                                         i2u261_41 12E4                                           i2u253_41 125C  
                                         i2u245_41 11D4                                           i2u237_41 114C  
                                         i2u229_41 10C4                                           i2u270_40 1376  
                                         i2u262_40 12F6                                           i2u254_40 126E  
                                         i2u246_40 11E6                                           i2u238_40 115E  
                                         i2u270_41 1372                                           i2u262_41 12F2  
                                         i2u254_41 126A                                           i2u246_41 11E2  
                                         i2u238_41 115A                                           i2u271_40 1388  
                                         i2u263_40 1308                                           i2u255_40 127C  
                                         i2u247_40 11F4                                           i2u239_40 116C  
                                         i2u271_41 1384                                           i2u263_41 1304  
                                         i2u255_41 1278                                           i2u247_41 11F0  
                                         i2u239_41 1168                                           i2u280_40 1416  
                                         i2u272_40 1396                                           i2u264_40 1316  
                                         i2u256_40 128C                                           i2u248_40 1204  
                                         i2u280_41 1412                                           i2u272_41 1392  
                                         i2u264_41 1312                                           i2u256_41 1288  
                                         i2u248_41 1200                                           i2u281_40 1428  
                                         i2u273_40 13A8                                           i2u265_40 1328  
                                         i2u257_40 12A4                                           i2u249_40 121C  
                                         i2u281_41 1424                                           i2u273_41 13A4  
                                         i2u265_41 1324                                           i2u257_41 12A0  
                                         i2u249_41 1218                                           _PIR1bits 0F9E  
                                         i2u282_40 1436                                           i2u274_40 13B6  
                                         i2u266_40 1336                                           i2u258_40 12B2  
                                         i2u282_41 1432                                           i2u274_41 13B2  
                                         i2u266_41 1332                                           i2u258_41 12AE  
                                         i2u283_40 1448                                           i2u275_40 13C8  
                                         i2u267_40 1348                                           i2u259_40 12C0  
                                         i2u283_41 1444                                           i2u275_41 13C4  
                                         i2u267_41 1344                                           i2u259_41 12BC  
                                         _PIR2bits 0FA1                                           i2u284_40 1456  
                                         i2u276_40 13D6                                           i2u268_40 1356  
                                         i2u284_41 1452                                           i2u276_41 13D2  
                                         i2u268_41 1352                                           i2u277_40 13E8  
                                         i2u269_40 1368                                           i2u277_41 13E4  
                                         i2u269_41 1364                                           i2u278_40 13F6  
                                         i2u278_41 13F2                                           i2u279_40 1408  
                                         i2u279_41 1404                                   ??_lcd_4bit_clear 0054  
                                         _TMR0_ISR 21E2                                           _TMR1_ISR 21D6  
                                         _TMR2_ISR 21EE                                           _TMR3_ISR 21CA  
                               _lcd_4bit_intialize 1704                           _lcd_4bit_send_string_pos 1DA2  
                                        fp__homeUI 0000                                         _ADCON0bits 0FC2  
                                       _ADCON1bits 0FC1                                         _ADCON2bits 0FC0  
                          __end_of_MSSP_I2C_BC_ISR 21FE                               ??_gpio_pin_intialize 004C  
                   lcd_4bit_send_char_data_pos@lcd 0059                     lcd_4bit_send_char_data_pos@ret 005E  
                   lcd_4bit_send_char_data_pos@row 005B                                ?_lcd_4bit_intialize 0052  
              __end_of_lcd_4bit_send_char_data_pos 207A                        _lcd_4bit_send_char_data_pos 2034  
                          gpio_pin_write_logic@ret 0049                                        _INTCON2bits 0FF1  
                                      _INTCON3bits 0FF0                           ?_lcd_4bit_send_char_data 004E  
                                        copy_data0 1FE6                                          copy_data1 2006  
                                _keypad_initialize 1D22                                 ?_keypad_initialize 004E  
                           gpio_pin_read_logic@ret 0049                      ??_lcd_4bit_send_char_data_pos 005E  
                                       _EECON1bits 0FA6                               ??_lcd_4bit_intialize 0054  
                                         __Hrparam 0000                                           __Lrparam 0000  
                              ??_keypad_initialize 0050                                  RB6_ISR@RB6_Source 003F  
                            _CCP1_InterruptHandler 0033                             lcd_4bit_set_cursor@lcd 0052  
                      __end_of_ecu_layer_intialize 2144                             lcd_4bit_set_cursor@ret 0058  
                           lcd_4bit_set_cursor@row 0054                                 __end_of_btn_values 100D  
                      __end_of_gpio_pin_read_logic 1B3A                              _TMR1_InterruptHandler 0011  
                      keypad_get_value@_keypad_obj 004A                                       _MSSP_I2C_ISR 21F6  
                        __end_of_keypad_initialize 1DA2                                           __ptext10 195C  
                                         __ptext11 1A82                                           __ptext20 15C0  
                                         __ptext12 212A                                           __ptext13 1704  
                                         __ptext30 221A                                           __ptext22 21CA  
                                         __ptext14 1E8C                                           __ptext31 21F6  
                                         __ptext23 21EE                                           __ptext15 1F6A  
                                         __ptext40 2216                                           __ptext32 21FA  
                                         __ptext24 21D6                                           __ptext16 207A  
                                         __ptext41 0000                                           __ptext33 21FE  
                                         __ptext25 21E2                                           __ptext17 1D22  
                                         __ptext34 2202                                           __ptext26 2144  
                                         __ptext18 1EFE                                           __ptext35 2206  
                                         __ptext27 215E                                           __ptext19 1830  
                                         __ptext36 220A                                           __ptext28 2178  
                                         __ptext37 221C                                           __ptext29 2192  
                                         __ptext38 220E                                           __ptext39 2212  
                                     ??_passwordUI 0060                                       _MSSP_SPI_ISR 221A  
                                 _keypad_get_value 195C                                           isa$xinst 0000  
                                         int$flags 0074                                     _lcd_send_4bits 1F6A  
                                     ??_settingsUI 0060                                   ?_MSSP_I2C_BC_ISR 003F  
                               __end_of_passwordUI 15C0                                         _INTCONbits 0FF2  
                   keypad_get_value@l_rows_counter 0053                       __end_of_gpio_pin_write_logic 195C  
                                         intlevel2 0000                     lcd_4bit_send_enable_signal@lcd 004A  
                   lcd_4bit_send_enable_signal@ret 004C                                    passwordUI@F3111 009E  
                                  passwordUI@F3109 00AF                          _EUSART_TxInterruptHandler 0007  
                     keypad_initialize@_keypad_obj 004E                                 __end_of_settingsUI 1D22  
                           __end_of_lcd_send_4bits 1FD2                        __end_of_lcd_4bit_set_cursor 1BE2  
                                   _port_registers 0080                                        _SSPCON1bits 0FC6  
                                      _SSPCON2bits 0FC5                              _CCP2_InterruptHandler 0031  
                      lcd_4bit_send_char_data@data 0050                              _TMR2_InterruptHandler 000D  
                                ?_InterruptManager 003F                         ??_lcd_4bit_send_string_pos 005F  
